
a.out:     file format elf64-x86-64


Disassembly of section .init:

0000000000401000 <_init>:
  401000:	48 83 ec 08          	sub    $0x8,%rsp
  401004:	48 8b 05 ed 8f 20 00 	mov    0x208fed(%rip),%rax        # 609ff8 <_DYNAMIC+0x1f0>
  40100b:	48 85 c0             	test   %rax,%rax
  40100e:	74 05                	je     401015 <_init+0x15>
  401010:	e8 eb 02 00 00       	callq  401300 <rand@plt+0x10>
  401015:	48 83 c4 08          	add    $0x8,%rsp
  401019:	c3                   	retq   

Disassembly of section .plt:

0000000000401020 <free@plt-0x10>:
  401020:	ff 35 e2 8f 20 00    	pushq  0x208fe2(%rip)        # 60a008 <_GLOBAL_OFFSET_TABLE_+0x8>
  401026:	ff 25 e4 8f 20 00    	jmpq   *0x208fe4(%rip)        # 60a010 <_GLOBAL_OFFSET_TABLE_+0x10>
  40102c:	0f 1f 40 00          	nopl   0x0(%rax)

0000000000401030 <free@plt>:
  401030:	ff 25 e2 8f 20 00    	jmpq   *0x208fe2(%rip)        # 60a018 <_GLOBAL_OFFSET_TABLE_+0x18>
  401036:	68 00 00 00 00       	pushq  $0x0
  40103b:	e9 e0 ff ff ff       	jmpq   401020 <_init+0x20>

0000000000401040 <putchar@plt>:
  401040:	ff 25 da 8f 20 00    	jmpq   *0x208fda(%rip)        # 60a020 <_GLOBAL_OFFSET_TABLE_+0x20>
  401046:	68 01 00 00 00       	pushq  $0x1
  40104b:	e9 d0 ff ff ff       	jmpq   401020 <_init+0x20>

0000000000401050 <pthread_create@plt>:
  401050:	ff 25 d2 8f 20 00    	jmpq   *0x208fd2(%rip)        # 60a028 <_GLOBAL_OFFSET_TABLE_+0x28>
  401056:	68 02 00 00 00       	pushq  $0x2
  40105b:	e9 c0 ff ff ff       	jmpq   401020 <_init+0x20>

0000000000401060 <__isoc99_fscanf@plt>:
  401060:	ff 25 ca 8f 20 00    	jmpq   *0x208fca(%rip)        # 60a030 <_GLOBAL_OFFSET_TABLE_+0x30>
  401066:	68 03 00 00 00       	pushq  $0x3
  40106b:	e9 b0 ff ff ff       	jmpq   401020 <_init+0x20>

0000000000401070 <puts@plt>:
  401070:	ff 25 c2 8f 20 00    	jmpq   *0x208fc2(%rip)        # 60a038 <_GLOBAL_OFFSET_TABLE_+0x38>
  401076:	68 04 00 00 00       	pushq  $0x4
  40107b:	e9 a0 ff ff ff       	jmpq   401020 <_init+0x20>

0000000000401080 <strtod@plt>:
  401080:	ff 25 ba 8f 20 00    	jmpq   *0x208fba(%rip)        # 60a040 <_GLOBAL_OFFSET_TABLE_+0x40>
  401086:	68 05 00 00 00       	pushq  $0x5
  40108b:	e9 90 ff ff ff       	jmpq   401020 <_init+0x20>

0000000000401090 <pthread_attr_setaffinity_np@plt>:
  401090:	ff 25 b2 8f 20 00    	jmpq   *0x208fb2(%rip)        # 60a048 <_GLOBAL_OFFSET_TABLE_+0x48>
  401096:	68 06 00 00 00       	pushq  $0x6
  40109b:	e9 80 ff ff ff       	jmpq   401020 <_init+0x20>

00000000004010a0 <nrand48@plt>:
  4010a0:	ff 25 aa 8f 20 00    	jmpq   *0x208faa(%rip)        # 60a050 <_GLOBAL_OFFSET_TABLE_+0x50>
  4010a6:	68 07 00 00 00       	pushq  $0x7
  4010ab:	e9 70 ff ff ff       	jmpq   401020 <_init+0x20>

00000000004010b0 <clock@plt>:
  4010b0:	ff 25 a2 8f 20 00    	jmpq   *0x208fa2(%rip)        # 60a058 <_GLOBAL_OFFSET_TABLE_+0x58>
  4010b6:	68 08 00 00 00       	pushq  $0x8
  4010bb:	e9 60 ff ff ff       	jmpq   401020 <_init+0x20>

00000000004010c0 <fclose@plt>:
  4010c0:	ff 25 9a 8f 20 00    	jmpq   *0x208f9a(%rip)        # 60a060 <_GLOBAL_OFFSET_TABLE_+0x60>
  4010c6:	68 09 00 00 00       	pushq  $0x9
  4010cb:	e9 50 ff ff ff       	jmpq   401020 <_init+0x20>

00000000004010d0 <strlen@plt>:
  4010d0:	ff 25 92 8f 20 00    	jmpq   *0x208f92(%rip)        # 60a068 <_GLOBAL_OFFSET_TABLE_+0x68>
  4010d6:	68 0a 00 00 00       	pushq  $0xa
  4010db:	e9 40 ff ff ff       	jmpq   401020 <_init+0x20>

00000000004010e0 <getopt_long@plt>:
  4010e0:	ff 25 8a 8f 20 00    	jmpq   *0x208f8a(%rip)        # 60a070 <_GLOBAL_OFFSET_TABLE_+0x70>
  4010e6:	68 0b 00 00 00       	pushq  $0xb
  4010eb:	e9 30 ff ff ff       	jmpq   401020 <_init+0x20>

00000000004010f0 <printf@plt>:
  4010f0:	ff 25 82 8f 20 00    	jmpq   *0x208f82(%rip)        # 60a078 <_GLOBAL_OFFSET_TABLE_+0x78>
  4010f6:	68 0c 00 00 00       	pushq  $0xc
  4010fb:	e9 20 ff ff ff       	jmpq   401020 <_init+0x20>

0000000000401100 <gettimeofday@plt>:
  401100:	ff 25 7a 8f 20 00    	jmpq   *0x208f7a(%rip)        # 60a080 <_GLOBAL_OFFSET_TABLE_+0x80>
  401106:	68 0d 00 00 00       	pushq  $0xd
  40110b:	e9 10 ff ff ff       	jmpq   401020 <_init+0x20>

0000000000401110 <__assert_fail@plt>:
  401110:	ff 25 72 8f 20 00    	jmpq   *0x208f72(%rip)        # 60a088 <_GLOBAL_OFFSET_TABLE_+0x88>
  401116:	68 0e 00 00 00       	pushq  $0xe
  40111b:	e9 00 ff ff ff       	jmpq   401020 <_init+0x20>

0000000000401120 <memset@plt>:
  401120:	ff 25 6a 8f 20 00    	jmpq   *0x208f6a(%rip)        # 60a090 <_GLOBAL_OFFSET_TABLE_+0x90>
  401126:	68 0f 00 00 00       	pushq  $0xf
  40112b:	e9 f0 fe ff ff       	jmpq   401020 <_init+0x20>

0000000000401130 <pow@plt>:
  401130:	ff 25 62 8f 20 00    	jmpq   *0x208f62(%rip)        # 60a098 <_GLOBAL_OFFSET_TABLE_+0x98>
  401136:	68 10 00 00 00       	pushq  $0x10
  40113b:	e9 e0 fe ff ff       	jmpq   401020 <_init+0x20>

0000000000401140 <fmod@plt>:
  401140:	ff 25 5a 8f 20 00    	jmpq   *0x208f5a(%rip)        # 60a0a0 <_GLOBAL_OFFSET_TABLE_+0xa0>
  401146:	68 11 00 00 00       	pushq  $0x11
  40114b:	e9 d0 fe ff ff       	jmpq   401020 <_init+0x20>

0000000000401150 <fputc@plt>:
  401150:	ff 25 52 8f 20 00    	jmpq   *0x208f52(%rip)        # 60a0a8 <_GLOBAL_OFFSET_TABLE_+0xa8>
  401156:	68 12 00 00 00       	pushq  $0x12
  40115b:	e9 c0 fe ff ff       	jmpq   401020 <_init+0x20>

0000000000401160 <__libc_start_main@plt>:
  401160:	ff 25 4a 8f 20 00    	jmpq   *0x208f4a(%rip)        # 60a0b0 <_GLOBAL_OFFSET_TABLE_+0xb0>
  401166:	68 13 00 00 00       	pushq  $0x13
  40116b:	e9 b0 fe ff ff       	jmpq   401020 <_init+0x20>

0000000000401170 <srand@plt>:
  401170:	ff 25 42 8f 20 00    	jmpq   *0x208f42(%rip)        # 60a0b8 <_GLOBAL_OFFSET_TABLE_+0xb8>
  401176:	68 14 00 00 00       	pushq  $0x14
  40117b:	e9 a0 fe ff ff       	jmpq   401020 <_init+0x20>

0000000000401180 <pthread_attr_init@plt>:
  401180:	ff 25 3a 8f 20 00    	jmpq   *0x208f3a(%rip)        # 60a0c0 <_GLOBAL_OFFSET_TABLE_+0xc0>
  401186:	68 15 00 00 00       	pushq  $0x15
  40118b:	e9 90 fe ff ff       	jmpq   401020 <_init+0x20>

0000000000401190 <calloc@plt>:
  401190:	ff 25 32 8f 20 00    	jmpq   *0x208f32(%rip)        # 60a0c8 <_GLOBAL_OFFSET_TABLE_+0xc8>
  401196:	68 16 00 00 00       	pushq  $0x16
  40119b:	e9 80 fe ff ff       	jmpq   401020 <_init+0x20>

00000000004011a0 <strcmp@plt>:
  4011a0:	ff 25 2a 8f 20 00    	jmpq   *0x208f2a(%rip)        # 60a0d0 <_GLOBAL_OFFSET_TABLE_+0xd0>
  4011a6:	68 17 00 00 00       	pushq  $0x17
  4011ab:	e9 70 fe ff ff       	jmpq   401020 <_init+0x20>

00000000004011b0 <fprintf@plt>:
  4011b0:	ff 25 22 8f 20 00    	jmpq   *0x208f22(%rip)        # 60a0d8 <_GLOBAL_OFFSET_TABLE_+0xd8>
  4011b6:	68 18 00 00 00       	pushq  $0x18
  4011bb:	e9 60 fe ff ff       	jmpq   401020 <_init+0x20>

00000000004011c0 <strtol@plt>:
  4011c0:	ff 25 1a 8f 20 00    	jmpq   *0x208f1a(%rip)        # 60a0e0 <_GLOBAL_OFFSET_TABLE_+0xe0>
  4011c6:	68 19 00 00 00       	pushq  $0x19
  4011cb:	e9 50 fe ff ff       	jmpq   401020 <_init+0x20>

00000000004011d0 <memcpy@plt>:
  4011d0:	ff 25 12 8f 20 00    	jmpq   *0x208f12(%rip)        # 60a0e8 <_GLOBAL_OFFSET_TABLE_+0xe8>
  4011d6:	68 1a 00 00 00       	pushq  $0x1a
  4011db:	e9 40 fe ff ff       	jmpq   401020 <_init+0x20>

00000000004011e0 <time@plt>:
  4011e0:	ff 25 0a 8f 20 00    	jmpq   *0x208f0a(%rip)        # 60a0f0 <_GLOBAL_OFFSET_TABLE_+0xf0>
  4011e6:	68 1b 00 00 00       	pushq  $0x1b
  4011eb:	e9 30 fe ff ff       	jmpq   401020 <_init+0x20>

00000000004011f0 <pthread_mutex_unlock@plt>:
  4011f0:	ff 25 02 8f 20 00    	jmpq   *0x208f02(%rip)        # 60a0f8 <_GLOBAL_OFFSET_TABLE_+0xf8>
  4011f6:	68 1c 00 00 00       	pushq  $0x1c
  4011fb:	e9 20 fe ff ff       	jmpq   401020 <_init+0x20>

0000000000401200 <malloc@plt>:
  401200:	ff 25 fa 8e 20 00    	jmpq   *0x208efa(%rip)        # 60a100 <_GLOBAL_OFFSET_TABLE_+0x100>
  401206:	68 1d 00 00 00       	pushq  $0x1d
  40120b:	e9 10 fe ff ff       	jmpq   401020 <_init+0x20>

0000000000401210 <fflush@plt>:
  401210:	ff 25 f2 8e 20 00    	jmpq   *0x208ef2(%rip)        # 60a108 <_GLOBAL_OFFSET_TABLE_+0x108>
  401216:	68 1e 00 00 00       	pushq  $0x1e
  40121b:	e9 00 fe ff ff       	jmpq   401020 <_init+0x20>

0000000000401220 <pthread_barrier_init@plt>:
  401220:	ff 25 ea 8e 20 00    	jmpq   *0x208eea(%rip)        # 60a110 <_GLOBAL_OFFSET_TABLE_+0x110>
  401226:	68 1f 00 00 00       	pushq  $0x1f
  40122b:	e9 f0 fd ff ff       	jmpq   401020 <_init+0x20>

0000000000401230 <pthread_self@plt>:
  401230:	ff 25 e2 8e 20 00    	jmpq   *0x208ee2(%rip)        # 60a118 <_GLOBAL_OFFSET_TABLE_+0x118>
  401236:	68 20 00 00 00       	pushq  $0x20
  40123b:	e9 e0 fd ff ff       	jmpq   401020 <_init+0x20>

0000000000401240 <fopen@plt>:
  401240:	ff 25 da 8e 20 00    	jmpq   *0x208eda(%rip)        # 60a120 <_GLOBAL_OFFSET_TABLE_+0x120>
  401246:	68 21 00 00 00       	pushq  $0x21
  40124b:	e9 d0 fd ff ff       	jmpq   401020 <_init+0x20>

0000000000401250 <perror@plt>:
  401250:	ff 25 d2 8e 20 00    	jmpq   *0x208ed2(%rip)        # 60a128 <_GLOBAL_OFFSET_TABLE_+0x128>
  401256:	68 22 00 00 00       	pushq  $0x22
  40125b:	e9 c0 fd ff ff       	jmpq   401020 <_init+0x20>

0000000000401260 <sysconf@plt>:
  401260:	ff 25 ca 8e 20 00    	jmpq   *0x208eca(%rip)        # 60a130 <_GLOBAL_OFFSET_TABLE_+0x130>
  401266:	68 23 00 00 00       	pushq  $0x23
  40126b:	e9 b0 fd ff ff       	jmpq   401020 <_init+0x20>

0000000000401270 <pthread_join@plt>:
  401270:	ff 25 c2 8e 20 00    	jmpq   *0x208ec2(%rip)        # 60a138 <_GLOBAL_OFFSET_TABLE_+0x138>
  401276:	68 24 00 00 00       	pushq  $0x24
  40127b:	e9 a0 fd ff ff       	jmpq   401020 <_init+0x20>

0000000000401280 <getpagesize@plt>:
  401280:	ff 25 ba 8e 20 00    	jmpq   *0x208eba(%rip)        # 60a140 <_GLOBAL_OFFSET_TABLE_+0x140>
  401286:	68 25 00 00 00       	pushq  $0x25
  40128b:	e9 90 fd ff ff       	jmpq   401020 <_init+0x20>

0000000000401290 <exit@plt>:
  401290:	ff 25 b2 8e 20 00    	jmpq   *0x208eb2(%rip)        # 60a148 <_GLOBAL_OFFSET_TABLE_+0x148>
  401296:	68 26 00 00 00       	pushq  $0x26
  40129b:	e9 80 fd ff ff       	jmpq   401020 <_init+0x20>

00000000004012a0 <fwrite@plt>:
  4012a0:	ff 25 aa 8e 20 00    	jmpq   *0x208eaa(%rip)        # 60a150 <_GLOBAL_OFFSET_TABLE_+0x150>
  4012a6:	68 27 00 00 00       	pushq  $0x27
  4012ab:	e9 70 fd ff ff       	jmpq   401020 <_init+0x20>

00000000004012b0 <posix_memalign@plt>:
  4012b0:	ff 25 a2 8e 20 00    	jmpq   *0x208ea2(%rip)        # 60a158 <_GLOBAL_OFFSET_TABLE_+0x158>
  4012b6:	68 28 00 00 00       	pushq  $0x28
  4012bb:	e9 60 fd ff ff       	jmpq   401020 <_init+0x20>

00000000004012c0 <pthread_barrier_wait@plt>:
  4012c0:	ff 25 9a 8e 20 00    	jmpq   *0x208e9a(%rip)        # 60a160 <_GLOBAL_OFFSET_TABLE_+0x160>
  4012c6:	68 29 00 00 00       	pushq  $0x29
  4012cb:	e9 50 fd ff ff       	jmpq   401020 <_init+0x20>

00000000004012d0 <pthread_mutex_init@plt>:
  4012d0:	ff 25 92 8e 20 00    	jmpq   *0x208e92(%rip)        # 60a168 <_GLOBAL_OFFSET_TABLE_+0x168>
  4012d6:	68 2a 00 00 00       	pushq  $0x2a
  4012db:	e9 40 fd ff ff       	jmpq   401020 <_init+0x20>

00000000004012e0 <pthread_mutex_lock@plt>:
  4012e0:	ff 25 8a 8e 20 00    	jmpq   *0x208e8a(%rip)        # 60a170 <_GLOBAL_OFFSET_TABLE_+0x170>
  4012e6:	68 2b 00 00 00       	pushq  $0x2b
  4012eb:	e9 30 fd ff ff       	jmpq   401020 <_init+0x20>

00000000004012f0 <rand@plt>:
  4012f0:	ff 25 82 8e 20 00    	jmpq   *0x208e82(%rip)        # 60a178 <_GLOBAL_OFFSET_TABLE_+0x178>
  4012f6:	68 2c 00 00 00       	pushq  $0x2c
  4012fb:	e9 20 fd ff ff       	jmpq   401020 <_init+0x20>

Disassembly of section .plt.got:

0000000000401300 <.plt.got>:
  401300:	ff 25 f2 8c 20 00    	jmpq   *0x208cf2(%rip)        # 609ff8 <_DYNAMIC+0x1f0>
  401306:	66 90                	xchg   %ax,%ax

Disassembly of section .text:

0000000000401310 <_start>:
  401310:	31 ed                	xor    %ebp,%ebp
  401312:	49 89 d1             	mov    %rdx,%r9
  401315:	5e                   	pop    %rsi
  401316:	48 89 e2             	mov    %rsp,%rdx
  401319:	48 83 e4 f0          	and    $0xfffffffffffffff0,%rsp
  40131d:	50                   	push   %rax
  40131e:	54                   	push   %rsp
  40131f:	49 c7 c0 10 71 40 00 	mov    $0x407110,%r8
  401326:	48 c7 c1 a0 70 40 00 	mov    $0x4070a0,%rcx
  40132d:	48 c7 c7 e0 20 40 00 	mov    $0x4020e0,%rdi
  401334:	e8 27 fe ff ff       	callq  401160 <__libc_start_main@plt>
  401339:	f4                   	hlt    
  40133a:	66 0f 1f 44 00 00    	nopw   0x0(%rax,%rax,1)

0000000000401340 <deregister_tm_clones>:
  401340:	b8 77 a7 60 00       	mov    $0x60a777,%eax
  401345:	55                   	push   %rbp
  401346:	48 2d 70 a7 60 00    	sub    $0x60a770,%rax
  40134c:	48 83 f8 0e          	cmp    $0xe,%rax
  401350:	48 89 e5             	mov    %rsp,%rbp
  401353:	76 1b                	jbe    401370 <deregister_tm_clones+0x30>
  401355:	b8 00 00 00 00       	mov    $0x0,%eax
  40135a:	48 85 c0             	test   %rax,%rax
  40135d:	74 11                	je     401370 <deregister_tm_clones+0x30>
  40135f:	5d                   	pop    %rbp
  401360:	bf 70 a7 60 00       	mov    $0x60a770,%edi
  401365:	ff e0                	jmpq   *%rax
  401367:	66 0f 1f 84 00 00 00 	nopw   0x0(%rax,%rax,1)
  40136e:	00 00 
  401370:	5d                   	pop    %rbp
  401371:	c3                   	retq   
  401372:	0f 1f 40 00          	nopl   0x0(%rax)
  401376:	66 2e 0f 1f 84 00 00 	nopw   %cs:0x0(%rax,%rax,1)
  40137d:	00 00 00 

0000000000401380 <register_tm_clones>:
  401380:	be 70 a7 60 00       	mov    $0x60a770,%esi
  401385:	55                   	push   %rbp
  401386:	48 81 ee 70 a7 60 00 	sub    $0x60a770,%rsi
  40138d:	48 c1 fe 03          	sar    $0x3,%rsi
  401391:	48 89 e5             	mov    %rsp,%rbp
  401394:	48 89 f0             	mov    %rsi,%rax
  401397:	48 c1 e8 3f          	shr    $0x3f,%rax
  40139b:	48 01 c6             	add    %rax,%rsi
  40139e:	48 d1 fe             	sar    %rsi
  4013a1:	74 15                	je     4013b8 <register_tm_clones+0x38>
  4013a3:	b8 00 00 00 00       	mov    $0x0,%eax
  4013a8:	48 85 c0             	test   %rax,%rax
  4013ab:	74 0b                	je     4013b8 <register_tm_clones+0x38>
  4013ad:	5d                   	pop    %rbp
  4013ae:	bf 70 a7 60 00       	mov    $0x60a770,%edi
  4013b3:	ff e0                	jmpq   *%rax
  4013b5:	0f 1f 00             	nopl   (%rax)
  4013b8:	5d                   	pop    %rbp
  4013b9:	c3                   	retq   
  4013ba:	66 0f 1f 44 00 00    	nopw   0x0(%rax,%rax,1)

00000000004013c0 <__do_global_dtors_aux>:
  4013c0:	80 3d e1 93 20 00 00 	cmpb   $0x0,0x2093e1(%rip)        # 60a7a8 <completed.7585>
  4013c7:	75 11                	jne    4013da <__do_global_dtors_aux+0x1a>
  4013c9:	55                   	push   %rbp
  4013ca:	48 89 e5             	mov    %rsp,%rbp
  4013cd:	e8 6e ff ff ff       	callq  401340 <deregister_tm_clones>
  4013d2:	5d                   	pop    %rbp
  4013d3:	c6 05 ce 93 20 00 01 	movb   $0x1,0x2093ce(%rip)        # 60a7a8 <completed.7585>
  4013da:	f3 c3                	repz retq 
  4013dc:	0f 1f 40 00          	nopl   0x0(%rax)

00000000004013e0 <frame_dummy>:
  4013e0:	bf 00 9e 60 00       	mov    $0x609e00,%edi
  4013e5:	48 83 3f 00          	cmpq   $0x0,(%rdi)
  4013e9:	75 05                	jne    4013f0 <frame_dummy+0x10>
  4013eb:	eb 93                	jmp    401380 <register_tm_clones>
  4013ed:	0f 1f 00             	nopl   (%rax)
  4013f0:	b8 00 00 00 00       	mov    $0x0,%eax
  4013f5:	48 85 c0             	test   %rax,%rax
  4013f8:	74 f1                	je     4013eb <frame_dummy+0xb>
  4013fa:	55                   	push   %rbp
  4013fb:	48 89 e5             	mov    %rsp,%rbp
  4013fe:	ff d0                	callq  *%rax
  401400:	5d                   	pop    %rbp
  401401:	e9 7a ff ff ff       	jmpq   401380 <register_tm_clones>
  401406:	66 2e 0f 1f 84 00 00 	nopw   %cs:0x0(%rax,%rax,1)
  40140d:	00 00 00 

0000000000401410 <init_bucket_buffer>:
  401410:	53                   	push   %rbx
  401411:	48 89 fb             	mov    %rdi,%rbx
  401414:	bf 10 80 00 00       	mov    $0x8010,%edi
  401419:	e8 e2 fd ff ff       	callq  401200 <malloc@plt>
  40141e:	c7 40 08 00 00 00 00 	movl   $0x0,0x8(%rax)
  401425:	48 c7 00 00 00 00 00 	movq   $0x0,(%rax)
  40142c:	48 89 03             	mov    %rax,(%rbx)
  40142f:	5b                   	pop    %rbx
  401430:	c3                   	retq   
  401431:	66 66 66 66 66 66 2e 	data16 data16 data16 data16 data16 nopw %cs:0x0(%rax,%rax,1)
  401438:	0f 1f 84 00 00 00 00 
  40143f:	00 

0000000000401440 <free_bucket_buffer>:
  401440:	53                   	push   %rbx
  401441:	66 66 66 66 66 66 2e 	data16 data16 data16 data16 data16 nopw %cs:0x0(%rax,%rax,1)
  401448:	0f 1f 84 00 00 00 00 
  40144f:	00 
  401450:	48 8b 1f             	mov    (%rdi),%rbx
  401453:	e8 d8 fb ff ff       	callq  401030 <free@plt>
  401458:	48 85 db             	test   %rbx,%rbx
  40145b:	48 89 df             	mov    %rbx,%rdi
  40145e:	75 f0                	jne    401450 <free_bucket_buffer+0x10>
  401460:	5b                   	pop    %rbx
  401461:	c3                   	retq   
  401462:	66 66 66 66 66 2e 0f 	data16 data16 data16 data16 nopw %cs:0x0(%rax,%rax,1)
  401469:	1f 84 00 00 00 00 00 

0000000000401470 <allocate_hashtable>:
  401470:	55                   	push   %rbp
  401471:	41 56                	push   %r14
  401473:	53                   	push   %rbx
  401474:	89 f5                	mov    %esi,%ebp
  401476:	49 89 fe             	mov    %rdi,%r14
  401479:	bf 18 00 00 00       	mov    $0x18,%edi
  40147e:	e8 7d fd ff ff       	callq  401200 <malloc@plt>
  401483:	48 89 c3             	mov    %rax,%rbx
  401486:	ff cd                	dec    %ebp
  401488:	89 e8                	mov    %ebp,%eax
  40148a:	d1 f8                	sar    %eax
  40148c:	09 e8                	or     %ebp,%eax
  40148e:	89 c1                	mov    %eax,%ecx
  401490:	c1 f9 02             	sar    $0x2,%ecx
  401493:	09 c1                	or     %eax,%ecx
  401495:	89 c8                	mov    %ecx,%eax
  401497:	c1 f8 04             	sar    $0x4,%eax
  40149a:	09 c8                	or     %ecx,%eax
  40149c:	89 c1                	mov    %eax,%ecx
  40149e:	c1 f9 08             	sar    $0x8,%ecx
  4014a1:	09 c1                	or     %eax,%ecx
  4014a3:	89 c8                	mov    %ecx,%eax
  4014a5:	c1 f8 10             	sar    $0x10,%eax
  4014a8:	09 c8                	or     %ecx,%eax
  4014aa:	48 98                	cltq   
  4014ac:	48 89 c2             	mov    %rax,%rdx
  4014af:	48 c1 e2 05          	shl    $0x5,%rdx
  4014b3:	ff c0                	inc    %eax
  4014b5:	89 43 08             	mov    %eax,0x8(%rbx)
  4014b8:	48 83 c2 20          	add    $0x20,%rdx
  4014bc:	be 40 00 00 00       	mov    $0x40,%esi
  4014c1:	48 89 df             	mov    %rbx,%rdi
  4014c4:	e8 e7 fd ff ff       	callq  4012b0 <posix_memalign@plt>
  4014c9:	85 c0                	test   %eax,%eax
  4014cb:	75 46                	jne    401513 <allocate_hashtable+0xa3>
  4014cd:	83 3d 18 9b 20 00 00 	cmpl   $0x0,0x209b18(%rip)        # 60afec <numalocalize>
  4014d4:	74 14                	je     4014ea <allocate_hashtable+0x7a>
  4014d6:	48 8b 3b             	mov    (%rbx),%rdi
  4014d9:	8b 73 08             	mov    0x8(%rbx),%esi
  4014dc:	c1 e6 02             	shl    $0x2,%esi
  4014df:	8b 15 03 9b 20 00    	mov    0x209b03(%rip),%edx        # 60afe8 <nthreads>
  4014e5:	e8 76 11 00 00       	callq  402660 <numa_localize>
  4014ea:	48 8b 3b             	mov    (%rbx),%rdi
  4014ed:	48 63 53 08          	movslq 0x8(%rbx),%rdx
  4014f1:	48 c1 e2 05          	shl    $0x5,%rdx
  4014f5:	31 f6                	xor    %esi,%esi
  4014f7:	e8 24 fc ff ff       	callq  401120 <memset@plt>
  4014fc:	c7 43 10 00 00 00 00 	movl   $0x0,0x10(%rbx)
  401503:	8b 43 08             	mov    0x8(%rbx),%eax
  401506:	ff c8                	dec    %eax
  401508:	89 43 0c             	mov    %eax,0xc(%rbx)
  40150b:	49 89 1e             	mov    %rbx,(%r14)
  40150e:	5b                   	pop    %rbx
  40150f:	41 5e                	pop    %r14
  401511:	5d                   	pop    %rbp
  401512:	c3                   	retq   
  401513:	bf 50 71 40 00       	mov    $0x407150,%edi
  401518:	e8 33 fd ff ff       	callq  401250 <perror@plt>
  40151d:	bf 01 00 00 00       	mov    $0x1,%edi
  401522:	e8 69 fd ff ff       	callq  401290 <exit@plt>
  401527:	66 0f 1f 84 00 00 00 	nopw   0x0(%rax,%rax,1)
  40152e:	00 00 

0000000000401530 <destroy_hashtable>:
  401530:	53                   	push   %rbx
  401531:	48 89 fb             	mov    %rdi,%rbx
  401534:	48 8b 3b             	mov    (%rbx),%rdi
  401537:	e8 f4 fa ff ff       	callq  401030 <free@plt>
  40153c:	48 89 df             	mov    %rbx,%rdi
  40153f:	5b                   	pop    %rbx
  401540:	e9 eb fa ff ff       	jmpq   401030 <free@plt>
  401545:	66 66 2e 0f 1f 84 00 	data16 nopw %cs:0x0(%rax,%rax,1)
  40154c:	00 00 00 00 

0000000000401550 <build_hashtable_st>:
  401550:	55                   	push   %rbp
  401551:	41 57                	push   %r15
  401553:	41 56                	push   %r14
  401555:	41 55                	push   %r13
  401557:	41 54                	push   %r12
  401559:	53                   	push   %rbx
  40155a:	48 83 ec 18          	sub    $0x18,%rsp
  40155e:	49 89 f4             	mov    %rsi,%r12
  401561:	49 89 fd             	mov    %rdi,%r13
  401564:	41 83 7c 24 08 00    	cmpl   $0x0,0x8(%r12)
  40156a:	0f 84 c5 00 00 00    	je     401635 <build_hashtable_st+0xe5>
  401570:	45 8b 75 0c          	mov    0xc(%r13),%r14d
  401574:	41 8b 4d 10          	mov    0x10(%r13),%ecx
  401578:	31 c0                	xor    %eax,%eax
  40157a:	44 89 74 24 0c       	mov    %r14d,0xc(%rsp)
  40157f:	90                   	nop
  401580:	89 c5                	mov    %eax,%ebp
  401582:	49 8b 1c 24          	mov    (%r12),%rbx
  401586:	8b 14 eb             	mov    (%rbx,%rbp,8),%edx
  401589:	44 21 f2             	and    %r14d,%edx
  40158c:	d3 ea                	shr    %cl,%edx
  40158e:	49 8b 45 00          	mov    0x0(%r13),%rax
  401592:	48 63 fa             	movslq %edx,%rdi
  401595:	48 c1 e7 05          	shl    $0x5,%rdi
  401599:	8b 54 38 04          	mov    0x4(%rax,%rdi,1),%edx
  40159d:	48 83 fa 02          	cmp    $0x2,%rdx
  4015a1:	75 5d                	jne    401600 <build_hashtable_st+0xb0>
  4015a3:	4c 8b 7c 38 18       	mov    0x18(%rax,%rdi,1),%r15
  4015a8:	4d 85 ff             	test   %r15,%r15
  4015ab:	74 0a                	je     4015b7 <build_hashtable_st+0x67>
  4015ad:	41 8b 57 04          	mov    0x4(%r15),%edx
  4015b1:	48 83 fa 02          	cmp    $0x2,%rdx
  4015b5:	75 5d                	jne    401614 <build_hashtable_st+0xc4>
  4015b7:	48 8d 44 38 18       	lea    0x18(%rax,%rdi,1),%rax
  4015bc:	48 89 44 24 10       	mov    %rax,0x10(%rsp)
  4015c1:	bf 01 00 00 00       	mov    $0x1,%edi
  4015c6:	be 20 00 00 00       	mov    $0x20,%esi
  4015cb:	41 89 ce             	mov    %ecx,%r14d
  4015ce:	e8 bd fb ff ff       	callq  401190 <calloc@plt>
  4015d3:	44 89 f1             	mov    %r14d,%ecx
  4015d6:	44 8b 74 24 0c       	mov    0xc(%rsp),%r14d
  4015db:	48 8b 54 24 10       	mov    0x10(%rsp),%rdx
  4015e0:	48 89 02             	mov    %rax,(%rdx)
  4015e3:	4c 89 78 18          	mov    %r15,0x18(%rax)
  4015e7:	c7 40 04 01 00 00 00 	movl   $0x1,0x4(%rax)
  4015ee:	48 83 c0 08          	add    $0x8,%rax
  4015f2:	eb 2c                	jmp    401620 <build_hashtable_st+0xd0>
  4015f4:	66 66 66 2e 0f 1f 84 	data16 data16 nopw %cs:0x0(%rax,%rax,1)
  4015fb:	00 00 00 00 00 
  401600:	48 8d 74 38 04       	lea    0x4(%rax,%rdi,1),%rsi
  401605:	48 01 f8             	add    %rdi,%rax
  401608:	48 8d 44 d0 08       	lea    0x8(%rax,%rdx,8),%rax
  40160d:	8d 52 01             	lea    0x1(%rdx),%edx
  401610:	89 16                	mov    %edx,(%rsi)
  401612:	eb 0c                	jmp    401620 <build_hashtable_st+0xd0>
  401614:	49 8d 44 d7 08       	lea    0x8(%r15,%rdx,8),%rax
  401619:	8d 52 01             	lea    0x1(%rdx),%edx
  40161c:	41 89 57 04          	mov    %edx,0x4(%r15)
  401620:	48 8b 14 eb          	mov    (%rbx,%rbp,8),%rdx
  401624:	48 89 10             	mov    %rdx,(%rax)
  401627:	8d 45 01             	lea    0x1(%rbp),%eax
  40162a:	41 3b 44 24 08       	cmp    0x8(%r12),%eax
  40162f:	0f 82 4b ff ff ff    	jb     401580 <build_hashtable_st+0x30>
  401635:	48 83 c4 18          	add    $0x18,%rsp
  401639:	5b                   	pop    %rbx
  40163a:	41 5c                	pop    %r12
  40163c:	41 5d                	pop    %r13
  40163e:	41 5e                	pop    %r14
  401640:	41 5f                	pop    %r15
  401642:	5d                   	pop    %rbp
  401643:	c3                   	retq   
  401644:	66 66 66 2e 0f 1f 84 	data16 data16 nopw %cs:0x0(%rax,%rax,1)
  40164b:	00 00 00 00 00 

0000000000401650 <probe_hashtable>:
  401650:	55                   	push   %rbp
  401651:	41 57                	push   %r15
  401653:	41 56                	push   %r14
  401655:	41 55                	push   %r13
  401657:	41 54                	push   %r12
  401659:	53                   	push   %rbx
  40165a:	50                   	push   %rax
  40165b:	49 89 f5             	mov    %rsi,%r13
  40165e:	49 89 fe             	mov    %rdi,%r14
  401661:	45 8b 66 0c          	mov    0xc(%r14),%r12d
  401665:	45 8b 7e 10          	mov    0x10(%r14),%r15d
  401669:	e8 42 fa ff ff       	callq  4010b0 <clock@plt>
  40166e:	48 89 05 63 99 20 00 	mov    %rax,0x209963(%rip)        # 60afd8 <start>
  401675:	45 31 c9             	xor    %r9d,%r9d
  401678:	41 83 7d 08 00       	cmpl   $0x0,0x8(%r13)
  40167d:	bd 00 00 00 00       	mov    $0x0,%ebp
  401682:	0f 84 15 01 00 00    	je     40179d <probe_hashtable+0x14d>
  401688:	4d 8b 45 00          	mov    0x0(%r13),%r8
  40168c:	31 ed                	xor    %ebp,%ebp
  40168e:	66 90                	xchg   %ax,%ax
  401690:	41 8d 81 00 01 00 00 	lea    0x100(%r9),%eax
  401697:	41 0f 18 0c c0       	prefetcht0 (%r8,%rax,8)
  40169c:	44 89 c8             	mov    %r9d,%eax
  40169f:	83 e8 80             	sub    $0xffffff80,%eax
  4016a2:	49 8b 4d 00          	mov    0x0(%r13),%rcx
  4016a6:	8b 04 c1             	mov    (%rcx,%rax,8),%eax
  4016a9:	44 21 e0             	and    %r12d,%eax
  4016ac:	44 89 f9             	mov    %r15d,%ecx
  4016af:	d3 e8                	shr    %cl,%eax
  4016b1:	49 8b 0e             	mov    (%r14),%rcx
  4016b4:	48 98                	cltq   
  4016b6:	48 c1 e0 05          	shl    $0x5,%rax
  4016ba:	0f 18 0c 01          	prefetcht0 (%rcx,%rax,1)
  4016be:	44 89 c8             	mov    %r9d,%eax
  4016c1:	4d 8b 45 00          	mov    0x0(%r13),%r8
  4016c5:	41 8b 34 c0          	mov    (%r8,%rax,8),%esi
  4016c9:	89 f0                	mov    %esi,%eax
  4016cb:	44 21 e0             	and    %r12d,%eax
  4016ce:	44 89 f9             	mov    %r15d,%ecx
  4016d1:	d3 e8                	shr    %cl,%eax
  4016d3:	49 8b 16             	mov    (%r14),%rdx
  4016d6:	48 98                	cltq   
  4016d8:	48 c1 e0 05          	shl    $0x5,%rax
  4016dc:	4c 8d 14 02          	lea    (%rdx,%rax,1),%r10
  4016e0:	48 8d 7c 02 20       	lea    0x20(%rdx,%rax,1),%rdi
  4016e5:	66 66 2e 0f 1f 84 00 	data16 nopw %cs:0x0(%rax,%rax,1)
  4016ec:	00 00 00 00 
  4016f0:	41 8b 52 04          	mov    0x4(%r10),%edx
  4016f4:	48 85 d2             	test   %rdx,%rdx
  4016f7:	0f 84 86 00 00 00    	je     401783 <probe_hashtable+0x133>
  4016fd:	48 8d 42 ff          	lea    -0x1(%rdx),%rax
  401701:	89 d3                	mov    %edx,%ebx
  401703:	83 e3 03             	and    $0x3,%ebx
  401706:	48 83 f8 03          	cmp    $0x3,%rax
  40170a:	73 04                	jae    401710 <probe_hashtable+0xc0>
  40170c:	31 c0                	xor    %eax,%eax
  40170e:	eb 4a                	jmp    40175a <probe_hashtable+0x10a>
  401710:	48 29 da             	sub    %rbx,%rdx
  401713:	31 c0                	xor    %eax,%eax
  401715:	66 66 2e 0f 1f 84 00 	data16 nopw %cs:0x0(%rax,%rax,1)
  40171c:	00 00 00 00 
  401720:	31 c9                	xor    %ecx,%ecx
  401722:	3b 74 c7 e8          	cmp    -0x18(%rdi,%rax,8),%esi
  401726:	0f 94 c1             	sete   %cl
  401729:	48 01 e9             	add    %rbp,%rcx
  40172c:	31 ed                	xor    %ebp,%ebp
  40172e:	3b 74 c7 f0          	cmp    -0x10(%rdi,%rax,8),%esi
  401732:	40 0f 94 c5          	sete   %bpl
  401736:	48 01 cd             	add    %rcx,%rbp
  401739:	31 c9                	xor    %ecx,%ecx
  40173b:	3b 74 c7 f8          	cmp    -0x8(%rdi,%rax,8),%esi
  40173f:	0f 94 c1             	sete   %cl
  401742:	48 01 e9             	add    %rbp,%rcx
  401745:	31 ed                	xor    %ebp,%ebp
  401747:	3b 34 c7             	cmp    (%rdi,%rax,8),%esi
  40174a:	40 0f 94 c5          	sete   %bpl
  40174e:	48 01 cd             	add    %rcx,%rbp
  401751:	48 83 c0 04          	add    $0x4,%rax
  401755:	48 39 c2             	cmp    %rax,%rdx
  401758:	75 c6                	jne    401720 <probe_hashtable+0xd0>
  40175a:	48 85 db             	test   %rbx,%rbx
  40175d:	74 24                	je     401783 <probe_hashtable+0x133>
  40175f:	48 8d 44 c7 e8       	lea    -0x18(%rdi,%rax,8),%rax
  401764:	48 f7 db             	neg    %rbx
  401767:	66 0f 1f 84 00 00 00 	nopw   0x0(%rax,%rax,1)
  40176e:	00 00 
  401770:	31 c9                	xor    %ecx,%ecx
  401772:	3b 30                	cmp    (%rax),%esi
  401774:	0f 94 c1             	sete   %cl
  401777:	48 01 cd             	add    %rcx,%rbp
  40177a:	48 83 c0 08          	add    $0x8,%rax
  40177e:	48 ff c3             	inc    %rbx
  401781:	75 ed                	jne    401770 <probe_hashtable+0x120>
  401783:	4d 8b 52 18          	mov    0x18(%r10),%r10
  401787:	4d 85 d2             	test   %r10,%r10
  40178a:	0f 85 60 ff ff ff    	jne    4016f0 <probe_hashtable+0xa0>
  401790:	41 ff c1             	inc    %r9d
  401793:	45 3b 4d 08          	cmp    0x8(%r13),%r9d
  401797:	0f 82 f3 fe ff ff    	jb     401690 <probe_hashtable+0x40>
  40179d:	e8 0e f9 ff ff       	callq  4010b0 <clock@plt>
  4017a2:	48 89 05 27 98 20 00 	mov    %rax,0x209827(%rip)        # 60afd0 <end>
  4017a9:	48 2b 05 28 98 20 00 	sub    0x209828(%rip),%rax        # 60afd8 <start>
  4017b0:	f2 48 0f 2a c0       	cvtsi2sd %rax,%xmm0
  4017b5:	f2 0f 5e 05 6b 59 00 	divsd  0x596b(%rip),%xmm0        # 407128 <_IO_stdin_used+0x8>
  4017bc:	00 
  4017bd:	f2 0f 11 05 1b 98 20 	movsd  %xmm0,0x20981b(%rip)        # 60afe0 <cpu_time_used>
  4017c4:	00 
  4017c5:	bf 6c 71 40 00       	mov    $0x40716c,%edi
  4017ca:	b0 01                	mov    $0x1,%al
  4017cc:	e8 1f f9 ff ff       	callq  4010f0 <printf@plt>
  4017d1:	48 89 e8             	mov    %rbp,%rax
  4017d4:	48 83 c4 08          	add    $0x8,%rsp
  4017d8:	5b                   	pop    %rbx
  4017d9:	41 5c                	pop    %r12
  4017db:	41 5d                	pop    %r13
  4017dd:	41 5e                	pop    %r14
  4017df:	41 5f                	pop    %r15
  4017e1:	5d                   	pop    %rbp
  4017e2:	c3                   	retq   
  4017e3:	66 66 66 66 2e 0f 1f 	data16 data16 data16 nopw %cs:0x0(%rax,%rax,1)
  4017ea:	84 00 00 00 00 00 

00000000004017f0 <NPO_st>:
  4017f0:	55                   	push   %rbp
  4017f1:	41 57                	push   %r15
  4017f3:	41 56                	push   %r14
  4017f5:	41 55                	push   %r13
  4017f7:	41 54                	push   %r12
  4017f9:	53                   	push   %rbx
  4017fa:	48 83 ec 58          	sub    $0x58,%rsp
  4017fe:	48 89 74 24 18       	mov    %rsi,0x18(%rsp)
  401803:	49 89 fe             	mov    %rdi,%r14
  401806:	41 8b 76 08          	mov    0x8(%r14),%esi
  40180a:	d1 ee                	shr    %esi
  40180c:	48 8d 7c 24 30       	lea    0x30(%rsp),%rdi
  401811:	e8 5a fc ff ff       	callq  401470 <allocate_hashtable>
  401816:	31 ed                	xor    %ebp,%ebp
  401818:	48 8d 7c 24 48       	lea    0x48(%rsp),%rdi
  40181d:	31 f6                	xor    %esi,%esi
  40181f:	e8 dc f8 ff ff       	callq  401100 <gettimeofday@plt>
  401824:	0f 31                	rdtsc  
  401826:	48 c1 e2 20          	shl    $0x20,%rdx
  40182a:	48 09 c2             	or     %rax,%rdx
  40182d:	48 89 54 24 10       	mov    %rdx,0x10(%rsp)
  401832:	0f 31                	rdtsc  
  401834:	48 c1 e2 20          	shl    $0x20,%rdx
  401838:	48 09 c2             	or     %rax,%rdx
  40183b:	48 89 54 24 08       	mov    %rdx,0x8(%rsp)
  401840:	4c 8b 64 24 30       	mov    0x30(%rsp),%r12
  401845:	41 83 7e 08 00       	cmpl   $0x0,0x8(%r14)
  40184a:	0f 84 c6 00 00 00    	je     401916 <NPO_st+0x126>
  401850:	41 8b 5c 24 0c       	mov    0xc(%r12),%ebx
  401855:	41 8b 4c 24 10       	mov    0x10(%r12),%ecx
  40185a:	4c 89 74 24 20       	mov    %r14,0x20(%rsp)
  40185f:	90                   	nop
  401860:	41 89 ef             	mov    %ebp,%r15d
  401863:	4d 8b 2e             	mov    (%r14),%r13
  401866:	43 8b 54 fd 00       	mov    0x0(%r13,%r15,8),%edx
  40186b:	21 da                	and    %ebx,%edx
  40186d:	d3 ea                	shr    %cl,%edx
  40186f:	49 8b 04 24          	mov    (%r12),%rax
  401873:	48 63 fa             	movslq %edx,%rdi
  401876:	48 c1 e7 05          	shl    $0x5,%rdi
  40187a:	8b 54 38 04          	mov    0x4(%rax,%rdi,1),%edx
  40187e:	48 83 fa 02          	cmp    $0x2,%rdx
  401882:	75 5c                	jne    4018e0 <NPO_st+0xf0>
  401884:	48 8b 6c 38 18       	mov    0x18(%rax,%rdi,1),%rbp
  401889:	48 85 ed             	test   %rbp,%rbp
  40188c:	74 09                	je     401897 <NPO_st+0xa7>
  40188e:	8b 55 04             	mov    0x4(%rbp),%edx
  401891:	48 83 fa 02          	cmp    $0x2,%rdx
  401895:	75 5d                	jne    4018f4 <NPO_st+0x104>
  401897:	48 8d 44 38 18       	lea    0x18(%rax,%rdi,1),%rax
  40189c:	48 89 44 24 28       	mov    %rax,0x28(%rsp)
  4018a1:	bf 01 00 00 00       	mov    $0x1,%edi
  4018a6:	be 20 00 00 00       	mov    $0x20,%esi
  4018ab:	41 89 ce             	mov    %ecx,%r14d
  4018ae:	e8 dd f8 ff ff       	callq  401190 <calloc@plt>
  4018b3:	44 89 f1             	mov    %r14d,%ecx
  4018b6:	48 8b 54 24 28       	mov    0x28(%rsp),%rdx
  4018bb:	48 89 02             	mov    %rax,(%rdx)
  4018be:	4c 8b 74 24 20       	mov    0x20(%rsp),%r14
  4018c3:	48 89 68 18          	mov    %rbp,0x18(%rax)
  4018c7:	c7 40 04 01 00 00 00 	movl   $0x1,0x4(%rax)
  4018ce:	48 83 c0 08          	add    $0x8,%rax
  4018d2:	eb 2c                	jmp    401900 <NPO_st+0x110>
  4018d4:	66 66 66 2e 0f 1f 84 	data16 data16 nopw %cs:0x0(%rax,%rax,1)
  4018db:	00 00 00 00 00 
  4018e0:	48 8d 74 38 04       	lea    0x4(%rax,%rdi,1),%rsi
  4018e5:	48 01 f8             	add    %rdi,%rax
  4018e8:	48 8d 44 d0 08       	lea    0x8(%rax,%rdx,8),%rax
  4018ed:	8d 52 01             	lea    0x1(%rdx),%edx
  4018f0:	89 16                	mov    %edx,(%rsi)
  4018f2:	eb 0c                	jmp    401900 <NPO_st+0x110>
  4018f4:	48 8d 44 d5 08       	lea    0x8(%rbp,%rdx,8),%rax
  4018f9:	8d 52 01             	lea    0x1(%rdx),%edx
  4018fc:	89 55 04             	mov    %edx,0x4(%rbp)
  4018ff:	90                   	nop
  401900:	4b 8b 54 fd 00       	mov    0x0(%r13,%r15,8),%rdx
  401905:	48 89 10             	mov    %rdx,(%rax)
  401908:	41 8d 6f 01          	lea    0x1(%r15),%ebp
  40190c:	41 3b 6e 08          	cmp    0x8(%r14),%ebp
  401910:	0f 82 4a ff ff ff    	jb     401860 <NPO_st+0x70>
  401916:	0f 31                	rdtsc  
  401918:	48 89 d5             	mov    %rdx,%rbp
  40191b:	48 c1 e5 20          	shl    $0x20,%rbp
  40191f:	48 09 c5             	or     %rax,%rbp
  401922:	48 2b 6c 24 08       	sub    0x8(%rsp),%rbp
  401927:	4c 89 e7             	mov    %r12,%rdi
  40192a:	4c 8b 74 24 18       	mov    0x18(%rsp),%r14
  40192f:	4c 89 f6             	mov    %r14,%rsi
  401932:	e8 19 fd ff ff       	callq  401650 <probe_hashtable>
  401937:	49 89 c5             	mov    %rax,%r13
  40193a:	0f 31                	rdtsc  
  40193c:	48 89 d3             	mov    %rdx,%rbx
  40193f:	48 c1 e3 20          	shl    $0x20,%rbx
  401943:	48 09 c3             	or     %rax,%rbx
  401946:	48 2b 5c 24 10       	sub    0x10(%rsp),%rbx
  40194b:	48 8d 7c 24 38       	lea    0x38(%rsp),%rdi
  401950:	31 f6                	xor    %esi,%esi
  401952:	e8 a9 f7 ff ff       	callq  401100 <gettimeofday@plt>
  401957:	41 8b 4e 08          	mov    0x8(%r14),%ecx
  40195b:	4c 8b 4c 24 48       	mov    0x48(%rsp),%r9
  401960:	48 83 ec 08          	sub    $0x8,%rsp
  401964:	31 d2                	xor    %edx,%edx
  401966:	48 89 df             	mov    %rbx,%rdi
  401969:	48 89 ee             	mov    %rbp,%rsi
  40196c:	4d 89 e8             	mov    %r13,%r8
  40196f:	ff 74 24 48          	pushq  0x48(%rsp)
  401973:	ff 74 24 48          	pushq  0x48(%rsp)
  401977:	ff 74 24 68          	pushq  0x68(%rsp)
  40197b:	e8 30 00 00 00       	callq  4019b0 <print_timing>
  401980:	48 83 c4 20          	add    $0x20,%rsp
  401984:	49 8b 3c 24          	mov    (%r12),%rdi
  401988:	e8 a3 f6 ff ff       	callq  401030 <free@plt>
  40198d:	4c 89 e7             	mov    %r12,%rdi
  401990:	e8 9b f6 ff ff       	callq  401030 <free@plt>
  401995:	4c 89 e8             	mov    %r13,%rax
  401998:	48 83 c4 58          	add    $0x58,%rsp
  40199c:	5b                   	pop    %rbx
  40199d:	41 5c                	pop    %r12
  40199f:	41 5d                	pop    %r13
  4019a1:	41 5e                	pop    %r14
  4019a3:	41 5f                	pop    %r15
  4019a5:	5d                   	pop    %rbp
  4019a6:	c3                   	retq   
  4019a7:	66 0f 1f 84 00 00 00 	nopw   0x0(%rax,%rax,1)
  4019ae:	00 00 

00000000004019b0 <print_timing>:
  4019b0:	41 57                	push   %r15
  4019b2:	41 56                	push   %r14
  4019b4:	41 54                	push   %r12
  4019b6:	53                   	push   %rbx
  4019b7:	48 83 ec 28          	sub    $0x28,%rsp
  4019bb:	4d 89 c6             	mov    %r8,%r14
  4019be:	49 89 d7             	mov    %rdx,%r15
  4019c1:	49 89 f4             	mov    %rsi,%r12
  4019c4:	48 89 fb             	mov    %rdi,%rbx
  4019c7:	48 8b 44 24 60       	mov    0x60(%rsp),%rax
  4019cc:	48 8b 54 24 58       	mov    0x58(%rsp),%rdx
  4019d1:	4c 29 ca             	sub    %r9,%rdx
  4019d4:	48 69 d2 40 42 0f 00 	imul   $0xf4240,%rdx,%rdx
  4019db:	48 2b 44 24 50       	sub    0x50(%rsp),%rax
  4019e0:	48 01 d0             	add    %rdx,%rax
  4019e3:	f2 48 0f 2a c0       	cvtsi2sd %rax,%xmm0
  4019e8:	f2 0f 11 44 24 08    	movsd  %xmm0,0x8(%rsp)
  4019ee:	66 48 0f 6e c3       	movq   %rbx,%xmm0
  4019f3:	66 0f 6f 0d 35 57 00 	movdqa 0x5735(%rip),%xmm1        # 407130 <_IO_stdin_used+0x10>
  4019fa:	00 
  4019fb:	66 0f 62 c1          	punpckldq %xmm1,%xmm0
  4019ff:	66 0f 28 15 39 57 00 	movapd 0x5739(%rip),%xmm2        # 407140 <_IO_stdin_used+0x20>
  401a06:	00 
  401a07:	66 0f 5c c2          	subpd  %xmm2,%xmm0
  401a0b:	66 0f 70 d8 4e       	pshufd $0x4e,%xmm0,%xmm3
  401a10:	66 0f 58 d8          	addpd  %xmm0,%xmm3
  401a14:	66 48 0f 6e c1       	movq   %rcx,%xmm0
  401a19:	66 0f 62 c1          	punpckldq %xmm1,%xmm0
  401a1d:	66 0f 5c c2          	subpd  %xmm2,%xmm0
  401a21:	66 0f 70 c8 4e       	pshufd $0x4e,%xmm0,%xmm1
  401a26:	66 0f 58 c8          	addpd  %xmm0,%xmm1
  401a2a:	f2 0f 5e d9          	divsd  %xmm1,%xmm3
  401a2e:	66 0f 29 5c 24 10    	movapd %xmm3,0x10(%rsp)
  401a34:	48 8b 0d 45 8d 20 00 	mov    0x208d45(%rip),%rcx        # 60a780 <stdout@@GLIBC_2.2.5>
  401a3b:	bf a7 71 40 00       	mov    $0x4071a7,%edi
  401a40:	be 26 00 00 00       	mov    $0x26,%esi
  401a45:	ba 01 00 00 00       	mov    $0x1,%edx
  401a4a:	e8 51 f8 ff ff       	callq  4012a0 <fwrite@plt>
  401a4f:	48 8b 3d 4a 8d 20 00 	mov    0x208d4a(%rip),%rdi        # 60a7a0 <stderr@@GLIBC_2.2.5>
  401a56:	be ce 71 40 00       	mov    $0x4071ce,%esi
  401a5b:	31 c0                	xor    %eax,%eax
  401a5d:	48 89 da             	mov    %rbx,%rdx
  401a60:	4c 89 e1             	mov    %r12,%rcx
  401a63:	4d 89 f8             	mov    %r15,%r8
  401a66:	e8 45 f7 ff ff       	callq  4011b0 <fprintf@plt>
  401a6b:	48 8b 35 0e 8d 20 00 	mov    0x208d0e(%rip),%rsi        # 60a780 <stdout@@GLIBC_2.2.5>
  401a72:	bf 0a 00 00 00       	mov    $0xa,%edi
  401a77:	e8 d4 f6 ff ff       	callq  401150 <fputc@plt>
  401a7c:	48 8b 0d fd 8c 20 00 	mov    0x208cfd(%rip),%rcx        # 60a780 <stdout@@GLIBC_2.2.5>
  401a83:	bf e2 71 40 00       	mov    $0x4071e2,%edi
  401a88:	be 33 00 00 00       	mov    $0x33,%esi
  401a8d:	ba 01 00 00 00       	mov    $0x1,%edx
  401a92:	e8 09 f8 ff ff       	callq  4012a0 <fwrite@plt>
  401a97:	48 8b 3d e2 8c 20 00 	mov    0x208ce2(%rip),%rdi        # 60a780 <stdout@@GLIBC_2.2.5>
  401a9e:	be 16 72 40 00       	mov    $0x407216,%esi
  401aa3:	b0 01                	mov    $0x1,%al
  401aa5:	f2 0f 10 44 24 08    	movsd  0x8(%rsp),%xmm0
  401aab:	4c 89 f2             	mov    %r14,%rdx
  401aae:	e8 fd f6 ff ff       	callq  4011b0 <fprintf@plt>
  401ab3:	48 8b 3d c6 8c 20 00 	mov    0x208cc6(%rip),%rdi        # 60a780 <stdout@@GLIBC_2.2.5>
  401aba:	e8 51 f7 ff ff       	callq  401210 <fflush@plt>
  401abf:	48 8b 3d da 8c 20 00 	mov    0x208cda(%rip),%rdi        # 60a7a0 <stderr@@GLIBC_2.2.5>
  401ac6:	be 26 72 40 00       	mov    $0x407226,%esi
  401acb:	b0 01                	mov    $0x1,%al
  401acd:	0f 28 44 24 10       	movaps 0x10(%rsp),%xmm0
  401ad2:	e8 d9 f6 ff ff       	callq  4011b0 <fprintf@plt>
  401ad7:	48 8b 3d c2 8c 20 00 	mov    0x208cc2(%rip),%rdi        # 60a7a0 <stderr@@GLIBC_2.2.5>
  401ade:	e8 2d f7 ff ff       	callq  401210 <fflush@plt>
  401ae3:	48 8b 35 96 8c 20 00 	mov    0x208c96(%rip),%rsi        # 60a780 <stdout@@GLIBC_2.2.5>
  401aea:	bf 0a 00 00 00       	mov    $0xa,%edi
  401aef:	48 83 c4 28          	add    $0x28,%rsp
  401af3:	5b                   	pop    %rbx
  401af4:	41 5c                	pop    %r12
  401af6:	41 5e                	pop    %r14
  401af8:	41 5f                	pop    %r15
  401afa:	e9 51 f6 ff ff       	jmpq   401150 <fputc@plt>
  401aff:	90                   	nop

0000000000401b00 <build_hashtable_mt>:
  401b00:	55                   	push   %rbp
  401b01:	41 57                	push   %r15
  401b03:	41 56                	push   %r14
  401b05:	41 55                	push   %r13
  401b07:	41 54                	push   %r12
  401b09:	53                   	push   %rbx
  401b0a:	48 83 ec 28          	sub    $0x28,%rsp
  401b0e:	49 89 f8             	mov    %rdi,%r8
  401b11:	83 7e 08 00          	cmpl   $0x0,0x8(%rsi)
  401b15:	0f 84 40 01 00 00    	je     401c5b <build_hashtable_mt+0x15b>
  401b1b:	45 8b 48 0c          	mov    0xc(%r8),%r9d
  401b1f:	41 8b 48 10          	mov    0x10(%r8),%ecx
  401b23:	31 c0                	xor    %eax,%eax
  401b25:	4c 89 44 24 20       	mov    %r8,0x20(%rsp)
  401b2a:	48 89 54 24 18       	mov    %rdx,0x18(%rsp)
  401b2f:	89 4c 24 0c          	mov    %ecx,0xc(%rsp)
  401b33:	48 89 74 24 10       	mov    %rsi,0x10(%rsp)
  401b38:	0f 1f 84 00 00 00 00 	nopl   0x0(%rax,%rax,1)
  401b3f:	00 
  401b40:	41 89 c5             	mov    %eax,%r13d
  401b43:	48 8b 06             	mov    (%rsi),%rax
  401b46:	42 8b 3c e8          	mov    (%rax,%r13,8),%edi
  401b4a:	44 21 cf             	and    %r9d,%edi
  401b4d:	d3 ef                	shr    %cl,%edi
  401b4f:	49 8b 00             	mov    (%r8),%rax
  401b52:	48 63 ef             	movslq %edi,%rbp
  401b55:	48 c1 e5 05          	shl    $0x5,%rbp
  401b59:	4c 8d 34 28          	lea    (%rax,%rbp,1),%r14
  401b5d:	b3 01                	mov    $0x1,%bl
  401b5f:	f0 86 1c 28          	lock xchg %bl,(%rax,%rbp,1)
  401b63:	eb 13                	jmp    401b78 <build_hashtable_mt+0x78>
  401b65:	66 66 2e 0f 1f 84 00 	data16 nopw %cs:0x0(%rax,%rax,1)
  401b6c:	00 00 00 00 
  401b70:	f3 90                	pause  
  401b72:	b3 01                	mov    $0x1,%bl
  401b74:	f0 41 86 1e          	lock xchg %bl,(%r14)
  401b78:	84 db                	test   %bl,%bl
  401b7a:	75 f4                	jne    401b70 <build_hashtable_mt+0x70>
  401b7c:	8b 7c 28 04          	mov    0x4(%rax,%rbp,1),%edi
  401b80:	48 83 ff 02          	cmp    $0x2,%rdi
  401b84:	75 4a                	jne    401bd0 <build_hashtable_mt+0xd0>
  401b86:	4c 8b 64 28 18       	mov    0x18(%rax,%rbp,1),%r12
  401b8b:	4d 85 e4             	test   %r12,%r12
  401b8e:	74 0f                	je     401b9f <build_hashtable_mt+0x9f>
  401b90:	41 8b 7c 24 04       	mov    0x4(%r12),%edi
  401b95:	48 83 ff 02          	cmp    $0x2,%rdi
  401b99:	0f 85 8b 00 00 00    	jne    401c2a <build_hashtable_mt+0x12a>
  401b9f:	48 8d 5c 28 18       	lea    0x18(%rax,%rbp,1),%rbx
  401ba4:	4c 8b 3a             	mov    (%rdx),%r15
  401ba7:	41 8b 7f 08          	mov    0x8(%r15),%edi
  401bab:	48 81 ff ff 03 00 00 	cmp    $0x3ff,%rdi
  401bb2:	77 2e                	ja     401be2 <build_hashtable_mt+0xe2>
  401bb4:	48 89 f8             	mov    %rdi,%rax
  401bb7:	48 c1 e0 05          	shl    $0x5,%rax
  401bbb:	49 8d 44 07 10       	lea    0x10(%r15,%rax,1),%rax
  401bc0:	8d 7f 01             	lea    0x1(%rdi),%edi
  401bc3:	41 89 7f 08          	mov    %edi,0x8(%r15)
  401bc7:	eb 4d                	jmp    401c16 <build_hashtable_mt+0x116>
  401bc9:	0f 1f 80 00 00 00 00 	nopl   0x0(%rax)
  401bd0:	48 8d 6c 28 04       	lea    0x4(%rax,%rbp,1),%rbp
  401bd5:	49 8d 44 fe 08       	lea    0x8(%r14,%rdi,8),%rax
  401bda:	8d 7f 01             	lea    0x1(%rdi),%edi
  401bdd:	89 7d 00             	mov    %edi,0x0(%rbp)
  401be0:	eb 5e                	jmp    401c40 <build_hashtable_mt+0x140>
  401be2:	bf 10 80 00 00       	mov    $0x8010,%edi
  401be7:	44 89 cd             	mov    %r9d,%ebp
  401bea:	e8 11 f6 ff ff       	callq  401200 <malloc@plt>
  401bef:	8b 4c 24 0c          	mov    0xc(%rsp),%ecx
  401bf3:	41 89 e9             	mov    %ebp,%r9d
  401bf6:	4c 8b 44 24 20       	mov    0x20(%rsp),%r8
  401bfb:	48 8b 74 24 10       	mov    0x10(%rsp),%rsi
  401c00:	48 8b 54 24 18       	mov    0x18(%rsp),%rdx
  401c05:	c7 40 08 01 00 00 00 	movl   $0x1,0x8(%rax)
  401c0c:	4c 89 38             	mov    %r15,(%rax)
  401c0f:	48 89 02             	mov    %rax,(%rdx)
  401c12:	48 83 c0 10          	add    $0x10,%rax
  401c16:	48 89 03             	mov    %rax,(%rbx)
  401c19:	4c 89 60 18          	mov    %r12,0x18(%rax)
  401c1d:	c7 40 04 01 00 00 00 	movl   $0x1,0x4(%rax)
  401c24:	48 83 c0 08          	add    $0x8,%rax
  401c28:	eb 16                	jmp    401c40 <build_hashtable_mt+0x140>
  401c2a:	49 8d 44 fc 08       	lea    0x8(%r12,%rdi,8),%rax
  401c2f:	8d 7f 01             	lea    0x1(%rdi),%edi
  401c32:	41 89 7c 24 04       	mov    %edi,0x4(%r12)
  401c37:	66 0f 1f 84 00 00 00 	nopw   0x0(%rax,%rax,1)
  401c3e:	00 00 
  401c40:	48 8b 3e             	mov    (%rsi),%rdi
  401c43:	4a 8b 3c ef          	mov    (%rdi,%r13,8),%rdi
  401c47:	48 89 38             	mov    %rdi,(%rax)
  401c4a:	41 c6 06 00          	movb   $0x0,(%r14)
  401c4e:	41 8d 45 01          	lea    0x1(%r13),%eax
  401c52:	3b 46 08             	cmp    0x8(%rsi),%eax
  401c55:	0f 82 e5 fe ff ff    	jb     401b40 <build_hashtable_mt+0x40>
  401c5b:	48 83 c4 28          	add    $0x28,%rsp
  401c5f:	5b                   	pop    %rbx
  401c60:	41 5c                	pop    %r12
  401c62:	41 5d                	pop    %r13
  401c64:	41 5e                	pop    %r14
  401c66:	41 5f                	pop    %r15
  401c68:	5d                   	pop    %rbp
  401c69:	c3                   	retq   
  401c6a:	66 0f 1f 44 00 00    	nopw   0x0(%rax,%rax,1)

0000000000401c70 <npo_thread>:
  401c70:	53                   	push   %rbx
  401c71:	48 83 ec 10          	sub    $0x10,%rsp
  401c75:	48 89 fb             	mov    %rdi,%rbx
  401c78:	bf 10 80 00 00       	mov    $0x8010,%edi
  401c7d:	e8 7e f5 ff ff       	callq  401200 <malloc@plt>
  401c82:	c7 40 08 00 00 00 00 	movl   $0x0,0x8(%rax)
  401c89:	48 c7 00 00 00 00 00 	movq   $0x0,(%rax)
  401c90:	48 89 44 24 08       	mov    %rax,0x8(%rsp)
  401c95:	48 8b 7b 30          	mov    0x30(%rbx),%rdi
  401c99:	e8 22 f6 ff ff       	callq  4012c0 <pthread_barrier_wait@plt>
  401c9e:	ff c0                	inc    %eax
  401ca0:	83 f8 02             	cmp    $0x2,%eax
  401ca3:	0f 83 cf 00 00 00    	jae    401d78 <npo_thread+0x108>
  401ca9:	83 3b 00             	cmpl   $0x0,(%rbx)
  401cac:	75 2d                	jne    401cdb <npo_thread+0x6b>
  401cae:	48 8d 7b 58          	lea    0x58(%rbx),%rdi
  401cb2:	31 f6                	xor    %esi,%esi
  401cb4:	e8 47 f4 ff ff       	callq  401100 <gettimeofday@plt>
  401cb9:	0f 31                	rdtsc  
  401cbb:	48 c1 e2 20          	shl    $0x20,%rdx
  401cbf:	48 09 c2             	or     %rax,%rdx
  401cc2:	48 89 53 40          	mov    %rdx,0x40(%rbx)
  401cc6:	0f 31                	rdtsc  
  401cc8:	48 c1 e2 20          	shl    $0x20,%rdx
  401ccc:	48 09 c2             	or     %rax,%rdx
  401ccf:	48 89 53 48          	mov    %rdx,0x48(%rbx)
  401cd3:	48 c7 43 50 00 00 00 	movq   $0x0,0x50(%rbx)
  401cda:	00 
  401cdb:	48 8b 7b 08          	mov    0x8(%rbx),%rdi
  401cdf:	48 8d 73 10          	lea    0x10(%rbx),%rsi
  401ce3:	48 8d 54 24 08       	lea    0x8(%rsp),%rdx
  401ce8:	e8 13 fe ff ff       	callq  401b00 <build_hashtable_mt>
  401ced:	48 8b 7b 30          	mov    0x30(%rbx),%rdi
  401cf1:	e8 ca f5 ff ff       	callq  4012c0 <pthread_barrier_wait@plt>
  401cf6:	ff c0                	inc    %eax
  401cf8:	83 f8 02             	cmp    $0x2,%eax
  401cfb:	73 7b                	jae    401d78 <npo_thread+0x108>
  401cfd:	83 3b 00             	cmpl   $0x0,(%rbx)
  401d00:	75 11                	jne    401d13 <npo_thread+0xa3>
  401d02:	0f 31                	rdtsc  
  401d04:	48 c1 e2 20          	shl    $0x20,%rdx
  401d08:	48 09 c2             	or     %rax,%rdx
  401d0b:	48 2b 53 48          	sub    0x48(%rbx),%rdx
  401d0f:	48 89 53 48          	mov    %rdx,0x48(%rbx)
  401d13:	48 8b 7b 08          	mov    0x8(%rbx),%rdi
  401d17:	48 8d 73 20          	lea    0x20(%rbx),%rsi
  401d1b:	e8 30 f9 ff ff       	callq  401650 <probe_hashtable>
  401d20:	48 89 43 38          	mov    %rax,0x38(%rbx)
  401d24:	48 8b 7b 30          	mov    0x30(%rbx),%rdi
  401d28:	e8 93 f5 ff ff       	callq  4012c0 <pthread_barrier_wait@plt>
  401d2d:	ff c0                	inc    %eax
  401d2f:	83 f8 02             	cmp    $0x2,%eax
  401d32:	73 44                	jae    401d78 <npo_thread+0x108>
  401d34:	83 3b 00             	cmpl   $0x0,(%rbx)
  401d37:	75 1f                	jne    401d58 <npo_thread+0xe8>
  401d39:	0f 31                	rdtsc  
  401d3b:	48 c1 e2 20          	shl    $0x20,%rdx
  401d3f:	48 09 c2             	or     %rax,%rdx
  401d42:	48 2b 53 40          	sub    0x40(%rbx),%rdx
  401d46:	48 89 53 40          	mov    %rdx,0x40(%rbx)
  401d4a:	48 83 c3 68          	add    $0x68,%rbx
  401d4e:	31 f6                	xor    %esi,%esi
  401d50:	48 89 df             	mov    %rbx,%rdi
  401d53:	e8 a8 f3 ff ff       	callq  401100 <gettimeofday@plt>
  401d58:	48 8b 7c 24 08       	mov    0x8(%rsp),%rdi
  401d5d:	0f 1f 00             	nopl   (%rax)
  401d60:	48 8b 1f             	mov    (%rdi),%rbx
  401d63:	e8 c8 f2 ff ff       	callq  401030 <free@plt>
  401d68:	48 85 db             	test   %rbx,%rbx
  401d6b:	48 89 df             	mov    %rbx,%rdi
  401d6e:	75 f0                	jne    401d60 <npo_thread+0xf0>
  401d70:	31 c0                	xor    %eax,%eax
  401d72:	48 83 c4 10          	add    $0x10,%rsp
  401d76:	5b                   	pop    %rbx
  401d77:	c3                   	retq   
  401d78:	bf 30 72 40 00       	mov    $0x407230,%edi
  401d7d:	e8 ee f2 ff ff       	callq  401070 <puts@plt>
  401d82:	bf 01 00 00 00       	mov    $0x1,%edi
  401d87:	e8 04 f5 ff ff       	callq  401290 <exit@plt>
  401d8c:	0f 1f 40 00          	nopl   0x0(%rax)

0000000000401d90 <NPO>:
  401d90:	55                   	push   %rbp
  401d91:	48 89 e5             	mov    %rsp,%rbp
  401d94:	41 57                	push   %r15
  401d96:	41 56                	push   %r14
  401d98:	41 55                	push   %r13
  401d9a:	41 54                	push   %r12
  401d9c:	53                   	push   %rbx
  401d9d:	48 81 ec 68 01 00 00 	sub    $0x168,%rsp
  401da4:	89 d3                	mov    %edx,%ebx
  401da6:	49 89 f7             	mov    %rsi,%r15
  401da9:	49 89 fc             	mov    %rdi,%r12
  401dac:	48 89 65 90          	mov    %rsp,-0x70(%rbp)
  401db0:	89 d8                	mov    %ebx,%eax
  401db2:	48 6b c8 78          	imul   $0x78,%rax,%rcx
  401db6:	48 83 c1 0f          	add    $0xf,%rcx
  401dba:	48 ba f0 ff ff ff ff 	movabs $0xfffffffff0,%rdx
  401dc1:	00 00 00 
  401dc4:	48 21 ca             	and    %rcx,%rdx
  401dc7:	49 89 e6             	mov    %rsp,%r14
  401dca:	49 29 d6             	sub    %rdx,%r14
  401dcd:	4c 89 f4             	mov    %r14,%rsp
  401dd0:	48 8d 04 c5 0f 00 00 	lea    0xf(,%rax,8),%rax
  401dd7:	00 
  401dd8:	48 b9 f0 ff ff ff 0f 	movabs $0xffffffff0,%rcx
  401ddf:	00 00 00 
  401de2:	48 21 c1             	and    %rax,%rcx
  401de5:	48 89 e0             	mov    %rsp,%rax
  401de8:	48 29 c8             	sub    %rcx,%rax
  401deb:	48 89 45 c0          	mov    %rax,-0x40(%rbp)
  401def:	48 89 c4             	mov    %rax,%rsp
  401df2:	41 8b 74 24 08       	mov    0x8(%r12),%esi
  401df7:	d1 ee                	shr    %esi
  401df9:	48 8d 7d a8          	lea    -0x58(%rbp),%rdi
  401dfd:	e8 6e f6 ff ff       	callq  401470 <allocate_hashtable>
  401e02:	4c 89 a5 60 ff ff ff 	mov    %r12,-0xa0(%rbp)
  401e09:	45 8b 64 24 08       	mov    0x8(%r12),%r12d
  401e0e:	4c 89 7d b8          	mov    %r15,-0x48(%rbp)
  401e12:	45 8b 6f 08          	mov    0x8(%r15),%r13d
  401e16:	44 89 e0             	mov    %r12d,%eax
  401e19:	99                   	cltd   
  401e1a:	f7 fb                	idiv   %ebx
  401e1c:	89 45 d0             	mov    %eax,-0x30(%rbp)
  401e1f:	44 89 e8             	mov    %r13d,%eax
  401e22:	99                   	cltd   
  401e23:	f7 fb                	idiv   %ebx
  401e25:	89 45 d4             	mov    %eax,-0x2c(%rbp)
  401e28:	48 8d bd b0 fe ff ff 	lea    -0x150(%rbp),%rdi
  401e2f:	31 f6                	xor    %esi,%esi
  401e31:	89 da                	mov    %ebx,%edx
  401e33:	e8 e8 f3 ff ff       	callq  401220 <pthread_barrier_init@plt>
  401e38:	85 c0                	test   %eax,%eax
  401e3a:	0f 85 80 02 00 00    	jne    4020c0 <NPO+0x330>
  401e40:	48 8d bd 78 fe ff ff 	lea    -0x188(%rbp),%rdi
  401e47:	e8 34 f3 ff ff       	callq  401180 <pthread_attr_init@plt>
  401e4c:	45 31 ff             	xor    %r15d,%r15d
  401e4f:	85 db                	test   %ebx,%ebx
  401e51:	48 8b 4d c0          	mov    -0x40(%rbp),%rcx
  401e55:	0f 8e f0 01 00 00    	jle    40204b <NPO+0x2bb>
  401e5b:	44 89 6d cc          	mov    %r13d,-0x34(%rbp)
  401e5f:	44 89 65 c8          	mov    %r12d,-0x38(%rbp)
  401e63:	48 8b 45 a8          	mov    -0x58(%rbp),%rax
  401e67:	48 89 85 68 ff ff ff 	mov    %rax,-0x98(%rbp)
  401e6e:	8d 43 ff             	lea    -0x1(%rbx),%eax
  401e71:	48 89 85 70 ff ff ff 	mov    %rax,-0x90(%rbp)
  401e78:	48 63 45 d4          	movslq -0x2c(%rbp),%rax
  401e7c:	44 8b 6d d0          	mov    -0x30(%rbp),%r13d
  401e80:	49 63 d5             	movslq %r13d,%rdx
  401e83:	48 89 5d a0          	mov    %rbx,-0x60(%rbp)
  401e87:	48 63 f3             	movslq %ebx,%rsi
  401e8a:	48 89 75 88          	mov    %rsi,-0x78(%rbp)
  401e8e:	48 c1 e2 03          	shl    $0x3,%rdx
  401e92:	48 89 55 80          	mov    %rdx,-0x80(%rbp)
  401e96:	48 c1 e0 03          	shl    $0x3,%rax
  401e9a:	48 89 85 78 ff ff ff 	mov    %rax,-0x88(%rbp)
  401ea1:	45 31 e4             	xor    %r12d,%r12d
  401ea4:	31 d2                	xor    %edx,%edx
  401ea6:	4d 89 f7             	mov    %r14,%r15
  401ea9:	49 89 ce             	mov    %rcx,%r14
  401eac:	4c 89 7d 98          	mov    %r15,-0x68(%rbp)
  401eb0:	31 db                	xor    %ebx,%ebx
  401eb2:	66 66 66 66 66 2e 0f 	data16 data16 data16 data16 nopw %cs:0x0(%rax,%rax,1)
  401eb9:	1f 84 00 00 00 00 00 
  401ec0:	48 89 55 b0          	mov    %rdx,-0x50(%rbp)
  401ec4:	4c 89 a5 50 ff ff ff 	mov    %r12,-0xb0(%rbp)
  401ecb:	89 df                	mov    %ebx,%edi
  401ecd:	e8 8e 1f 00 00       	callq  403e60 <get_cpu_id>
  401ed2:	0f 57 c0             	xorps  %xmm0,%xmm0
  401ed5:	0f 29 85 40 ff ff ff 	movaps %xmm0,-0xc0(%rbp)
  401edc:	0f 29 85 30 ff ff ff 	movaps %xmm0,-0xd0(%rbp)
  401ee3:	0f 29 85 20 ff ff ff 	movaps %xmm0,-0xe0(%rbp)
  401eea:	0f 29 85 10 ff ff ff 	movaps %xmm0,-0xf0(%rbp)
  401ef1:	0f 29 85 00 ff ff ff 	movaps %xmm0,-0x100(%rbp)
  401ef8:	0f 29 85 f0 fe ff ff 	movaps %xmm0,-0x110(%rbp)
  401eff:	0f 29 85 e0 fe ff ff 	movaps %xmm0,-0x120(%rbp)
  401f06:	0f 29 85 d0 fe ff ff 	movaps %xmm0,-0x130(%rbp)
  401f0d:	3d ff 03 00 00       	cmp    $0x3ff,%eax
  401f12:	77 17                	ja     401f2b <NPO+0x19b>
  401f14:	48 63 c8             	movslq %eax,%rcx
  401f17:	b8 01 00 00 00       	mov    $0x1,%eax
  401f1c:	48 d3 e0             	shl    %cl,%rax
  401f1f:	48 c1 e9 06          	shr    $0x6,%rcx
  401f23:	48 09 84 cd d0 fe ff 	or     %rax,-0x130(%rbp,%rcx,8)
  401f2a:	ff 
  401f2b:	be 80 00 00 00       	mov    $0x80,%esi
  401f30:	48 8d 85 78 fe ff ff 	lea    -0x188(%rbp),%rax
  401f37:	48 89 c7             	mov    %rax,%rdi
  401f3a:	48 8d 95 d0 fe ff ff 	lea    -0x130(%rbp),%rdx
  401f41:	e8 4a f1 ff ff       	callq  401090 <pthread_attr_setaffinity_np@plt>
  401f46:	41 89 1f             	mov    %ebx,(%r15)
  401f49:	48 8b 85 68 ff ff ff 	mov    -0x98(%rbp),%rax
  401f50:	49 89 47 08          	mov    %rax,0x8(%r15)
  401f54:	48 8d 85 b0 fe ff ff 	lea    -0x150(%rbp),%rax
  401f5b:	49 89 47 30          	mov    %rax,0x30(%r15)
  401f5f:	48 39 9d 70 ff ff ff 	cmp    %rbx,-0x90(%rbp)
  401f66:	44 89 e8             	mov    %r13d,%eax
  401f69:	48 89 9d 58 ff ff ff 	mov    %rbx,-0xa8(%rbp)
  401f70:	8b 5d c8             	mov    -0x38(%rbp),%ebx
  401f73:	0f 44 c3             	cmove  %ebx,%eax
  401f76:	41 89 47 18          	mov    %eax,0x18(%r15)
  401f7a:	8b 45 d4             	mov    -0x2c(%rbp),%eax
  401f7d:	44 8b 6d cc          	mov    -0x34(%rbp),%r13d
  401f81:	41 0f 44 c5          	cmove  %r13d,%eax
  401f85:	48 8b 8d 60 ff ff ff 	mov    -0xa0(%rbp),%rcx
  401f8c:	48 8b 09             	mov    (%rcx),%rcx
  401f8f:	48 03 4d b0          	add    -0x50(%rbp),%rcx
  401f93:	49 89 4f 10          	mov    %rcx,0x10(%r15)
  401f97:	41 89 47 28          	mov    %eax,0x28(%r15)
  401f9b:	48 8b 45 b8          	mov    -0x48(%rbp),%rax
  401f9f:	48 8b 00             	mov    (%rax),%rax
  401fa2:	4c 8b a5 50 ff ff ff 	mov    -0xb0(%rbp),%r12
  401fa9:	4c 01 e0             	add    %r12,%rax
  401fac:	49 89 47 20          	mov    %rax,0x20(%r15)
  401fb0:	ba 70 1c 40 00       	mov    $0x401c70,%edx
  401fb5:	4c 89 f7             	mov    %r14,%rdi
  401fb8:	48 8d b5 78 fe ff ff 	lea    -0x188(%rbp),%rsi
  401fbf:	4c 89 f9             	mov    %r15,%rcx
  401fc2:	e8 89 f0 ff ff       	callq  401050 <pthread_create@plt>
  401fc7:	89 c1                	mov    %eax,%ecx
  401fc9:	85 c9                	test   %ecx,%ecx
  401fcb:	0f 85 d7 00 00 00    	jne    4020a8 <NPO+0x318>
  401fd1:	44 2b 6d d4          	sub    -0x2c(%rbp),%r13d
  401fd5:	44 89 6d cc          	mov    %r13d,-0x34(%rbp)
  401fd9:	8b 4d d0             	mov    -0x30(%rbp),%ecx
  401fdc:	29 cb                	sub    %ecx,%ebx
  401fde:	89 5d c8             	mov    %ebx,-0x38(%rbp)
  401fe1:	48 8b 85 58 ff ff ff 	mov    -0xa8(%rbp),%rax
  401fe8:	48 ff c0             	inc    %rax
  401feb:	49 83 c7 78          	add    $0x78,%r15
  401fef:	49 83 c6 08          	add    $0x8,%r14
  401ff3:	48 8b 55 b0          	mov    -0x50(%rbp),%rdx
  401ff7:	48 03 55 80          	add    -0x80(%rbp),%rdx
  401ffb:	4c 03 a5 78 ff ff ff 	add    -0x88(%rbp),%r12
  402002:	48 3b 45 88          	cmp    -0x78(%rbp),%rax
  402006:	41 89 cd             	mov    %ecx,%r13d
  402009:	48 89 c3             	mov    %rax,%rbx
  40200c:	0f 8c ae fe ff ff    	jl     401ec0 <NPO+0x130>
  402012:	45 31 ff             	xor    %r15d,%r15d
  402015:	4c 8b 6d a0          	mov    -0x60(%rbp),%r13
  402019:	45 85 ed             	test   %r13d,%r13d
  40201c:	4c 8b 75 98          	mov    -0x68(%rbp),%r14
  402020:	4c 8b 65 c0          	mov    -0x40(%rbp),%r12
  402024:	7e 25                	jle    40204b <NPO+0x2bb>
  402026:	49 8d 5e 38          	lea    0x38(%r14),%rbx
  40202a:	45 31 ff             	xor    %r15d,%r15d
  40202d:	0f 1f 00             	nopl   (%rax)
  402030:	49 8b 3c 24          	mov    (%r12),%rdi
  402034:	31 f6                	xor    %esi,%esi
  402036:	e8 35 f2 ff ff       	callq  401270 <pthread_join@plt>
  40203b:	4c 03 3b             	add    (%rbx),%r15
  40203e:	49 83 c4 08          	add    $0x8,%r12
  402042:	48 83 c3 78          	add    $0x78,%rbx
  402046:	41 ff cd             	dec    %r13d
  402049:	75 e5                	jne    402030 <NPO+0x2a0>
  40204b:	49 8b 7e 40          	mov    0x40(%r14),%rdi
  40204f:	49 8b 76 48          	mov    0x48(%r14),%rsi
  402053:	49 8b 56 50          	mov    0x50(%r14),%rdx
  402057:	48 8b 45 b8          	mov    -0x48(%rbp),%rax
  40205b:	8b 48 08             	mov    0x8(%rax),%ecx
  40205e:	4d 8b 4e 58          	mov    0x58(%r14),%r9
  402062:	48 83 ec 08          	sub    $0x8,%rsp
  402066:	4d 89 f8             	mov    %r15,%r8
  402069:	41 ff 76 70          	pushq  0x70(%r14)
  40206d:	41 ff 76 68          	pushq  0x68(%r14)
  402071:	41 ff 76 60          	pushq  0x60(%r14)
  402075:	e8 36 f9 ff ff       	callq  4019b0 <print_timing>
  40207a:	48 83 c4 20          	add    $0x20,%rsp
  40207e:	4c 8b 75 a8          	mov    -0x58(%rbp),%r14
  402082:	49 8b 3e             	mov    (%r14),%rdi
  402085:	e8 a6 ef ff ff       	callq  401030 <free@plt>
  40208a:	4c 89 f7             	mov    %r14,%rdi
  40208d:	e8 9e ef ff ff       	callq  401030 <free@plt>
  402092:	48 8b 65 90          	mov    -0x70(%rbp),%rsp
  402096:	4c 89 f8             	mov    %r15,%rax
  402099:	48 8d 65 d8          	lea    -0x28(%rbp),%rsp
  40209d:	5b                   	pop    %rbx
  40209e:	41 5c                	pop    %r12
  4020a0:	41 5d                	pop    %r13
  4020a2:	41 5e                	pop    %r14
  4020a4:	41 5f                	pop    %r15
  4020a6:	5d                   	pop    %rbp
  4020a7:	c3                   	retq   
  4020a8:	bf 77 71 40 00       	mov    $0x407177,%edi
  4020ad:	31 c0                	xor    %eax,%eax
  4020af:	89 ce                	mov    %ecx,%esi
  4020b1:	e8 3a f0 ff ff       	callq  4010f0 <printf@plt>
  4020b6:	bf ff ff ff ff       	mov    $0xffffffff,%edi
  4020bb:	e8 d0 f1 ff ff       	callq  401290 <exit@plt>
  4020c0:	bf 50 72 40 00       	mov    $0x407250,%edi
  4020c5:	e8 a6 ef ff ff       	callq  401070 <puts@plt>
  4020ca:	bf 01 00 00 00       	mov    $0x1,%edi
  4020cf:	e8 bc f1 ff ff       	callq  401290 <exit@plt>
  4020d4:	66 2e 0f 1f 84 00 00 	nopw   %cs:0x0(%rax,%rax,1)
  4020db:	00 00 00 
  4020de:	66 90                	xchg   %ax,%ax

00000000004020e0 <main>:
  4020e0:	55                   	push   %rbp
  4020e1:	41 57                	push   %r15
  4020e3:	41 56                	push   %r14
  4020e5:	41 54                	push   %r12
  4020e7:	53                   	push   %rbx
  4020e8:	48 83 ec 70          	sub    $0x70,%rsp
  4020ec:	48 c7 44 24 28 90 a1 	movq   $0x60a190,0x28(%rsp)
  4020f3:	60 00 
  4020f5:	0f 28 05 74 51 00 00 	movaps 0x5174(%rip),%xmm0        # 407270 <_IO_stdin_used+0x150>
  4020fc:	0f 11 44 24 30       	movups %xmm0,0x30(%rsp)
  402101:	c7 44 24 40 31 d4 00 	movl   $0xd431,0x40(%rsp)
  402108:	00 
  402109:	0f 57 c0             	xorps  %xmm0,%xmm0
  40210c:	0f 11 44 24 58       	movups %xmm0,0x58(%rsp)
  402111:	0f 11 44 24 48       	movups %xmm0,0x48(%rsp)
  402116:	48 c7 44 24 68 00 00 	movq   $0x0,0x68(%rsp)
  40211d:	00 00 
  40211f:	48 8d 54 24 28       	lea    0x28(%rsp),%rdx
  402124:	e8 c7 01 00 00       	callq  4022f0 <parse_args>
  402129:	48 8b 3d 50 86 20 00 	mov    0x208650(%rip),%rdi        # 60a780 <stdout@@GLIBC_2.2.5>
  402130:	8b 54 24 34          	mov    0x34(%rsp),%edx
  402134:	0f 57 c0             	xorps  %xmm0,%xmm0
  402137:	f2 48 0f 2a c2       	cvtsi2sd %rdx,%xmm0
  40213c:	f2 0f 59 05 3c 51 00 	mulsd  0x513c(%rip),%xmm0        # 407280 <_IO_stdin_used+0x160>
  402143:	00 
  402144:	f2 0f 10 0d 3c 51 00 	movsd  0x513c(%rip),%xmm1        # 407288 <_IO_stdin_used+0x168>
  40214b:	00 
  40214c:	f2 0f 59 c1          	mulsd  %xmm1,%xmm0
  402150:	f2 0f 59 c1          	mulsd  %xmm1,%xmm0
  402154:	be 70 76 40 00       	mov    $0x407670,%esi
  402159:	b0 01                	mov    $0x1,%al
  40215b:	e8 50 f0 ff ff       	callq  4011b0 <fprintf@plt>
  402160:	48 8b 3d 19 86 20 00 	mov    0x208619(%rip),%rdi        # 60a780 <stdout@@GLIBC_2.2.5>
  402167:	e8 a4 f0 ff ff       	callq  401210 <fflush@plt>
  40216c:	8b 7c 24 3c          	mov    0x3c(%rsp),%edi
  402170:	e8 eb 06 00 00       	callq  402860 <seed_generator>
  402175:	8b 44 24 5c          	mov    0x5c(%rsp),%eax
  402179:	89 05 6d 8e 20 00    	mov    %eax,0x208e6d(%rip)        # 60afec <numalocalize>
  40217f:	4c 8b 74 24 30       	mov    0x30(%rsp),%r14
  402184:	44 89 35 5d 8e 20 00 	mov    %r14d,0x208e5d(%rip)        # 60afe8 <nthreads>
  40218b:	8b 6c 24 58          	mov    0x58(%rsp),%ebp
  40218f:	4d 89 f7             	mov    %r14,%r15
  402192:	49 c1 ef 20          	shr    $0x20,%r15
  402196:	85 ed                	test   %ebp,%ebp
  402198:	74 14                	je     4021ae <main+0xce>
  40219a:	48 8d 7c 24 18       	lea    0x18(%rsp),%rdi
  40219f:	ba ff ff ff 7f       	mov    $0x7fffffff,%edx
  4021a4:	44 89 fe             	mov    %r15d,%esi
  4021a7:	e8 44 15 00 00       	callq  4036f0 <create_relation_nonunique>
  4021ac:	eb 26                	jmp    4021d4 <main+0xf4>
  4021ae:	83 7c 24 50 00       	cmpl   $0x0,0x50(%rsp)
  4021b3:	74 12                	je     4021c7 <main+0xe7>
  4021b5:	48 8d 7c 24 18       	lea    0x18(%rsp),%rdi
  4021ba:	44 89 fe             	mov    %r15d,%esi
  4021bd:	44 89 fa             	mov    %r15d,%edx
  4021c0:	e8 2b 15 00 00       	callq  4036f0 <create_relation_nonunique>
  4021c5:	eb 0d                	jmp    4021d4 <main+0xf4>
  4021c7:	48 8d 7c 24 18       	lea    0x18(%rsp),%rdi
  4021cc:	44 89 fe             	mov    %r15d,%esi
  4021cf:	e8 3c 0b 00 00       	callq  402d10 <create_relation_pk>
  4021d4:	bf 64 78 40 00       	mov    $0x407864,%edi
  4021d9:	e8 92 ee ff ff       	callq  401070 <puts@plt>
  4021de:	48 8b 3d 9b 85 20 00 	mov    0x20859b(%rip),%rdi        # 60a780 <stdout@@GLIBC_2.2.5>
  4021e5:	8b 5c 24 38          	mov    0x38(%rsp),%ebx
  4021e9:	0f 57 c0             	xorps  %xmm0,%xmm0
  4021ec:	f2 48 0f 2a c3       	cvtsi2sd %rbx,%xmm0
  4021f1:	f2 0f 59 05 87 50 00 	mulsd  0x5087(%rip),%xmm0        # 407280 <_IO_stdin_used+0x160>
  4021f8:	00 
  4021f9:	f2 0f 10 0d 87 50 00 	movsd  0x5087(%rip),%xmm1        # 407288 <_IO_stdin_used+0x168>
  402200:	00 
  402201:	f2 0f 59 c1          	mulsd  %xmm1,%xmm0
  402205:	f2 0f 59 c1          	mulsd  %xmm1,%xmm0
  402209:	be b3 76 40 00       	mov    $0x4076b3,%esi
  40220e:	b0 01                	mov    $0x1,%al
  402210:	89 da                	mov    %ebx,%edx
  402212:	e8 99 ef ff ff       	callq  4011b0 <fprintf@plt>
  402217:	48 8b 3d 62 85 20 00 	mov    0x208562(%rip),%rdi        # 60a780 <stdout@@GLIBC_2.2.5>
  40221e:	e8 ed ef ff ff       	callq  401210 <fflush@plt>
  402223:	8b 7c 24 40          	mov    0x40(%rsp),%edi
  402227:	e8 34 06 00 00       	callq  402860 <seed_generator>
  40222c:	85 ed                	test   %ebp,%ebp
  40222e:	74 13                	je     402243 <main+0x163>
  402230:	48 8d 7c 24 08       	lea    0x8(%rsp),%rdi
  402235:	48 8d 74 24 18       	lea    0x18(%rsp),%rsi
  40223a:	89 da                	mov    %ebx,%edx
  40223c:	e8 7f 13 00 00       	callq  4035c0 <create_relation_fk_from_pk>
  402241:	eb 3e                	jmp    402281 <main+0x1a1>
  402243:	83 7c 24 50 00       	cmpl   $0x0,0x50(%rsp)
  402248:	74 11                	je     40225b <main+0x17b>
  40224a:	48 8d 7c 24 08       	lea    0x8(%rsp),%rdi
  40224f:	89 de                	mov    %ebx,%esi
  402251:	44 89 fa             	mov    %r15d,%edx
  402254:	e8 97 14 00 00       	callq  4036f0 <create_relation_nonunique>
  402259:	eb 26                	jmp    402281 <main+0x1a1>
  40225b:	f2 0f 10 44 24 48    	movsd  0x48(%rsp),%xmm0
  402261:	66 0f 57 c9          	xorpd  %xmm1,%xmm1
  402265:	48 8d 7c 24 08       	lea    0x8(%rsp),%rdi
  40226a:	89 de                	mov    %ebx,%esi
  40226c:	44 89 fa             	mov    %r15d,%edx
  40226f:	66 0f 2e c1          	ucomisd %xmm1,%xmm0
  402273:	76 07                	jbe    40227c <main+0x19c>
  402275:	e8 b6 15 00 00       	callq  403830 <create_relation_zipf>
  40227a:	eb 05                	jmp    402281 <main+0x1a1>
  40227c:	e8 3f 0f 00 00       	callq  4031c0 <create_relation_fk>
  402281:	bf 64 78 40 00       	mov    $0x407864,%edi
  402286:	e8 e5 ed ff ff       	callq  401070 <puts@plt>
  40228b:	48 8b 5c 24 28       	mov    0x28(%rsp),%rbx
  402290:	bf f6 76 40 00       	mov    $0x4076f6,%edi
  402295:	31 c0                	xor    %eax,%eax
  402297:	48 89 de             	mov    %rbx,%rsi
  40229a:	e8 51 ee ff ff       	callq  4010f0 <printf@plt>
  40229f:	4c 8d 7c 24 18       	lea    0x18(%rsp),%r15
  4022a4:	4c 8d 64 24 08       	lea    0x8(%rsp),%r12
  4022a9:	4c 89 ff             	mov    %r15,%rdi
  4022ac:	4c 89 e6             	mov    %r12,%rsi
  4022af:	44 89 f2             	mov    %r14d,%edx
  4022b2:	ff 93 80 00 00 00    	callq  *0x80(%rbx)
  4022b8:	48 89 c1             	mov    %rax,%rcx
  4022bb:	bf 1d 77 40 00       	mov    $0x40771d,%edi
  4022c0:	31 c0                	xor    %eax,%eax
  4022c2:	48 89 ce             	mov    %rcx,%rsi
  4022c5:	e8 26 ee ff ff       	callq  4010f0 <printf@plt>
  4022ca:	4c 89 ff             	mov    %r15,%rdi
  4022cd:	e8 2e 16 00 00       	callq  403900 <delete_relation>
  4022d2:	4c 89 e7             	mov    %r12,%rdi
  4022d5:	e8 26 16 00 00       	callq  403900 <delete_relation>
  4022da:	31 c0                	xor    %eax,%eax
  4022dc:	48 83 c4 70          	add    $0x70,%rsp
  4022e0:	5b                   	pop    %rbx
  4022e1:	41 5c                	pop    %r12
  4022e3:	41 5e                	pop    %r14
  4022e5:	41 5f                	pop    %r15
  4022e7:	5d                   	pop    %rbp
  4022e8:	c3                   	retq   
  4022e9:	0f 1f 80 00 00 00 00 	nopl   0x0(%rax)

00000000004022f0 <parse_args>:
  4022f0:	55                   	push   %rbp
  4022f1:	41 57                	push   %r15
  4022f3:	41 56                	push   %r14
  4022f5:	41 55                	push   %r13
  4022f7:	41 54                	push   %r12
  4022f9:	53                   	push   %rbx
  4022fa:	50                   	push   %rax
  4022fb:	49 89 d6             	mov    %rdx,%r14
  4022fe:	49 89 f4             	mov    %rsi,%r12
  402301:	41 89 fd             	mov    %edi,%r13d
  402304:	4c 8d 7c 24 04       	lea    0x4(%rsp),%r15
  402309:	eb 15                	jmp    402320 <parse_args+0x30>
  40230b:	48 8b 3d 7e 84 20 00 	mov    0x20847e(%rip),%rdi        # 60a790 <optarg@@GLIBC_2.2.5>
  402312:	31 f6                	xor    %esi,%esi
  402314:	e8 67 ed ff ff       	callq  401080 <strtod@plt>
  402319:	f2 41 0f 11 46 20    	movsd  %xmm0,0x20(%r14)
  40231f:	90                   	nop
  402320:	c7 44 24 04 00 00 00 	movl   $0x0,0x4(%rsp)
  402327:	00 
  402328:	ba ea 77 40 00       	mov    $0x4077ea,%edx
  40232d:	b9 50 a5 60 00       	mov    $0x60a550,%ecx
  402332:	44 89 ef             	mov    %r13d,%edi
  402335:	4c 89 e6             	mov    %r12,%rsi
  402338:	4d 89 f8             	mov    %r15,%r8
  40233b:	e8 a0 ed ff ff       	callq  4010e0 <getopt_long@plt>
  402340:	ff c0                	inc    %eax
  402342:	83 f8 7b             	cmp    $0x7b,%eax
  402345:	77 d9                	ja     402320 <parse_args+0x30>
  402347:	ff 24 c5 90 72 40 00 	jmpq   *0x407290(,%rax,8)
  40234e:	48 63 44 24 04       	movslq 0x4(%rsp),%rax
  402353:	48 c1 e0 05          	shl    $0x5,%rax
  402357:	48 83 b8 60 a5 60 00 	cmpq   $0x0,0x60a560(%rax)
  40235e:	00 
  40235f:	75 bf                	jne    402320 <parse_args+0x30>
  402361:	48 8b b0 50 a5 60 00 	mov    0x60a550(%rax),%rsi
  402368:	bf ff 77 40 00       	mov    $0x4077ff,%edi
  40236d:	31 c0                	xor    %eax,%eax
  40236f:	e8 7c ed ff ff       	callq  4010f0 <printf@plt>
  402374:	48 8b 35 15 84 20 00 	mov    0x208415(%rip),%rsi        # 60a790 <optarg@@GLIBC_2.2.5>
  40237b:	48 85 f6             	test   %rsi,%rsi
  40237e:	74 0c                	je     40238c <parse_args+0x9c>
  402380:	bf 09 78 40 00       	mov    $0x407809,%edi
  402385:	31 c0                	xor    %eax,%eax
  402387:	e8 64 ed ff ff       	callq  4010f0 <printf@plt>
  40238c:	bf 0a 00 00 00       	mov    $0xa,%edi
  402391:	e8 aa ec ff ff       	callq  401040 <putchar@plt>
  402396:	eb 88                	jmp    402320 <parse_args+0x30>
  402398:	48 83 3d 70 7e 20 00 	cmpq   $0x0,0x207e70(%rip)        # 60a210 <algos+0x80>
  40239f:	00 
  4023a0:	48 8b 1d e9 83 20 00 	mov    0x2083e9(%rip),%rbx        # 60a790 <optarg@@GLIBC_2.2.5>
  4023a7:	0f 84 d2 01 00 00    	je     40257f <parse_args+0x28f>
  4023ad:	bd 90 a1 60 00       	mov    $0x60a190,%ebp
  4023b2:	66 66 66 66 66 2e 0f 	data16 data16 data16 data16 nopw %cs:0x0(%rax,%rax,1)
  4023b9:	1f 84 00 00 00 00 00 
  4023c0:	48 89 df             	mov    %rbx,%rdi
  4023c3:	48 89 ee             	mov    %rbp,%rsi
  4023c6:	e8 d5 ed ff ff       	callq  4011a0 <strcmp@plt>
  4023cb:	85 c0                	test   %eax,%eax
  4023cd:	0f 84 22 01 00 00    	je     4024f5 <parse_args+0x205>
  4023d3:	48 83 bd 08 01 00 00 	cmpq   $0x0,0x108(%rbp)
  4023da:	00 
  4023db:	48 8d ad 88 00 00 00 	lea    0x88(%rbp),%rbp
  4023e2:	75 dc                	jne    4023c0 <parse_args+0xd0>
  4023e4:	e9 96 01 00 00       	jmpq   40257f <parse_args+0x28f>
  4023e9:	48 8b 3d a0 83 20 00 	mov    0x2083a0(%rip),%rdi        # 60a790 <optarg@@GLIBC_2.2.5>
  4023f0:	31 f6                	xor    %esi,%esi
  4023f2:	ba 0a 00 00 00       	mov    $0xa,%edx
  4023f7:	e8 c4 ed ff ff       	callq  4011c0 <strtol@plt>
  4023fc:	41 89 46 08          	mov    %eax,0x8(%r14)
  402400:	e9 1b ff ff ff       	jmpq   402320 <parse_args+0x30>
  402405:	48 8b 1d 84 83 20 00 	mov    0x208384(%rip),%rbx        # 60a790 <optarg@@GLIBC_2.2.5>
  40240c:	48 89 df             	mov    %rbx,%rdi
  40240f:	e8 bc ec ff ff       	callq  4010d0 <strlen@plt>
  402414:	48 8d 78 01          	lea    0x1(%rax),%rdi
  402418:	e8 e3 ed ff ff       	callq  401200 <malloc@plt>
  40241d:	48 89 c5             	mov    %rax,%rbp
  402420:	48 85 ed             	test   %rbp,%rbp
  402423:	74 17                	je     40243c <parse_args+0x14c>
  402425:	48 89 df             	mov    %rbx,%rdi
  402428:	e8 a3 ec ff ff       	callq  4010d0 <strlen@plt>
  40242d:	48 8d 50 01          	lea    0x1(%rax),%rdx
  402431:	48 89 ef             	mov    %rbp,%rdi
  402434:	48 89 de             	mov    %rbx,%rsi
  402437:	e8 94 ed ff ff       	callq  4011d0 <memcpy@plt>
  40243c:	49 89 6e 40          	mov    %rbp,0x40(%r14)
  402440:	e9 db fe ff ff       	jmpq   402320 <parse_args+0x30>
  402445:	48 8b 1d 44 83 20 00 	mov    0x208344(%rip),%rbx        # 60a790 <optarg@@GLIBC_2.2.5>
  40244c:	48 89 df             	mov    %rbx,%rdi
  40244f:	e8 7c ec ff ff       	callq  4010d0 <strlen@plt>
  402454:	48 8d 78 01          	lea    0x1(%rax),%rdi
  402458:	e8 a3 ed ff ff       	callq  401200 <malloc@plt>
  40245d:	48 89 c5             	mov    %rax,%rbp
  402460:	48 85 ed             	test   %rbp,%rbp
  402463:	74 17                	je     40247c <parse_args+0x18c>
  402465:	48 89 df             	mov    %rbx,%rdi
  402468:	e8 63 ec ff ff       	callq  4010d0 <strlen@plt>
  40246d:	48 8d 50 01          	lea    0x1(%rax),%rdx
  402471:	48 89 ef             	mov    %rbp,%rdi
  402474:	48 89 de             	mov    %rbx,%rsi
  402477:	e8 54 ed ff ff       	callq  4011d0 <memcpy@plt>
  40247c:	49 89 6e 38          	mov    %rbp,0x38(%r14)
  402480:	e9 9b fe ff ff       	jmpq   402320 <parse_args+0x30>
  402485:	48 8b 3d 04 83 20 00 	mov    0x208304(%rip),%rdi        # 60a790 <optarg@@GLIBC_2.2.5>
  40248c:	31 f6                	xor    %esi,%esi
  40248e:	ba 0a 00 00 00       	mov    $0xa,%edx
  402493:	e8 28 ed ff ff       	callq  4011c0 <strtol@plt>
  402498:	41 89 46 0c          	mov    %eax,0xc(%r14)
  40249c:	e9 7f fe ff ff       	jmpq   402320 <parse_args+0x30>
  4024a1:	48 8b 3d e8 82 20 00 	mov    0x2082e8(%rip),%rdi        # 60a790 <optarg@@GLIBC_2.2.5>
  4024a8:	31 f6                	xor    %esi,%esi
  4024aa:	ba 0a 00 00 00       	mov    $0xa,%edx
  4024af:	e8 0c ed ff ff       	callq  4011c0 <strtol@plt>
  4024b4:	41 89 46 10          	mov    %eax,0x10(%r14)
  4024b8:	e9 63 fe ff ff       	jmpq   402320 <parse_args+0x30>
  4024bd:	48 8b 3d cc 82 20 00 	mov    0x2082cc(%rip),%rdi        # 60a790 <optarg@@GLIBC_2.2.5>
  4024c4:	31 f6                	xor    %esi,%esi
  4024c6:	ba 0a 00 00 00       	mov    $0xa,%edx
  4024cb:	e8 f0 ec ff ff       	callq  4011c0 <strtol@plt>
  4024d0:	41 89 46 14          	mov    %eax,0x14(%r14)
  4024d4:	e9 47 fe ff ff       	jmpq   402320 <parse_args+0x30>
  4024d9:	48 8b 3d b0 82 20 00 	mov    0x2082b0(%rip),%rdi        # 60a790 <optarg@@GLIBC_2.2.5>
  4024e0:	31 f6                	xor    %esi,%esi
  4024e2:	ba 0a 00 00 00       	mov    $0xa,%edx
  4024e7:	e8 d4 ec ff ff       	callq  4011c0 <strtol@plt>
  4024ec:	41 89 46 18          	mov    %eax,0x18(%r14)
  4024f0:	e9 2b fe ff ff       	jmpq   402320 <parse_args+0x30>
  4024f5:	49 89 2e             	mov    %rbp,(%r14)
  4024f8:	e9 23 fe ff ff       	jmpq   402320 <parse_args+0x30>
  4024fd:	8b 05 ad 82 20 00    	mov    0x2082ad(%rip),%eax        # 60a7b0 <parse_args.nonunique_flag>
  402503:	41 89 46 28          	mov    %eax,0x28(%r14)
  402507:	8b 05 9f 82 20 00    	mov    0x20829f(%rip),%eax        # 60a7ac <parse_args.verbose_flag>
  40250d:	41 89 46 2c          	mov    %eax,0x2c(%r14)
  402511:	8b 05 9d 82 20 00    	mov    0x20829d(%rip),%eax        # 60a7b4 <parse_args.fullrange_flag>
  402517:	41 89 46 30          	mov    %eax,0x30(%r14)
  40251b:	8b 05 97 82 20 00    	mov    0x208297(%rip),%eax        # 60a7b8 <parse_args.basic_numa>
  402521:	41 89 46 34          	mov    %eax,0x34(%r14)
  402525:	44 39 2d 5c 82 20 00 	cmp    %r13d,0x20825c(%rip)        # 60a788 <optind@@GLIBC_2.2.5>
  40252c:	7d 42                	jge    402570 <parse_args+0x280>
  40252e:	bf 49 78 40 00       	mov    $0x407849,%edi
  402533:	31 c0                	xor    %eax,%eax
  402535:	e8 b6 eb ff ff       	callq  4010f0 <printf@plt>
  40253a:	eb 1f                	jmp    40255b <parse_args+0x26b>
  40253c:	0f 1f 40 00          	nopl   0x0(%rax)
  402540:	8d 48 01             	lea    0x1(%rax),%ecx
  402543:	89 0d 3f 82 20 00    	mov    %ecx,0x20823f(%rip)        # 60a788 <optind@@GLIBC_2.2.5>
  402549:	48 98                	cltq   
  40254b:	49 8b 34 c4          	mov    (%r12,%rax,8),%rsi
  40254f:	bf 60 78 40 00       	mov    $0x407860,%edi
  402554:	31 c0                	xor    %eax,%eax
  402556:	e8 95 eb ff ff       	callq  4010f0 <printf@plt>
  40255b:	8b 05 27 82 20 00    	mov    0x208227(%rip),%eax        # 60a788 <optind@@GLIBC_2.2.5>
  402561:	44 39 e8             	cmp    %r13d,%eax
  402564:	7c da                	jl     402540 <parse_args+0x250>
  402566:	bf 0a 00 00 00       	mov    $0xa,%edi
  40256b:	e8 d0 ea ff ff       	callq  401040 <putchar@plt>
  402570:	48 83 c4 08          	add    $0x8,%rsp
  402574:	5b                   	pop    %rbx
  402575:	41 5c                	pop    %r12
  402577:	41 5d                	pop    %r13
  402579:	41 5e                	pop    %r14
  40257b:	41 5f                	pop    %r15
  40257d:	5d                   	pop    %rbp
  40257e:	c3                   	retq   
  40257f:	bf 16 78 40 00       	mov    $0x407816,%edi
  402584:	31 c0                	xor    %eax,%eax
  402586:	48 89 de             	mov    %rbx,%rsi
  402589:	e8 62 eb ff ff       	callq  4010f0 <printf@plt>
  40258e:	49 8b 3c 24          	mov    (%r12),%rdi
  402592:	e8 19 00 00 00       	callq  4025b0 <print_help>
  402597:	31 ff                	xor    %edi,%edi
  402599:	e8 f2 ec ff ff       	callq  401290 <exit@plt>
  40259e:	e8 2d 00 00 00       	callq  4025d0 <print_version>
  4025a3:	31 ff                	xor    %edi,%edi
  4025a5:	e8 e6 ec ff ff       	callq  401290 <exit@plt>
  4025aa:	66 0f 1f 44 00 00    	nopw   0x0(%rax,%rax,1)

00000000004025b0 <print_help>:
  4025b0:	50                   	push   %rax
  4025b1:	48 89 f9             	mov    %rdi,%rcx
  4025b4:	bf 3c 77 40 00       	mov    $0x40773c,%edi
  4025b9:	31 c0                	xor    %eax,%eax
  4025bb:	48 89 ce             	mov    %rcx,%rsi
  4025be:	e8 2d eb ff ff       	callq  4010f0 <printf@plt>
  4025c3:	bf 70 78 40 00       	mov    $0x407870,%edi
  4025c8:	58                   	pop    %rax
  4025c9:	e9 a2 ea ff ff       	jmpq   401070 <puts@plt>
  4025ce:	66 90                	xchg   %ax,%ax

00000000004025d0 <print_version>:
  4025d0:	50                   	push   %rax
  4025d1:	bf 51 77 40 00       	mov    $0x407751,%edi
  4025d6:	be 56 77 40 00       	mov    $0x407756,%esi
  4025db:	31 c0                	xor    %eax,%eax
  4025dd:	e8 0e eb ff ff       	callq  4010f0 <printf@plt>
  4025e2:	bf 40 7f 40 00       	mov    $0x407f40,%edi
  4025e7:	e8 84 ea ff ff       	callq  401070 <puts@plt>
  4025ec:	bf 70 7f 40 00       	mov    $0x407f70,%edi
  4025f1:	58                   	pop    %rax
  4025f2:	e9 79 ea ff ff       	jmpq   401070 <puts@plt>
  4025f7:	66 0f 1f 84 00 00 00 	nopw   0x0(%rax,%rax,1)
  4025fe:	00 00 

0000000000402600 <alloc_aligned>:
  402600:	53                   	push   %rbx
  402601:	48 83 ec 10          	sub    $0x10,%rsp
  402605:	48 89 fb             	mov    %rdi,%rbx
  402608:	48 8d 7c 24 08       	lea    0x8(%rsp),%rdi
  40260d:	be 40 00 00 00       	mov    $0x40,%esi
  402612:	48 89 da             	mov    %rbx,%rdx
  402615:	e8 96 ec ff ff       	callq  4012b0 <posix_memalign@plt>
  40261a:	85 c0                	test   %eax,%eax
  40261c:	75 2a                	jne    402648 <alloc_aligned+0x48>
  40261e:	83 3d c7 89 20 00 00 	cmpl   $0x0,0x2089c7(%rip)        # 60afec <numalocalize>
  402625:	74 16                	je     40263d <alloc_aligned+0x3d>
  402627:	48 8b 7c 24 08       	mov    0x8(%rsp),%rdi
  40262c:	48 c1 eb 03          	shr    $0x3,%rbx
  402630:	8b 15 b2 89 20 00    	mov    0x2089b2(%rip),%edx        # 60afe8 <nthreads>
  402636:	89 de                	mov    %ebx,%esi
  402638:	e8 23 00 00 00       	callq  402660 <numa_localize>
  40263d:	48 8b 44 24 08       	mov    0x8(%rsp),%rax
  402642:	48 83 c4 10          	add    $0x10,%rsp
  402646:	5b                   	pop    %rbx
  402647:	c3                   	retq   
  402648:	bf d0 7f 40 00       	mov    $0x407fd0,%edi
  40264d:	e8 fe eb ff ff       	callq  401250 <perror@plt>
  402652:	31 c0                	xor    %eax,%eax
  402654:	eb ec                	jmp    402642 <alloc_aligned+0x42>
  402656:	66 2e 0f 1f 84 00 00 	nopw   %cs:0x0(%rax,%rax,1)
  40265d:	00 00 00 

0000000000402660 <numa_localize>:
  402660:	55                   	push   %rbp
  402661:	48 89 e5             	mov    %rsp,%rbp
  402664:	41 57                	push   %r15
  402666:	41 56                	push   %r14
  402668:	41 55                	push   %r13
  40266a:	41 54                	push   %r12
  40266c:	53                   	push   %rbx
  40266d:	48 81 ec f8 00 00 00 	sub    $0xf8,%rsp
  402674:	41 89 d7             	mov    %edx,%r15d
  402677:	41 89 f4             	mov    %esi,%r12d
  40267a:	48 89 7d a8          	mov    %rdi,-0x58(%rbp)
  40267e:	44 89 fa             	mov    %r15d,%edx
  402681:	48 8d 04 52          	lea    (%rdx,%rdx,2),%rax
  402685:	48 8d 04 c5 0f 00 00 	lea    0xf(,%rax,8),%rax
  40268c:	00 
  40268d:	48 b9 f0 ff ff ff 3f 	movabs $0x3ffffffff0,%rcx
  402694:	00 00 00 
  402697:	48 21 c1             	and    %rax,%rcx
  40269a:	48 89 e3             	mov    %rsp,%rbx
  40269d:	48 29 cb             	sub    %rcx,%rbx
  4026a0:	48 89 dc             	mov    %rbx,%rsp
  4026a3:	48 89 55 b0          	mov    %rdx,-0x50(%rbp)
  4026a7:	48 8d 04 d5 0f 00 00 	lea    0xf(,%rdx,8),%rax
  4026ae:	00 
  4026af:	48 b9 f0 ff ff ff 0f 	movabs $0xffffffff0,%rcx
  4026b6:	00 00 00 
  4026b9:	48 21 c1             	and    %rax,%rcx
  4026bc:	49 89 e5             	mov    %rsp,%r13
  4026bf:	49 29 cd             	sub    %rcx,%r13
  4026c2:	4c 89 ec             	mov    %r13,%rsp
  4026c5:	e8 b6 eb ff ff       	callq  401280 <getpagesize@plt>
  4026ca:	41 89 c6             	mov    %eax,%r14d
  4026cd:	44 89 65 d4          	mov    %r12d,-0x2c(%rbp)
  4026d1:	49 63 c4             	movslq %r12d,%rax
  4026d4:	48 c1 e0 03          	shl    $0x3,%rax
  4026d8:	44 89 f1             	mov    %r14d,%ecx
  4026db:	31 d2                	xor    %edx,%edx
  4026dd:	48 f7 f1             	div    %rcx
  4026e0:	ff c0                	inc    %eax
  4026e2:	45 31 e4             	xor    %r12d,%r12d
  4026e5:	31 d2                	xor    %edx,%edx
  4026e7:	41 f7 f7             	div    %r15d
  4026ea:	89 45 c8             	mov    %eax,-0x38(%rbp)
  4026ed:	48 8d bd e8 fe ff ff 	lea    -0x118(%rbp),%rdi
  4026f4:	e8 87 ea ff ff       	callq  401180 <pthread_attr_init@plt>
  4026f9:	45 85 ff             	test   %r15d,%r15d
  4026fc:	0f 84 21 01 00 00    	je     402823 <numa_localize+0x1c3>
  402702:	41 c1 ee 03          	shr    $0x3,%r14d
  402706:	8b 55 c8             	mov    -0x38(%rbp),%edx
  402709:	41 0f af d6          	imul   %r14d,%edx
  40270d:	4c 89 7d b8          	mov    %r15,-0x48(%rbp)
  402711:	41 8d 47 ff          	lea    -0x1(%r15),%eax
  402715:	89 d1                	mov    %edx,%ecx
  402717:	0f af c8             	imul   %eax,%ecx
  40271a:	29 4d d4             	sub    %ecx,-0x2c(%rbp)
  40271d:	89 c0                	mov    %eax,%eax
  40271f:	48 89 45 c8          	mov    %rax,-0x38(%rbp)
  402723:	4c 89 6d c0          	mov    %r13,-0x40(%rbp)
  402727:	4d 89 ee             	mov    %r13,%r14
  40272a:	45 31 ff             	xor    %r15d,%r15d
  40272d:	41 89 d5             	mov    %edx,%r13d
  402730:	44 89 ff             	mov    %r15d,%edi
  402733:	e8 28 17 00 00       	callq  403e60 <get_cpu_id>
  402738:	0f 57 c0             	xorps  %xmm0,%xmm0
  40273b:	0f 29 45 90          	movaps %xmm0,-0x70(%rbp)
  40273f:	0f 29 45 80          	movaps %xmm0,-0x80(%rbp)
  402743:	0f 29 85 70 ff ff ff 	movaps %xmm0,-0x90(%rbp)
  40274a:	0f 29 85 60 ff ff ff 	movaps %xmm0,-0xa0(%rbp)
  402751:	0f 29 85 50 ff ff ff 	movaps %xmm0,-0xb0(%rbp)
  402758:	0f 29 85 40 ff ff ff 	movaps %xmm0,-0xc0(%rbp)
  40275f:	0f 29 85 30 ff ff ff 	movaps %xmm0,-0xd0(%rbp)
  402766:	0f 29 85 20 ff ff ff 	movaps %xmm0,-0xe0(%rbp)
  40276d:	3d ff 03 00 00       	cmp    $0x3ff,%eax
  402772:	77 17                	ja     40278b <numa_localize+0x12b>
  402774:	48 63 c8             	movslq %eax,%rcx
  402777:	b8 01 00 00 00       	mov    $0x1,%eax
  40277c:	48 d3 e0             	shl    %cl,%rax
  40277f:	48 c1 e9 06          	shr    $0x6,%rcx
  402783:	48 09 84 cd 20 ff ff 	or     %rax,-0xe0(%rbp,%rcx,8)
  40278a:	ff 
  40278b:	be 80 00 00 00       	mov    $0x80,%esi
  402790:	48 8d 85 e8 fe ff ff 	lea    -0x118(%rbp),%rax
  402797:	48 89 c7             	mov    %rax,%rdi
  40279a:	48 8d 95 20 ff ff ff 	lea    -0xe0(%rbp),%rdx
  4027a1:	e8 ea e8 ff ff       	callq  401090 <pthread_attr_setaffinity_np@plt>
  4027a6:	41 8d 44 24 01       	lea    0x1(%r12),%eax
  4027ab:	89 43 10             	mov    %eax,0x10(%rbx)
  4027ae:	44 89 e0             	mov    %r12d,%eax
  4027b1:	48 8b 4d a8          	mov    -0x58(%rbp),%rcx
  4027b5:	48 8d 04 c1          	lea    (%rcx,%rax,8),%rax
  4027b9:	48 89 03             	mov    %rax,(%rbx)
  4027bc:	4c 39 7d c8          	cmp    %r15,-0x38(%rbp)
  4027c0:	44 89 e8             	mov    %r13d,%eax
  4027c3:	0f 44 45 d4          	cmove  -0x2c(%rbp),%eax
  4027c7:	89 43 08             	mov    %eax,0x8(%rbx)
  4027ca:	ba 90 2b 40 00       	mov    $0x402b90,%edx
  4027cf:	4c 89 f7             	mov    %r14,%rdi
  4027d2:	48 8d b5 e8 fe ff ff 	lea    -0x118(%rbp),%rsi
  4027d9:	48 89 d9             	mov    %rbx,%rcx
  4027dc:	e8 6f e8 ff ff       	callq  401050 <pthread_create@plt>
  4027e1:	89 c1                	mov    %eax,%ecx
  4027e3:	85 c9                	test   %ecx,%ecx
  4027e5:	75 4d                	jne    402834 <numa_localize+0x1d4>
  4027e7:	45 01 ec             	add    %r13d,%r12d
  4027ea:	49 ff c7             	inc    %r15
  4027ed:	48 83 c3 18          	add    $0x18,%rbx
  4027f1:	49 83 c6 08          	add    $0x8,%r14
  4027f5:	4c 3b 7d b0          	cmp    -0x50(%rbp),%r15
  4027f9:	0f 82 31 ff ff ff    	jb     402730 <numa_localize+0xd0>
  4027ff:	4c 8b 75 b8          	mov    -0x48(%rbp),%r14
  402803:	45 85 f6             	test   %r14d,%r14d
  402806:	48 8b 5d c0          	mov    -0x40(%rbp),%rbx
  40280a:	74 17                	je     402823 <numa_localize+0x1c3>
  40280c:	0f 1f 40 00          	nopl   0x0(%rax)
  402810:	48 8b 3b             	mov    (%rbx),%rdi
  402813:	31 f6                	xor    %esi,%esi
  402815:	e8 56 ea ff ff       	callq  401270 <pthread_join@plt>
  40281a:	48 83 c3 08          	add    $0x8,%rbx
  40281e:	41 ff ce             	dec    %r14d
  402821:	75 ed                	jne    402810 <numa_localize+0x1b0>
  402823:	31 c0                	xor    %eax,%eax
  402825:	48 8d 65 d8          	lea    -0x28(%rbp),%rsp
  402829:	5b                   	pop    %rbx
  40282a:	41 5c                	pop    %r12
  40282c:	41 5d                	pop    %r13
  40282e:	41 5e                	pop    %r14
  402830:	41 5f                	pop    %r15
  402832:	5d                   	pop    %rbp
  402833:	c3                   	retq   
  402834:	48 8b 3d 65 7f 20 00 	mov    0x207f65(%rip),%rdi        # 60a7a0 <stderr@@GLIBC_2.2.5>
  40283b:	be 08 80 40 00       	mov    $0x408008,%esi
  402840:	31 c0                	xor    %eax,%eax
  402842:	89 ca                	mov    %ecx,%edx
  402844:	e8 67 e9 ff ff       	callq  4011b0 <fprintf@plt>
  402849:	bf ff ff ff ff       	mov    $0xffffffff,%edi
  40284e:	e8 3d ea ff ff       	callq  401290 <exit@plt>
  402853:	66 66 66 66 2e 0f 1f 	data16 data16 data16 nopw %cs:0x0(%rax,%rax,1)
  40285a:	84 00 00 00 00 00 

0000000000402860 <seed_generator>:
  402860:	50                   	push   %rax
  402861:	e8 0a e9 ff ff       	callq  401170 <srand@plt>
  402866:	c6 05 4f 7f 20 00 01 	movb   $0x1,0x207f4f(%rip)        # 60a7bc <seeded>
  40286d:	58                   	pop    %rax
  40286e:	c3                   	retq   
  40286f:	90                   	nop

0000000000402870 <knuth_shuffle>:
  402870:	55                   	push   %rbp
  402871:	41 56                	push   %r14
  402873:	53                   	push   %rbx
  402874:	49 89 fe             	mov    %rdi,%r14
  402877:	41 8b 6e 08          	mov    0x8(%r14),%ebp
  40287b:	ff cd                	dec    %ebp
  40287d:	85 ed                	test   %ebp,%ebp
  40287f:	7e 4d                	jle    4028ce <knuth_shuffle+0x5e>
  402881:	48 63 dd             	movslq %ebp,%rbx
  402884:	48 c1 e3 03          	shl    $0x3,%rbx
  402888:	0f 1f 84 00 00 00 00 	nopl   0x0(%rax,%rax,1)
  40288f:	00 
  402890:	e8 5b ea ff ff       	callq  4012f0 <rand@plt>
  402895:	0f 57 c0             	xorps  %xmm0,%xmm0
  402898:	f2 0f 2a c0          	cvtsi2sd %eax,%xmm0
  40289c:	f2 0f 59 05 04 57 00 	mulsd  0x5704(%rip),%xmm0        # 407fa8 <_IO_stdin_used+0xe88>
  4028a3:	00 
  4028a4:	0f 57 c9             	xorps  %xmm1,%xmm1
  4028a7:	f2 0f 2a cd          	cvtsi2sd %ebp,%xmm1
  4028ab:	f2 0f 59 c8          	mulsd  %xmm0,%xmm1
  4028af:	f2 0f 2c c1          	cvttsd2si %xmm1,%eax
  4028b3:	49 8b 0e             	mov    (%r14),%rcx
  4028b6:	8b 14 19             	mov    (%rcx,%rbx,1),%edx
  4028b9:	48 98                	cltq   
  4028bb:	8b 34 c1             	mov    (%rcx,%rax,8),%esi
  4028be:	89 34 19             	mov    %esi,(%rcx,%rbx,1)
  4028c1:	89 14 c1             	mov    %edx,(%rcx,%rax,8)
  4028c4:	ff cd                	dec    %ebp
  4028c6:	48 83 c3 f8          	add    $0xfffffffffffffff8,%rbx
  4028ca:	85 ed                	test   %ebp,%ebp
  4028cc:	7f c2                	jg     402890 <knuth_shuffle+0x20>
  4028ce:	5b                   	pop    %rbx
  4028cf:	41 5e                	pop    %r14
  4028d1:	5d                   	pop    %rbp
  4028d2:	c3                   	retq   
  4028d3:	66 66 66 66 2e 0f 1f 	data16 data16 data16 nopw %cs:0x0(%rax,%rax,1)
  4028da:	84 00 00 00 00 00 

00000000004028e0 <knuth_shuffle48>:
  4028e0:	55                   	push   %rbp
  4028e1:	41 57                	push   %r15
  4028e3:	41 56                	push   %r14
  4028e5:	53                   	push   %rbx
  4028e6:	50                   	push   %rax
  4028e7:	49 89 f6             	mov    %rsi,%r14
  4028ea:	49 89 ff             	mov    %rdi,%r15
  4028ed:	41 8b 6f 08          	mov    0x8(%r15),%ebp
  4028f1:	ff cd                	dec    %ebp
  4028f3:	85 ed                	test   %ebp,%ebp
  4028f5:	7e 4b                	jle    402942 <knuth_shuffle48+0x62>
  4028f7:	48 63 dd             	movslq %ebp,%rbx
  4028fa:	48 c1 e3 03          	shl    $0x3,%rbx
  4028fe:	66 90                	xchg   %ax,%ax
  402900:	4c 89 f7             	mov    %r14,%rdi
  402903:	e8 98 e7 ff ff       	callq  4010a0 <nrand48@plt>
  402908:	0f 57 c0             	xorps  %xmm0,%xmm0
  40290b:	f2 48 0f 2a c0       	cvtsi2sd %rax,%xmm0
  402910:	f2 0f 59 05 90 56 00 	mulsd  0x5690(%rip),%xmm0        # 407fa8 <_IO_stdin_used+0xe88>
  402917:	00 
  402918:	0f 57 c9             	xorps  %xmm1,%xmm1
  40291b:	f2 0f 2a cd          	cvtsi2sd %ebp,%xmm1
  40291f:	f2 0f 59 c8          	mulsd  %xmm0,%xmm1
  402923:	f2 0f 2c c1          	cvttsd2si %xmm1,%eax
  402927:	49 8b 0f             	mov    (%r15),%rcx
  40292a:	8b 14 19             	mov    (%rcx,%rbx,1),%edx
  40292d:	48 98                	cltq   
  40292f:	8b 34 c1             	mov    (%rcx,%rax,8),%esi
  402932:	89 34 19             	mov    %esi,(%rcx,%rbx,1)
  402935:	89 14 c1             	mov    %edx,(%rcx,%rax,8)
  402938:	ff cd                	dec    %ebp
  40293a:	48 83 c3 f8          	add    $0xfffffffffffffff8,%rbx
  40293e:	85 ed                	test   %ebp,%ebp
  402940:	7f be                	jg     402900 <knuth_shuffle48+0x20>
  402942:	48 83 c4 08          	add    $0x8,%rsp
  402946:	5b                   	pop    %rbx
  402947:	41 5e                	pop    %r14
  402949:	41 5f                	pop    %r15
  40294b:	5d                   	pop    %rbp
  40294c:	c3                   	retq   
  40294d:	0f 1f 00             	nopl   (%rax)

0000000000402950 <random_unique_gen>:
  402950:	41 57                	push   %r15
  402952:	41 56                	push   %r14
  402954:	53                   	push   %rbx
  402955:	49 89 fe             	mov    %rdi,%r14
  402958:	45 8b 7e 08          	mov    0x8(%r14),%r15d
  40295c:	4d 85 ff             	test   %r15,%r15
  40295f:	0f 84 dc 00 00 00    	je     402a41 <random_unique_gen+0xf1>
  402965:	49 8b 0e             	mov    (%r14),%rcx
  402968:	49 8d 77 ff          	lea    -0x1(%r15),%rsi
  40296c:	44 89 f8             	mov    %r15d,%eax
  40296f:	83 e0 07             	and    $0x7,%eax
  402972:	31 d2                	xor    %edx,%edx
  402974:	48 83 fe 07          	cmp    $0x7,%rsi
  402978:	72 56                	jb     4029d0 <random_unique_gen+0x80>
  40297a:	4c 89 fe             	mov    %r15,%rsi
  40297d:	48 29 c6             	sub    %rax,%rsi
  402980:	31 ff                	xor    %edi,%edi
  402982:	66 66 66 66 66 2e 0f 	data16 data16 data16 data16 nopw %cs:0x0(%rax,%rax,1)
  402989:	1f 84 00 00 00 00 00 
  402990:	8d 57 01             	lea    0x1(%rdi),%edx
  402993:	89 14 f9             	mov    %edx,(%rcx,%rdi,8)
  402996:	8d 57 02             	lea    0x2(%rdi),%edx
  402999:	89 54 f9 08          	mov    %edx,0x8(%rcx,%rdi,8)
  40299d:	8d 57 03             	lea    0x3(%rdi),%edx
  4029a0:	89 54 f9 10          	mov    %edx,0x10(%rcx,%rdi,8)
  4029a4:	8d 57 04             	lea    0x4(%rdi),%edx
  4029a7:	89 54 f9 18          	mov    %edx,0x18(%rcx,%rdi,8)
  4029ab:	8d 57 05             	lea    0x5(%rdi),%edx
  4029ae:	89 54 f9 20          	mov    %edx,0x20(%rcx,%rdi,8)
  4029b2:	8d 57 06             	lea    0x6(%rdi),%edx
  4029b5:	89 54 f9 28          	mov    %edx,0x28(%rcx,%rdi,8)
  4029b9:	8d 57 07             	lea    0x7(%rdi),%edx
  4029bc:	89 54 f9 30          	mov    %edx,0x30(%rcx,%rdi,8)
  4029c0:	48 8d 57 08          	lea    0x8(%rdi),%rdx
  4029c4:	89 54 f9 38          	mov    %edx,0x38(%rcx,%rdi,8)
  4029c8:	48 39 d6             	cmp    %rdx,%rsi
  4029cb:	48 89 d7             	mov    %rdx,%rdi
  4029ce:	75 c0                	jne    402990 <random_unique_gen+0x40>
  4029d0:	48 85 c0             	test   %rax,%rax
  4029d3:	74 18                	je     4029ed <random_unique_gen+0x9d>
  4029d5:	48 8d 0c d1          	lea    (%rcx,%rdx,8),%rcx
  4029d9:	ff c2                	inc    %edx
  4029db:	48 f7 d8             	neg    %rax
  4029de:	66 90                	xchg   %ax,%ax
  4029e0:	89 11                	mov    %edx,(%rcx)
  4029e2:	48 83 c1 08          	add    $0x8,%rcx
  4029e6:	ff c2                	inc    %edx
  4029e8:	48 ff c0             	inc    %rax
  4029eb:	75 f3                	jne    4029e0 <random_unique_gen+0x90>
  4029ed:	41 ff cf             	dec    %r15d
  4029f0:	45 85 ff             	test   %r15d,%r15d
  4029f3:	7e 4c                	jle    402a41 <random_unique_gen+0xf1>
  4029f5:	49 63 df             	movslq %r15d,%rbx
  4029f8:	48 c1 e3 03          	shl    $0x3,%rbx
  4029fc:	0f 1f 40 00          	nopl   0x0(%rax)
  402a00:	e8 eb e8 ff ff       	callq  4012f0 <rand@plt>
  402a05:	0f 57 c0             	xorps  %xmm0,%xmm0
  402a08:	f2 0f 2a c0          	cvtsi2sd %eax,%xmm0
  402a0c:	f2 0f 59 05 94 55 00 	mulsd  0x5594(%rip),%xmm0        # 407fa8 <_IO_stdin_used+0xe88>
  402a13:	00 
  402a14:	0f 57 c9             	xorps  %xmm1,%xmm1
  402a17:	f2 41 0f 2a cf       	cvtsi2sd %r15d,%xmm1
  402a1c:	f2 0f 59 c8          	mulsd  %xmm0,%xmm1
  402a20:	f2 0f 2c c1          	cvttsd2si %xmm1,%eax
  402a24:	49 8b 0e             	mov    (%r14),%rcx
  402a27:	8b 14 19             	mov    (%rcx,%rbx,1),%edx
  402a2a:	48 98                	cltq   
  402a2c:	8b 34 c1             	mov    (%rcx,%rax,8),%esi
  402a2f:	89 34 19             	mov    %esi,(%rcx,%rbx,1)
  402a32:	89 14 c1             	mov    %edx,(%rcx,%rax,8)
  402a35:	41 ff cf             	dec    %r15d
  402a38:	48 83 c3 f8          	add    $0xfffffffffffffff8,%rbx
  402a3c:	45 85 ff             	test   %r15d,%r15d
  402a3f:	7f bf                	jg     402a00 <random_unique_gen+0xb0>
  402a41:	5b                   	pop    %rbx
  402a42:	41 5e                	pop    %r14
  402a44:	41 5f                	pop    %r15
  402a46:	c3                   	retq   
  402a47:	66 0f 1f 84 00 00 00 	nopw   0x0(%rax,%rax,1)
  402a4e:	00 00 

0000000000402a50 <random_unique_gen_thread>:
  402a50:	41 57                	push   %r15
  402a52:	41 56                	push   %r14
  402a54:	41 54                	push   %r12
  402a56:	53                   	push   %rbx
  402a57:	50                   	push   %rax
  402a58:	49 89 fe             	mov    %rdi,%r14
  402a5b:	41 8b 5e 10          	mov    0x10(%r14),%ebx
  402a5f:	66 c7 44 24 04 00 00 	movw   $0x0,0x4(%rsp)
  402a66:	c7 04 24 00 00 00 00 	movl   $0x0,(%rsp)
  402a6d:	31 ff                	xor    %edi,%edi
  402a6f:	e8 6c e7 ff ff       	callq  4011e0 <time@plt>
  402a74:	49 89 c7             	mov    %rax,%r15
  402a77:	e8 b4 e7 ff ff       	callq  401230 <pthread_self@plt>
  402a7c:	44 03 38             	add    (%rax),%r15d
  402a7f:	44 89 3c 24          	mov    %r15d,(%rsp)
  402a83:	45 8b 66 08          	mov    0x8(%r14),%r12d
  402a87:	4d 85 e4             	test   %r12,%r12
  402a8a:	0f 84 e5 00 00 00    	je     402b75 <random_unique_gen_thread+0x125>
  402a90:	49 8b 0e             	mov    (%r14),%rcx
  402a93:	49 8d 74 24 ff       	lea    -0x1(%r12),%rsi
  402a98:	44 89 e0             	mov    %r12d,%eax
  402a9b:	83 e0 07             	and    $0x7,%eax
  402a9e:	31 d2                	xor    %edx,%edx
  402aa0:	48 83 fe 07          	cmp    $0x7,%rsi
  402aa4:	72 54                	jb     402afa <random_unique_gen_thread+0xaa>
  402aa6:	4c 89 e6             	mov    %r12,%rsi
  402aa9:	48 29 c6             	sub    %rax,%rsi
  402aac:	31 d2                	xor    %edx,%edx
  402aae:	66 90                	xchg   %ax,%ax
  402ab0:	8d 3c 13             	lea    (%rbx,%rdx,1),%edi
  402ab3:	89 3c d1             	mov    %edi,(%rcx,%rdx,8)
  402ab6:	8d 7c 13 01          	lea    0x1(%rbx,%rdx,1),%edi
  402aba:	89 7c d1 08          	mov    %edi,0x8(%rcx,%rdx,8)
  402abe:	8d 7c 13 02          	lea    0x2(%rbx,%rdx,1),%edi
  402ac2:	89 7c d1 10          	mov    %edi,0x10(%rcx,%rdx,8)
  402ac6:	8d 7c 13 03          	lea    0x3(%rbx,%rdx,1),%edi
  402aca:	89 7c d1 18          	mov    %edi,0x18(%rcx,%rdx,8)
  402ace:	8d 7c 13 04          	lea    0x4(%rbx,%rdx,1),%edi
  402ad2:	89 7c d1 20          	mov    %edi,0x20(%rcx,%rdx,8)
  402ad6:	8d 7c 13 05          	lea    0x5(%rbx,%rdx,1),%edi
  402ada:	89 7c d1 28          	mov    %edi,0x28(%rcx,%rdx,8)
  402ade:	8d 7c 13 06          	lea    0x6(%rbx,%rdx,1),%edi
  402ae2:	89 7c d1 30          	mov    %edi,0x30(%rcx,%rdx,8)
  402ae6:	8d 7c 13 07          	lea    0x7(%rbx,%rdx,1),%edi
  402aea:	89 7c d1 38          	mov    %edi,0x38(%rcx,%rdx,8)
  402aee:	48 83 c2 08          	add    $0x8,%rdx
  402af2:	48 39 d6             	cmp    %rdx,%rsi
  402af5:	75 b9                	jne    402ab0 <random_unique_gen_thread+0x60>
  402af7:	8d 1c 13             	lea    (%rbx,%rdx,1),%ebx
  402afa:	48 85 c0             	test   %rax,%rax
  402afd:	74 1e                	je     402b1d <random_unique_gen_thread+0xcd>
  402aff:	48 8d 0c d1          	lea    (%rcx,%rdx,8),%rcx
  402b03:	48 f7 d8             	neg    %rax
  402b06:	66 2e 0f 1f 84 00 00 	nopw   %cs:0x0(%rax,%rax,1)
  402b0d:	00 00 00 
  402b10:	89 19                	mov    %ebx,(%rcx)
  402b12:	ff c3                	inc    %ebx
  402b14:	48 83 c1 08          	add    $0x8,%rcx
  402b18:	48 ff c0             	inc    %rax
  402b1b:	75 f3                	jne    402b10 <random_unique_gen_thread+0xc0>
  402b1d:	41 ff cc             	dec    %r12d
  402b20:	45 85 e4             	test   %r12d,%r12d
  402b23:	7e 50                	jle    402b75 <random_unique_gen_thread+0x125>
  402b25:	49 63 dc             	movslq %r12d,%rbx
  402b28:	48 c1 e3 03          	shl    $0x3,%rbx
  402b2c:	4c 8d 3c 24          	lea    (%rsp),%r15
  402b30:	4c 89 ff             	mov    %r15,%rdi
  402b33:	e8 68 e5 ff ff       	callq  4010a0 <nrand48@plt>
  402b38:	0f 57 c0             	xorps  %xmm0,%xmm0
  402b3b:	f2 48 0f 2a c0       	cvtsi2sd %rax,%xmm0
  402b40:	f2 0f 59 05 60 54 00 	mulsd  0x5460(%rip),%xmm0        # 407fa8 <_IO_stdin_used+0xe88>
  402b47:	00 
  402b48:	0f 57 c9             	xorps  %xmm1,%xmm1
  402b4b:	f2 41 0f 2a cc       	cvtsi2sd %r12d,%xmm1
  402b50:	f2 0f 59 c8          	mulsd  %xmm0,%xmm1
  402b54:	f2 0f 2c c1          	cvttsd2si %xmm1,%eax
  402b58:	49 8b 0e             	mov    (%r14),%rcx
  402b5b:	8b 14 19             	mov    (%rcx,%rbx,1),%edx
  402b5e:	48 98                	cltq   
  402b60:	8b 34 c1             	mov    (%rcx,%rax,8),%esi
  402b63:	89 34 19             	mov    %esi,(%rcx,%rbx,1)
  402b66:	89 14 c1             	mov    %edx,(%rcx,%rax,8)
  402b69:	41 ff cc             	dec    %r12d
  402b6c:	48 83 c3 f8          	add    $0xfffffffffffffff8,%rbx
  402b70:	45 85 e4             	test   %r12d,%r12d
  402b73:	7f bb                	jg     402b30 <random_unique_gen_thread+0xe0>
  402b75:	31 c0                	xor    %eax,%eax
  402b77:	48 83 c4 08          	add    $0x8,%rsp
  402b7b:	5b                   	pop    %rbx
  402b7c:	41 5c                	pop    %r12
  402b7e:	41 5e                	pop    %r14
  402b80:	41 5f                	pop    %r15
  402b82:	c3                   	retq   
  402b83:	66 66 66 66 2e 0f 1f 	data16 data16 data16 nopw %cs:0x0(%rax,%rax,1)
  402b8a:	84 00 00 00 00 00 

0000000000402b90 <numa_localize_thread>:
  402b90:	8b 57 08             	mov    0x8(%rdi),%edx
  402b93:	48 85 d2             	test   %rdx,%rdx
  402b96:	0f 84 93 00 00 00    	je     402c2f <numa_localize_thread+0x9f>
  402b9c:	48 8b 0f             	mov    (%rdi),%rcx
  402b9f:	48 8d 7a ff          	lea    -0x1(%rdx),%rdi
  402ba3:	89 d0                	mov    %edx,%eax
  402ba5:	83 e0 07             	and    $0x7,%eax
  402ba8:	31 f6                	xor    %esi,%esi
  402baa:	48 83 ff 07          	cmp    $0x7,%rdi
  402bae:	72 58                	jb     402c08 <numa_localize_thread+0x78>
  402bb0:	48 29 c2             	sub    %rax,%rdx
  402bb3:	31 f6                	xor    %esi,%esi
  402bb5:	66 66 2e 0f 1f 84 00 	data16 nopw %cs:0x0(%rax,%rax,1)
  402bbc:	00 00 00 00 
  402bc0:	c7 04 f1 00 00 00 00 	movl   $0x0,(%rcx,%rsi,8)
  402bc7:	c7 44 f1 08 00 00 00 	movl   $0x0,0x8(%rcx,%rsi,8)
  402bce:	00 
  402bcf:	c7 44 f1 10 00 00 00 	movl   $0x0,0x10(%rcx,%rsi,8)
  402bd6:	00 
  402bd7:	c7 44 f1 18 00 00 00 	movl   $0x0,0x18(%rcx,%rsi,8)
  402bde:	00 
  402bdf:	c7 44 f1 20 00 00 00 	movl   $0x0,0x20(%rcx,%rsi,8)
  402be6:	00 
  402be7:	c7 44 f1 28 00 00 00 	movl   $0x0,0x28(%rcx,%rsi,8)
  402bee:	00 
  402bef:	c7 44 f1 30 00 00 00 	movl   $0x0,0x30(%rcx,%rsi,8)
  402bf6:	00 
  402bf7:	c7 44 f1 38 00 00 00 	movl   $0x0,0x38(%rcx,%rsi,8)
  402bfe:	00 
  402bff:	48 83 c6 08          	add    $0x8,%rsi
  402c03:	48 39 f2             	cmp    %rsi,%rdx
  402c06:	75 b8                	jne    402bc0 <numa_localize_thread+0x30>
  402c08:	48 85 c0             	test   %rax,%rax
  402c0b:	74 22                	je     402c2f <numa_localize_thread+0x9f>
  402c0d:	48 8d 0c f1          	lea    (%rcx,%rsi,8),%rcx
  402c11:	48 f7 d8             	neg    %rax
  402c14:	66 66 66 2e 0f 1f 84 	data16 data16 nopw %cs:0x0(%rax,%rax,1)
  402c1b:	00 00 00 00 00 
  402c20:	c7 01 00 00 00 00    	movl   $0x0,(%rcx)
  402c26:	48 83 c1 08          	add    $0x8,%rcx
  402c2a:	48 ff c0             	inc    %rax
  402c2d:	75 f1                	jne    402c20 <numa_localize_thread+0x90>
  402c2f:	31 c0                	xor    %eax,%eax
  402c31:	c3                   	retq   
  402c32:	66 66 66 66 66 2e 0f 	data16 data16 data16 data16 nopw %cs:0x0(%rax,%rax,1)
  402c39:	1f 84 00 00 00 00 00 

0000000000402c40 <write_relation>:
  402c40:	55                   	push   %rbp
  402c41:	41 56                	push   %r14
  402c43:	53                   	push   %rbx
  402c44:	48 89 f0             	mov    %rsi,%rax
  402c47:	48 89 fb             	mov    %rdi,%rbx
  402c4a:	be e8 77 40 00       	mov    $0x4077e8,%esi
  402c4f:	48 89 c7             	mov    %rax,%rdi
  402c52:	e8 e9 e5 ff ff       	callq  401240 <fopen@plt>
  402c57:	49 89 c6             	mov    %rax,%r14
  402c5a:	bf f6 7f 40 00       	mov    $0x407ff6,%edi
  402c5f:	be 0a 00 00 00       	mov    $0xa,%esi
  402c64:	ba 01 00 00 00       	mov    $0x1,%edx
  402c69:	4c 89 f1             	mov    %r14,%rcx
  402c6c:	e8 2f e6 ff ff       	callq  4012a0 <fwrite@plt>
  402c71:	83 7b 08 00          	cmpl   $0x0,0x8(%rbx)
  402c75:	74 2b                	je     402ca2 <write_relation+0x62>
  402c77:	31 ed                	xor    %ebp,%ebp
  402c79:	0f 1f 80 00 00 00 00 	nopl   0x0(%rax)
  402c80:	89 e8                	mov    %ebp,%eax
  402c82:	48 8b 0b             	mov    (%rbx),%rcx
  402c85:	8b 14 c1             	mov    (%rcx,%rax,8),%edx
  402c88:	8b 4c c1 04          	mov    0x4(%rcx,%rax,8),%ecx
  402c8c:	be 01 80 40 00       	mov    $0x408001,%esi
  402c91:	31 c0                	xor    %eax,%eax
  402c93:	4c 89 f7             	mov    %r14,%rdi
  402c96:	e8 15 e5 ff ff       	callq  4011b0 <fprintf@plt>
  402c9b:	ff c5                	inc    %ebp
  402c9d:	3b 6b 08             	cmp    0x8(%rbx),%ebp
  402ca0:	72 de                	jb     402c80 <write_relation+0x40>
  402ca2:	4c 89 f7             	mov    %r14,%rdi
  402ca5:	5b                   	pop    %rbx
  402ca6:	41 5e                	pop    %r14
  402ca8:	5d                   	pop    %rbp
  402ca9:	e9 12 e4 ff ff       	jmpq   4010c0 <fclose@plt>
  402cae:	66 90                	xchg   %ax,%ax

0000000000402cb0 <random_gen>:
  402cb0:	55                   	push   %rbp
  402cb1:	53                   	push   %rbx
  402cb2:	50                   	push   %rax
  402cb3:	48 89 fb             	mov    %rdi,%rbx
  402cb6:	83 7b 08 00          	cmpl   $0x0,0x8(%rbx)
  402cba:	74 40                	je     402cfc <random_gen+0x4c>
  402cbc:	f2 0f 2a c6          	cvtsi2sd %esi,%xmm0
  402cc0:	f2 0f 11 04 24       	movsd  %xmm0,(%rsp)
  402cc5:	31 ed                	xor    %ebp,%ebp
  402cc7:	66 0f 1f 84 00 00 00 	nopw   0x0(%rax,%rax,1)
  402cce:	00 00 
  402cd0:	e8 1b e6 ff ff       	callq  4012f0 <rand@plt>
  402cd5:	0f 57 c0             	xorps  %xmm0,%xmm0
  402cd8:	f2 0f 2a c0          	cvtsi2sd %eax,%xmm0
  402cdc:	f2 0f 59 05 c4 52 00 	mulsd  0x52c4(%rip),%xmm0        # 407fa8 <_IO_stdin_used+0xe88>
  402ce3:	00 
  402ce4:	f2 0f 59 04 24       	mulsd  (%rsp),%xmm0
  402ce9:	f2 0f 2c c0          	cvttsd2si %xmm0,%eax
  402ced:	89 e9                	mov    %ebp,%ecx
  402cef:	48 8b 13             	mov    (%rbx),%rdx
  402cf2:	89 04 ca             	mov    %eax,(%rdx,%rcx,8)
  402cf5:	ff c5                	inc    %ebp
  402cf7:	3b 6b 08             	cmp    0x8(%rbx),%ebp
  402cfa:	72 d4                	jb     402cd0 <random_gen+0x20>
  402cfc:	48 83 c4 08          	add    $0x8,%rsp
  402d00:	5b                   	pop    %rbx
  402d01:	5d                   	pop    %rbp
  402d02:	c3                   	retq   
  402d03:	66 66 66 66 2e 0f 1f 	data16 data16 data16 nopw %cs:0x0(%rax,%rax,1)
  402d0a:	84 00 00 00 00 00 

0000000000402d10 <create_relation_pk>:
  402d10:	55                   	push   %rbp
  402d11:	41 57                	push   %r15
  402d13:	41 56                	push   %r14
  402d15:	53                   	push   %rbx
  402d16:	50                   	push   %rax
  402d17:	89 f5                	mov    %esi,%ebp
  402d19:	49 89 ff             	mov    %rdi,%r15
  402d1c:	8a 05 9a 7a 20 00    	mov    0x207a9a(%rip),%al        # 60a7bc <seeded>
  402d22:	84 c0                	test   %al,%al
  402d24:	75 15                	jne    402d3b <create_relation_pk+0x2b>
  402d26:	31 ff                	xor    %edi,%edi
  402d28:	e8 b3 e4 ff ff       	callq  4011e0 <time@plt>
  402d2d:	89 c7                	mov    %eax,%edi
  402d2f:	e8 3c e4 ff ff       	callq  401170 <srand@plt>
  402d34:	c6 05 81 7a 20 00 01 	movb   $0x1,0x207a81(%rip)        # 60a7bc <seeded>
  402d3b:	41 89 6f 08          	mov    %ebp,0x8(%r15)
  402d3f:	89 e8                	mov    %ebp,%eax
  402d41:	48 8d 2c c5 00 60 30 	lea    0x306000(,%rax,8),%rbp
  402d48:	00 
  402d49:	48 8d 3c 24          	lea    (%rsp),%rdi
  402d4d:	be 40 00 00 00       	mov    $0x40,%esi
  402d52:	48 89 ea             	mov    %rbp,%rdx
  402d55:	e8 56 e5 ff ff       	callq  4012b0 <posix_memalign@plt>
  402d5a:	85 c0                	test   %eax,%eax
  402d5c:	0f 85 0e 01 00 00    	jne    402e70 <create_relation_pk+0x160>
  402d62:	83 3d 83 82 20 00 00 	cmpl   $0x0,0x208283(%rip)        # 60afec <numalocalize>
  402d69:	74 15                	je     402d80 <create_relation_pk+0x70>
  402d6b:	48 8b 3c 24          	mov    (%rsp),%rdi
  402d6f:	48 c1 ed 03          	shr    $0x3,%rbp
  402d73:	8b 15 6f 82 20 00    	mov    0x20826f(%rip),%edx        # 60afe8 <nthreads>
  402d79:	89 ee                	mov    %ebp,%esi
  402d7b:	e8 e0 f8 ff ff       	callq  402660 <numa_localize>
  402d80:	48 8b 0c 24          	mov    (%rsp),%rcx
  402d84:	49 89 0f             	mov    %rcx,(%r15)
  402d87:	48 85 c9             	test   %rcx,%rcx
  402d8a:	0f 84 f1 00 00 00    	je     402e81 <create_relation_pk+0x171>
  402d90:	41 8b 6f 08          	mov    0x8(%r15),%ebp
  402d94:	45 31 f6             	xor    %r14d,%r14d
  402d97:	48 85 ed             	test   %rbp,%rbp
  402d9a:	0f 84 f1 00 00 00    	je     402e91 <create_relation_pk+0x181>
  402da0:	48 8d 75 ff          	lea    -0x1(%rbp),%rsi
  402da4:	89 e8                	mov    %ebp,%eax
  402da6:	83 e0 07             	and    $0x7,%eax
  402da9:	31 d2                	xor    %edx,%edx
  402dab:	48 83 fe 07          	cmp    $0x7,%rsi
  402daf:	72 4f                	jb     402e00 <create_relation_pk+0xf0>
  402db1:	48 89 ee             	mov    %rbp,%rsi
  402db4:	48 29 c6             	sub    %rax,%rsi
  402db7:	31 ff                	xor    %edi,%edi
  402db9:	0f 1f 80 00 00 00 00 	nopl   0x0(%rax)
  402dc0:	8d 57 01             	lea    0x1(%rdi),%edx
  402dc3:	89 14 f9             	mov    %edx,(%rcx,%rdi,8)
  402dc6:	8d 57 02             	lea    0x2(%rdi),%edx
  402dc9:	89 54 f9 08          	mov    %edx,0x8(%rcx,%rdi,8)
  402dcd:	8d 57 03             	lea    0x3(%rdi),%edx
  402dd0:	89 54 f9 10          	mov    %edx,0x10(%rcx,%rdi,8)
  402dd4:	8d 57 04             	lea    0x4(%rdi),%edx
  402dd7:	89 54 f9 18          	mov    %edx,0x18(%rcx,%rdi,8)
  402ddb:	8d 57 05             	lea    0x5(%rdi),%edx
  402dde:	89 54 f9 20          	mov    %edx,0x20(%rcx,%rdi,8)
  402de2:	8d 57 06             	lea    0x6(%rdi),%edx
  402de5:	89 54 f9 28          	mov    %edx,0x28(%rcx,%rdi,8)
  402de9:	8d 57 07             	lea    0x7(%rdi),%edx
  402dec:	89 54 f9 30          	mov    %edx,0x30(%rcx,%rdi,8)
  402df0:	48 8d 57 08          	lea    0x8(%rdi),%rdx
  402df4:	89 54 f9 38          	mov    %edx,0x38(%rcx,%rdi,8)
  402df8:	48 39 d6             	cmp    %rdx,%rsi
  402dfb:	48 89 d7             	mov    %rdx,%rdi
  402dfe:	75 c0                	jne    402dc0 <create_relation_pk+0xb0>
  402e00:	48 85 c0             	test   %rax,%rax
  402e03:	74 18                	je     402e1d <create_relation_pk+0x10d>
  402e05:	48 8d 0c d1          	lea    (%rcx,%rdx,8),%rcx
  402e09:	ff c2                	inc    %edx
  402e0b:	48 f7 d8             	neg    %rax
  402e0e:	66 90                	xchg   %ax,%ax
  402e10:	89 11                	mov    %edx,(%rcx)
  402e12:	48 83 c1 08          	add    $0x8,%rcx
  402e16:	ff c2                	inc    %edx
  402e18:	48 ff c0             	inc    %rax
  402e1b:	75 f3                	jne    402e10 <create_relation_pk+0x100>
  402e1d:	ff cd                	dec    %ebp
  402e1f:	45 31 f6             	xor    %r14d,%r14d
  402e22:	85 ed                	test   %ebp,%ebp
  402e24:	7e 6b                	jle    402e91 <create_relation_pk+0x181>
  402e26:	48 63 dd             	movslq %ebp,%rbx
  402e29:	48 c1 e3 03          	shl    $0x3,%rbx
  402e2d:	0f 1f 00             	nopl   (%rax)
  402e30:	e8 bb e4 ff ff       	callq  4012f0 <rand@plt>
  402e35:	0f 57 c0             	xorps  %xmm0,%xmm0
  402e38:	f2 0f 2a c0          	cvtsi2sd %eax,%xmm0
  402e3c:	f2 0f 59 05 64 51 00 	mulsd  0x5164(%rip),%xmm0        # 407fa8 <_IO_stdin_used+0xe88>
  402e43:	00 
  402e44:	0f 57 c9             	xorps  %xmm1,%xmm1
  402e47:	f2 0f 2a cd          	cvtsi2sd %ebp,%xmm1
  402e4b:	f2 0f 59 c8          	mulsd  %xmm0,%xmm1
  402e4f:	f2 0f 2c c1          	cvttsd2si %xmm1,%eax
  402e53:	49 8b 0f             	mov    (%r15),%rcx
  402e56:	8b 14 19             	mov    (%rcx,%rbx,1),%edx
  402e59:	48 98                	cltq   
  402e5b:	8b 34 c1             	mov    (%rcx,%rax,8),%esi
  402e5e:	89 34 19             	mov    %esi,(%rcx,%rbx,1)
  402e61:	89 14 c1             	mov    %edx,(%rcx,%rax,8)
  402e64:	ff cd                	dec    %ebp
  402e66:	48 83 c3 f8          	add    $0xfffffffffffffff8,%rbx
  402e6a:	85 ed                	test   %ebp,%ebp
  402e6c:	7f c2                	jg     402e30 <create_relation_pk+0x120>
  402e6e:	eb 21                	jmp    402e91 <create_relation_pk+0x181>
  402e70:	bf d0 7f 40 00       	mov    $0x407fd0,%edi
  402e75:	e8 d6 e3 ff ff       	callq  401250 <perror@plt>
  402e7a:	49 c7 07 00 00 00 00 	movq   $0x0,(%r15)
  402e81:	bf e8 7f 40 00       	mov    $0x407fe8,%edi
  402e86:	e8 c5 e3 ff ff       	callq  401250 <perror@plt>
  402e8b:	41 be ff ff ff ff    	mov    $0xffffffff,%r14d
  402e91:	44 89 f0             	mov    %r14d,%eax
  402e94:	48 83 c4 08          	add    $0x8,%rsp
  402e98:	5b                   	pop    %rbx
  402e99:	41 5e                	pop    %r14
  402e9b:	41 5f                	pop    %r15
  402e9d:	5d                   	pop    %rbp
  402e9e:	c3                   	retq   
  402e9f:	90                   	nop

0000000000402ea0 <parallel_create_relation_pk>:
  402ea0:	55                   	push   %rbp
  402ea1:	48 89 e5             	mov    %rsp,%rbp
  402ea4:	41 57                	push   %r15
  402ea6:	41 56                	push   %r14
  402ea8:	41 55                	push   %r13
  402eaa:	41 54                	push   %r12
  402eac:	53                   	push   %rbx
  402ead:	48 81 ec f8 00 00 00 	sub    $0xf8,%rsp
  402eb4:	48 89 55 c0          	mov    %rdx,-0x40(%rbp)
  402eb8:	89 75 d4             	mov    %esi,-0x2c(%rbp)
  402ebb:	49 89 ff             	mov    %rdi,%r15
  402ebe:	8a 05 f8 78 20 00    	mov    0x2078f8(%rip),%al        # 60a7bc <seeded>
  402ec4:	84 c0                	test   %al,%al
  402ec6:	75 15                	jne    402edd <parallel_create_relation_pk+0x3d>
  402ec8:	31 ff                	xor    %edi,%edi
  402eca:	e8 11 e3 ff ff       	callq  4011e0 <time@plt>
  402ecf:	89 c7                	mov    %eax,%edi
  402ed1:	e8 9a e2 ff ff       	callq  401170 <srand@plt>
  402ed6:	c6 05 df 78 20 00 01 	movb   $0x1,0x2078df(%rip)        # 60a7bc <seeded>
  402edd:	8b 45 d4             	mov    -0x2c(%rbp),%eax
  402ee0:	41 89 47 08          	mov    %eax,0x8(%r15)
  402ee4:	4c 63 f0             	movslq %eax,%r14
  402ee7:	4a 8d 1c f5 00 60 30 	lea    0x306000(,%r14,8),%rbx
  402eee:	00 
  402eef:	48 8d bd 20 ff ff ff 	lea    -0xe0(%rbp),%rdi
  402ef6:	be 40 00 00 00       	mov    $0x40,%esi
  402efb:	48 89 da             	mov    %rbx,%rdx
  402efe:	e8 ad e3 ff ff       	callq  4012b0 <posix_memalign@plt>
  402f03:	85 c0                	test   %eax,%eax
  402f05:	0f 85 6b 02 00 00    	jne    403176 <parallel_create_relation_pk+0x2d6>
  402f0b:	83 3d da 80 20 00 00 	cmpl   $0x0,0x2080da(%rip)        # 60afec <numalocalize>
  402f12:	74 18                	je     402f2c <parallel_create_relation_pk+0x8c>
  402f14:	48 8b bd 20 ff ff ff 	mov    -0xe0(%rbp),%rdi
  402f1b:	48 c1 eb 03          	shr    $0x3,%rbx
  402f1f:	8b 15 c3 80 20 00    	mov    0x2080c3(%rip),%edx        # 60afe8 <nthreads>
  402f25:	89 de                	mov    %ebx,%esi
  402f27:	e8 34 f7 ff ff       	callq  402660 <numa_localize>
  402f2c:	48 8b 85 20 ff ff ff 	mov    -0xe0(%rbp),%rax
  402f33:	49 89 07             	mov    %rax,(%r15)
  402f36:	48 85 c0             	test   %rax,%rax
  402f39:	0f 84 48 02 00 00    	je     403187 <parallel_create_relation_pk+0x2e7>
  402f3f:	4c 89 7d b8          	mov    %r15,-0x48(%rbp)
  402f43:	48 89 65 a8          	mov    %rsp,-0x58(%rbp)
  402f47:	49 c1 e6 03          	shl    $0x3,%r14
  402f4b:	4c 8b 6d c0          	mov    -0x40(%rbp),%r13
  402f4f:	44 89 ea             	mov    %r13d,%edx
  402f52:	48 8d 04 52          	lea    (%rdx,%rdx,2),%rax
  402f56:	48 8d 04 c5 0f 00 00 	lea    0xf(,%rax,8),%rax
  402f5d:	00 
  402f5e:	48 b9 f0 ff ff ff 3f 	movabs $0x3ffffffff0,%rcx
  402f65:	00 00 00 
  402f68:	48 21 c1             	and    %rax,%rcx
  402f6b:	48 89 e3             	mov    %rsp,%rbx
  402f6e:	48 29 cb             	sub    %rcx,%rbx
  402f71:	48 89 dc             	mov    %rbx,%rsp
  402f74:	48 89 55 a0          	mov    %rdx,-0x60(%rbp)
  402f78:	48 8d 04 d5 0f 00 00 	lea    0xf(,%rdx,8),%rax
  402f7f:	00 
  402f80:	48 b9 f0 ff ff ff 0f 	movabs $0xffffffff0,%rcx
  402f87:	00 00 00 
  402f8a:	48 21 c1             	and    %rax,%rcx
  402f8d:	49 89 e4             	mov    %rsp,%r12
  402f90:	49 29 cc             	sub    %rcx,%r12
  402f93:	4c 89 e4             	mov    %r12,%rsp
  402f96:	e8 e5 e2 ff ff       	callq  401280 <getpagesize@plt>
  402f9b:	41 89 c7             	mov    %eax,%r15d
  402f9e:	44 89 f9             	mov    %r15d,%ecx
  402fa1:	31 d2                	xor    %edx,%edx
  402fa3:	4c 89 f0             	mov    %r14,%rax
  402fa6:	4d 89 ee             	mov    %r13,%r14
  402fa9:	48 f7 f1             	div    %rcx
  402fac:	ff c0                	inc    %eax
  402fae:	45 31 ed             	xor    %r13d,%r13d
  402fb1:	31 d2                	xor    %edx,%edx
  402fb3:	41 f7 f6             	div    %r14d
  402fb6:	89 45 c8             	mov    %eax,-0x38(%rbp)
  402fb9:	48 8d bd e8 fe ff ff 	lea    -0x118(%rbp),%rdi
  402fc0:	e8 bb e1 ff ff       	callq  401180 <pthread_attr_init@plt>
  402fc5:	45 85 f6             	test   %r14d,%r14d
  402fc8:	0f 84 35 01 00 00    	je     403103 <parallel_create_relation_pk+0x263>
  402fce:	41 c1 ef 03          	shr    $0x3,%r15d
  402fd2:	8b 55 c8             	mov    -0x38(%rbp),%edx
  402fd5:	41 0f af d7          	imul   %r15d,%edx
  402fd9:	41 8d 46 ff          	lea    -0x1(%r14),%eax
  402fdd:	89 d1                	mov    %edx,%ecx
  402fdf:	0f af c8             	imul   %eax,%ecx
  402fe2:	29 4d d4             	sub    %ecx,-0x2c(%rbp)
  402fe5:	89 c0                	mov    %eax,%eax
  402fe7:	48 89 45 c8          	mov    %rax,-0x38(%rbp)
  402feb:	4c 89 65 b0          	mov    %r12,-0x50(%rbp)
  402fef:	4d 89 e6             	mov    %r12,%r14
  402ff2:	45 31 ff             	xor    %r15d,%r15d
  402ff5:	41 89 d4             	mov    %edx,%r12d
  402ff8:	0f 1f 84 00 00 00 00 	nopl   0x0(%rax,%rax,1)
  402fff:	00 
  403000:	44 89 ff             	mov    %r15d,%edi
  403003:	e8 58 0e 00 00       	callq  403e60 <get_cpu_id>
  403008:	66 0f 57 c0          	xorpd  %xmm0,%xmm0
  40300c:	66 0f 29 45 90       	movapd %xmm0,-0x70(%rbp)
  403011:	66 0f 29 45 80       	movapd %xmm0,-0x80(%rbp)
  403016:	66 0f 29 85 70 ff ff 	movapd %xmm0,-0x90(%rbp)
  40301d:	ff 
  40301e:	66 0f 29 85 60 ff ff 	movapd %xmm0,-0xa0(%rbp)
  403025:	ff 
  403026:	66 0f 29 85 50 ff ff 	movapd %xmm0,-0xb0(%rbp)
  40302d:	ff 
  40302e:	66 0f 29 85 40 ff ff 	movapd %xmm0,-0xc0(%rbp)
  403035:	ff 
  403036:	66 0f 29 85 30 ff ff 	movapd %xmm0,-0xd0(%rbp)
  40303d:	ff 
  40303e:	66 0f 29 85 20 ff ff 	movapd %xmm0,-0xe0(%rbp)
  403045:	ff 
  403046:	3d ff 03 00 00       	cmp    $0x3ff,%eax
  40304b:	77 17                	ja     403064 <parallel_create_relation_pk+0x1c4>
  40304d:	48 63 c8             	movslq %eax,%rcx
  403050:	b8 01 00 00 00       	mov    $0x1,%eax
  403055:	48 d3 e0             	shl    %cl,%rax
  403058:	48 c1 e9 06          	shr    $0x6,%rcx
  40305c:	48 09 84 cd 20 ff ff 	or     %rax,-0xe0(%rbp,%rcx,8)
  403063:	ff 
  403064:	be 80 00 00 00       	mov    $0x80,%esi
  403069:	48 8d 85 e8 fe ff ff 	lea    -0x118(%rbp),%rax
  403070:	48 89 c7             	mov    %rax,%rdi
  403073:	48 8d 95 20 ff ff ff 	lea    -0xe0(%rbp),%rdx
  40307a:	e8 11 e0 ff ff       	callq  401090 <pthread_attr_setaffinity_np@plt>
  40307f:	41 8d 45 01          	lea    0x1(%r13),%eax
  403083:	89 43 10             	mov    %eax,0x10(%rbx)
  403086:	44 89 e8             	mov    %r13d,%eax
  403089:	48 c1 e0 03          	shl    $0x3,%rax
  40308d:	48 8b 4d b8          	mov    -0x48(%rbp),%rcx
  403091:	48 03 01             	add    (%rcx),%rax
  403094:	48 89 03             	mov    %rax,(%rbx)
  403097:	4c 39 7d c8          	cmp    %r15,-0x38(%rbp)
  40309b:	44 89 e0             	mov    %r12d,%eax
  40309e:	0f 44 45 d4          	cmove  -0x2c(%rbp),%eax
  4030a2:	89 43 08             	mov    %eax,0x8(%rbx)
  4030a5:	ba 50 2a 40 00       	mov    $0x402a50,%edx
  4030aa:	4c 89 f7             	mov    %r14,%rdi
  4030ad:	48 8d b5 e8 fe ff ff 	lea    -0x118(%rbp),%rsi
  4030b4:	48 89 d9             	mov    %rbx,%rcx
  4030b7:	e8 94 df ff ff       	callq  401050 <pthread_create@plt>
  4030bc:	89 c1                	mov    %eax,%ecx
  4030be:	85 c9                	test   %ecx,%ecx
  4030c0:	0f 85 d2 00 00 00    	jne    403198 <parallel_create_relation_pk+0x2f8>
  4030c6:	45 01 e5             	add    %r12d,%r13d
  4030c9:	49 ff c7             	inc    %r15
  4030cc:	48 83 c3 18          	add    $0x18,%rbx
  4030d0:	49 83 c6 08          	add    $0x8,%r14
  4030d4:	4c 3b 7d a0          	cmp    -0x60(%rbp),%r15
  4030d8:	0f 82 22 ff ff ff    	jb     403000 <parallel_create_relation_pk+0x160>
  4030de:	4c 8b 75 c0          	mov    -0x40(%rbp),%r14
  4030e2:	45 85 f6             	test   %r14d,%r14d
  4030e5:	48 8b 5d b0          	mov    -0x50(%rbp),%rbx
  4030e9:	74 18                	je     403103 <parallel_create_relation_pk+0x263>
  4030eb:	0f 1f 44 00 00       	nopl   0x0(%rax,%rax,1)
  4030f0:	48 8b 3b             	mov    (%rbx),%rdi
  4030f3:	31 f6                	xor    %esi,%esi
  4030f5:	e8 76 e1 ff ff       	callq  401270 <pthread_join@plt>
  4030fa:	48 83 c3 08          	add    $0x8,%rbx
  4030fe:	41 ff ce             	dec    %r14d
  403101:	75 ed                	jne    4030f0 <parallel_create_relation_pk+0x250>
  403103:	4c 8b 7d b8          	mov    -0x48(%rbp),%r15
  403107:	45 8b 77 08          	mov    0x8(%r15),%r14d
  40310b:	41 ff ce             	dec    %r14d
  40310e:	45 85 f6             	test   %r14d,%r14d
  403111:	7e 4e                	jle    403161 <parallel_create_relation_pk+0x2c1>
  403113:	49 63 de             	movslq %r14d,%rbx
  403116:	48 c1 e3 03          	shl    $0x3,%rbx
  40311a:	66 0f 1f 44 00 00    	nopw   0x0(%rax,%rax,1)
  403120:	e8 cb e1 ff ff       	callq  4012f0 <rand@plt>
  403125:	0f 57 c0             	xorps  %xmm0,%xmm0
  403128:	f2 0f 2a c0          	cvtsi2sd %eax,%xmm0
  40312c:	f2 0f 59 05 74 4e 00 	mulsd  0x4e74(%rip),%xmm0        # 407fa8 <_IO_stdin_used+0xe88>
  403133:	00 
  403134:	0f 57 c9             	xorps  %xmm1,%xmm1
  403137:	f2 41 0f 2a ce       	cvtsi2sd %r14d,%xmm1
  40313c:	f2 0f 59 c8          	mulsd  %xmm0,%xmm1
  403140:	f2 0f 2c c1          	cvttsd2si %xmm1,%eax
  403144:	49 8b 0f             	mov    (%r15),%rcx
  403147:	8b 14 19             	mov    (%rcx,%rbx,1),%edx
  40314a:	48 98                	cltq   
  40314c:	8b 34 c1             	mov    (%rcx,%rax,8),%esi
  40314f:	89 34 19             	mov    %esi,(%rcx,%rbx,1)
  403152:	89 14 c1             	mov    %edx,(%rcx,%rax,8)
  403155:	41 ff ce             	dec    %r14d
  403158:	48 83 c3 f8          	add    $0xfffffffffffffff8,%rbx
  40315c:	45 85 f6             	test   %r14d,%r14d
  40315f:	7f bf                	jg     403120 <parallel_create_relation_pk+0x280>
  403161:	31 c0                	xor    %eax,%eax
  403163:	48 8b 65 a8          	mov    -0x58(%rbp),%rsp
  403167:	48 8d 65 d8          	lea    -0x28(%rbp),%rsp
  40316b:	5b                   	pop    %rbx
  40316c:	41 5c                	pop    %r12
  40316e:	41 5d                	pop    %r13
  403170:	41 5e                	pop    %r14
  403172:	41 5f                	pop    %r15
  403174:	5d                   	pop    %rbp
  403175:	c3                   	retq   
  403176:	bf d0 7f 40 00       	mov    $0x407fd0,%edi
  40317b:	e8 d0 e0 ff ff       	callq  401250 <perror@plt>
  403180:	49 c7 07 00 00 00 00 	movq   $0x0,(%r15)
  403187:	bf e8 7f 40 00       	mov    $0x407fe8,%edi
  40318c:	e8 bf e0 ff ff       	callq  401250 <perror@plt>
  403191:	b8 ff ff ff ff       	mov    $0xffffffff,%eax
  403196:	eb cf                	jmp    403167 <parallel_create_relation_pk+0x2c7>
  403198:	48 8b 3d 01 76 20 00 	mov    0x207601(%rip),%rdi        # 60a7a0 <stderr@@GLIBC_2.2.5>
  40319f:	be 08 80 40 00       	mov    $0x408008,%esi
  4031a4:	31 c0                	xor    %eax,%eax
  4031a6:	89 ca                	mov    %ecx,%edx
  4031a8:	e8 03 e0 ff ff       	callq  4011b0 <fprintf@plt>
  4031ad:	bf ff ff ff ff       	mov    $0xffffffff,%edi
  4031b2:	e8 d9 e0 ff ff       	callq  401290 <exit@plt>
  4031b7:	66 0f 1f 84 00 00 00 	nopw   0x0(%rax,%rax,1)
  4031be:	00 00 

00000000004031c0 <create_relation_fk>:
  4031c0:	55                   	push   %rbp
  4031c1:	41 57                	push   %r15
  4031c3:	41 56                	push   %r14
  4031c5:	41 55                	push   %r13
  4031c7:	41 54                	push   %r12
  4031c9:	53                   	push   %rbx
  4031ca:	48 83 ec 58          	sub    $0x58,%rsp
  4031ce:	41 89 d6             	mov    %edx,%r14d
  4031d1:	41 89 f7             	mov    %esi,%r15d
  4031d4:	48 89 fd             	mov    %rdi,%rbp
  4031d7:	8a 05 df 75 20 00    	mov    0x2075df(%rip),%al        # 60a7bc <seeded>
  4031dd:	84 c0                	test   %al,%al
  4031df:	75 15                	jne    4031f6 <create_relation_fk+0x36>
  4031e1:	31 ff                	xor    %edi,%edi
  4031e3:	e8 f8 df ff ff       	callq  4011e0 <time@plt>
  4031e8:	89 c7                	mov    %eax,%edi
  4031ea:	e8 81 df ff ff       	callq  401170 <srand@plt>
  4031ef:	c6 05 c6 75 20 00 01 	movb   $0x1,0x2075c6(%rip)        # 60a7bc <seeded>
  4031f6:	44 89 7d 08          	mov    %r15d,0x8(%rbp)
  4031fa:	44 89 f8             	mov    %r15d,%eax
  4031fd:	48 8d 1c c5 00 60 30 	lea    0x306000(,%rax,8),%rbx
  403204:	00 
  403205:	48 8d 7c 24 18       	lea    0x18(%rsp),%rdi
  40320a:	be 40 00 00 00       	mov    $0x40,%esi
  40320f:	48 89 da             	mov    %rbx,%rdx
  403212:	e8 99 e0 ff ff       	callq  4012b0 <posix_memalign@plt>
  403217:	85 c0                	test   %eax,%eax
  403219:	0f 85 60 03 00 00    	jne    40357f <create_relation_fk+0x3bf>
  40321f:	83 3d c6 7d 20 00 00 	cmpl   $0x0,0x207dc6(%rip)        # 60afec <numalocalize>
  403226:	74 16                	je     40323e <create_relation_fk+0x7e>
  403228:	48 8b 7c 24 18       	mov    0x18(%rsp),%rdi
  40322d:	48 c1 eb 03          	shr    $0x3,%rbx
  403231:	8b 15 b1 7d 20 00    	mov    0x207db1(%rip),%edx        # 60afe8 <nthreads>
  403237:	89 de                	mov    %ebx,%esi
  403239:	e8 22 f4 ff ff       	callq  402660 <numa_localize>
  40323e:	4c 8b 6c 24 18       	mov    0x18(%rsp),%r13
  403243:	4c 89 6d 00          	mov    %r13,0x0(%rbp)
  403247:	4d 85 ed             	test   %r13,%r13
  40324a:	0f 84 41 03 00 00    	je     403591 <create_relation_fk+0x3d1>
  403250:	44 89 7c 24 10       	mov    %r15d,0x10(%rsp)
  403255:	44 89 f8             	mov    %r15d,%eax
  403258:	99                   	cltd   
  403259:	4c 89 74 24 08       	mov    %r14,0x8(%rsp)
  40325e:	41 f7 fe             	idiv   %r14d
  403261:	89 44 24 04          	mov    %eax,0x4(%rsp)
  403265:	85 c0                	test   %eax,%eax
  403267:	0f 8e 66 02 00 00    	jle    4034d3 <create_relation_fk+0x313>
  40326d:	48 8b 44 24 08       	mov    0x8(%rsp),%rax
  403272:	85 c0                	test   %eax,%eax
  403274:	89 c3                	mov    %eax,%ebx
  403276:	0f 84 57 02 00 00    	je     4034d3 <create_relation_fk+0x313>
  40327c:	48 8b 44 24 08       	mov    0x8(%rsp),%rax
  403281:	44 8d 70 ff          	lea    -0x1(%rax),%r14d
  403285:	45 85 f6             	test   %r14d,%r14d
  403288:	48 63 c8             	movslq %eax,%rcx
  40328b:	0f 8e 84 01 00 00    	jle    403415 <create_relation_fk+0x255>
  403291:	4d 63 ce             	movslq %r14d,%r9
  403294:	89 d8                	mov    %ebx,%eax
  403296:	83 e0 07             	and    $0x7,%eax
  403299:	48 8d 53 ff          	lea    -0x1(%rbx),%rdx
  40329d:	48 89 54 24 28       	mov    %rdx,0x28(%rsp)
  4032a2:	48 29 c3             	sub    %rax,%rbx
  4032a5:	48 89 44 24 30       	mov    %rax,0x30(%rsp)
  4032aa:	48 f7 d8             	neg    %rax
  4032ad:	48 89 44 24 20       	mov    %rax,0x20(%rsp)
  4032b2:	bf 07 00 00 00       	mov    $0x7,%edi
  4032b7:	45 31 d2             	xor    %r10d,%r10d
  4032ba:	45 31 e4             	xor    %r12d,%r12d
  4032bd:	48 89 6c 24 38       	mov    %rbp,0x38(%rsp)
  4032c2:	44 89 74 24 14       	mov    %r14d,0x14(%rsp)
  4032c7:	eb 28                	jmp    4032f1 <create_relation_fk+0x131>
  4032c9:	0f 1f 80 00 00 00 00 	nopl   0x0(%rax)
  4032d0:	4c 8b 6d 00          	mov    0x0(%rbp),%r13
  4032d4:	48 8b 7c 24 48       	mov    0x48(%rsp),%rdi
  4032d9:	48 01 cf             	add    %rcx,%rdi
  4032dc:	4c 8b 54 24 40       	mov    0x40(%rsp),%r10
  4032e1:	49 01 ca             	add    %rcx,%r10
  4032e4:	4c 8b 4c 24 50       	mov    0x50(%rsp),%r9
  4032e9:	49 01 c9             	add    %rcx,%r9
  4032ec:	44 8b 74 24 14       	mov    0x14(%rsp),%r14d
  4032f1:	48 83 7c 24 28 07    	cmpq   $0x7,0x28(%rsp)
  4032f7:	b8 00 00 00 00       	mov    $0x0,%eax
  4032fc:	72 52                	jb     403350 <create_relation_fk+0x190>
  4032fe:	49 8d 54 fd 00       	lea    0x0(%r13,%rdi,8),%rdx
  403303:	31 f6                	xor    %esi,%esi
  403305:	66 66 2e 0f 1f 84 00 	data16 nopw %cs:0x0(%rax,%rax,1)
  40330c:	00 00 00 00 
  403310:	8d 46 01             	lea    0x1(%rsi),%eax
  403313:	89 44 f2 c8          	mov    %eax,-0x38(%rdx,%rsi,8)
  403317:	8d 46 02             	lea    0x2(%rsi),%eax
  40331a:	89 44 f2 d0          	mov    %eax,-0x30(%rdx,%rsi,8)
  40331e:	8d 46 03             	lea    0x3(%rsi),%eax
  403321:	89 44 f2 d8          	mov    %eax,-0x28(%rdx,%rsi,8)
  403325:	8d 46 04             	lea    0x4(%rsi),%eax
  403328:	89 44 f2 e0          	mov    %eax,-0x20(%rdx,%rsi,8)
  40332c:	8d 46 05             	lea    0x5(%rsi),%eax
  40332f:	89 44 f2 e8          	mov    %eax,-0x18(%rdx,%rsi,8)
  403333:	8d 46 06             	lea    0x6(%rsi),%eax
  403336:	89 44 f2 f0          	mov    %eax,-0x10(%rdx,%rsi,8)
  40333a:	8d 46 07             	lea    0x7(%rsi),%eax
  40333d:	89 44 f2 f8          	mov    %eax,-0x8(%rdx,%rsi,8)
  403341:	48 8d 46 08          	lea    0x8(%rsi),%rax
  403345:	89 04 f2             	mov    %eax,(%rdx,%rsi,8)
  403348:	48 39 c3             	cmp    %rax,%rbx
  40334b:	48 89 c6             	mov    %rax,%rsi
  40334e:	75 c0                	jne    403310 <create_relation_fk+0x150>
  403350:	48 89 7c 24 48       	mov    %rdi,0x48(%rsp)
  403355:	4c 89 e2             	mov    %r12,%rdx
  403358:	48 89 cd             	mov    %rcx,%rbp
  40335b:	48 0f af d1          	imul   %rcx,%rdx
  40335f:	48 83 7c 24 30 00    	cmpq   $0x0,0x30(%rsp)
  403365:	74 26                	je     40338d <create_relation_fk+0x1cd>
  403367:	4a 8d 34 10          	lea    (%rax,%r10,1),%rsi
  40336b:	49 8d 74 f5 00       	lea    0x0(%r13,%rsi,8),%rsi
  403370:	ff c0                	inc    %eax
  403372:	48 8b 7c 24 20       	mov    0x20(%rsp),%rdi
  403377:	66 0f 1f 84 00 00 00 	nopw   0x0(%rax,%rax,1)
  40337e:	00 00 
  403380:	89 06                	mov    %eax,(%rsi)
  403382:	48 83 c6 08          	add    $0x8,%rsi
  403386:	ff c0                	inc    %eax
  403388:	48 ff c7             	inc    %rdi
  40338b:	75 f3                	jne    403380 <create_relation_fk+0x1c0>
  40338d:	4c 89 54 24 40       	mov    %r10,0x40(%rsp)
  403392:	4d 8d 7c d5 00       	lea    0x0(%r13,%rdx,8),%r15
  403397:	4c 89 4c 24 50       	mov    %r9,0x50(%rsp)
  40339c:	4f 8d 6c cd 00       	lea    0x0(%r13,%r9,8),%r13
  4033a1:	66 66 66 66 66 66 2e 	data16 data16 data16 data16 data16 nopw %cs:0x0(%rax,%rax,1)
  4033a8:	0f 1f 84 00 00 00 00 
  4033af:	00 
  4033b0:	e8 3b df ff ff       	callq  4012f0 <rand@plt>
  4033b5:	f2 0f 10 05 eb 4b 00 	movsd  0x4beb(%rip),%xmm0        # 407fa8 <_IO_stdin_used+0xe88>
  4033bc:	00 
  4033bd:	66 0f 28 c8          	movapd %xmm0,%xmm1
  4033c1:	0f 57 c0             	xorps  %xmm0,%xmm0
  4033c4:	f2 0f 2a c0          	cvtsi2sd %eax,%xmm0
  4033c8:	f2 0f 59 c1          	mulsd  %xmm1,%xmm0
  4033cc:	0f 57 c9             	xorps  %xmm1,%xmm1
  4033cf:	f2 41 0f 2a ce       	cvtsi2sd %r14d,%xmm1
  4033d4:	f2 0f 59 c8          	mulsd  %xmm0,%xmm1
  4033d8:	f2 0f 2c c1          	cvttsd2si %xmm1,%eax
  4033dc:	41 8b 4d 00          	mov    0x0(%r13),%ecx
  4033e0:	48 98                	cltq   
  4033e2:	41 8b 14 c7          	mov    (%r15,%rax,8),%edx
  4033e6:	41 89 55 00          	mov    %edx,0x0(%r13)
  4033ea:	41 89 0c c7          	mov    %ecx,(%r15,%rax,8)
  4033ee:	41 ff ce             	dec    %r14d
  4033f1:	49 83 c5 f8          	add    $0xfffffffffffffff8,%r13
  4033f5:	45 85 f6             	test   %r14d,%r14d
  4033f8:	7f b6                	jg     4033b0 <create_relation_fk+0x1f0>
  4033fa:	49 ff c4             	inc    %r12
  4033fd:	44 3b 64 24 04       	cmp    0x4(%rsp),%r12d
  403402:	48 89 e9             	mov    %rbp,%rcx
  403405:	48 8b 6c 24 38       	mov    0x38(%rsp),%rbp
  40340a:	0f 85 c0 fe ff ff    	jne    4032d0 <create_relation_fk+0x110>
  403410:	e9 be 00 00 00       	jmpq   4034d3 <create_relation_fk+0x313>
  403415:	41 89 da             	mov    %ebx,%r10d
  403418:	41 83 e2 07          	and    $0x7,%r10d
  40341c:	4c 8d 4b ff          	lea    -0x1(%rbx),%r9
  403420:	4c 29 d3             	sub    %r10,%rbx
  403423:	49 8d 45 38          	lea    0x38(%r13),%rax
  403427:	48 c1 e1 03          	shl    $0x3,%rcx
  40342b:	4d 89 d0             	mov    %r10,%r8
  40342e:	49 f7 d8             	neg    %r8
  403431:	31 ff                	xor    %edi,%edi
  403433:	66 66 66 66 2e 0f 1f 	data16 data16 data16 nopw %cs:0x0(%rax,%rax,1)
  40343a:	84 00 00 00 00 00 
  403440:	49 89 eb             	mov    %rbp,%r11
  403443:	49 83 f9 07          	cmp    $0x7,%r9
  403447:	ba 00 00 00 00       	mov    $0x0,%edx
  40344c:	72 4b                	jb     403499 <create_relation_fk+0x2d9>
  40344e:	48 89 c6             	mov    %rax,%rsi
  403451:	31 d2                	xor    %edx,%edx
  403453:	66 66 66 66 2e 0f 1f 	data16 data16 data16 nopw %cs:0x0(%rax,%rax,1)
  40345a:	84 00 00 00 00 00 
  403460:	8d 6a 01             	lea    0x1(%rdx),%ebp
  403463:	89 6e c8             	mov    %ebp,-0x38(%rsi)
  403466:	8d 6a 02             	lea    0x2(%rdx),%ebp
  403469:	89 6e d0             	mov    %ebp,-0x30(%rsi)
  40346c:	8d 6a 03             	lea    0x3(%rdx),%ebp
  40346f:	89 6e d8             	mov    %ebp,-0x28(%rsi)
  403472:	8d 6a 04             	lea    0x4(%rdx),%ebp
  403475:	89 6e e0             	mov    %ebp,-0x20(%rsi)
  403478:	8d 6a 05             	lea    0x5(%rdx),%ebp
  40347b:	89 6e e8             	mov    %ebp,-0x18(%rsi)
  40347e:	8d 6a 06             	lea    0x6(%rdx),%ebp
  403481:	89 6e f0             	mov    %ebp,-0x10(%rsi)
  403484:	8d 6a 07             	lea    0x7(%rdx),%ebp
  403487:	89 6e f8             	mov    %ebp,-0x8(%rsi)
  40348a:	48 83 c2 08          	add    $0x8,%rdx
  40348e:	89 16                	mov    %edx,(%rsi)
  403490:	48 83 c6 40          	add    $0x40,%rsi
  403494:	48 39 d3             	cmp    %rdx,%rbx
  403497:	75 c7                	jne    403460 <create_relation_fk+0x2a0>
  403499:	4d 85 d2             	test   %r10,%r10
  40349c:	74 1f                	je     4034bd <create_relation_fk+0x2fd>
  40349e:	49 8d 74 d5 00       	lea    0x0(%r13,%rdx,8),%rsi
  4034a3:	ff c2                	inc    %edx
  4034a5:	4c 89 c5             	mov    %r8,%rbp
  4034a8:	0f 1f 84 00 00 00 00 	nopl   0x0(%rax,%rax,1)
  4034af:	00 
  4034b0:	89 16                	mov    %edx,(%rsi)
  4034b2:	48 83 c6 08          	add    $0x8,%rsi
  4034b6:	ff c2                	inc    %edx
  4034b8:	48 ff c5             	inc    %rbp
  4034bb:	75 f3                	jne    4034b0 <create_relation_fk+0x2f0>
  4034bd:	48 ff c7             	inc    %rdi
  4034c0:	48 01 c8             	add    %rcx,%rax
  4034c3:	49 01 cd             	add    %rcx,%r13
  4034c6:	3b 7c 24 04          	cmp    0x4(%rsp),%edi
  4034ca:	4c 89 dd             	mov    %r11,%rbp
  4034cd:	0f 85 6d ff ff ff    	jne    403440 <create_relation_fk+0x280>
  4034d3:	8b 44 24 10          	mov    0x10(%rsp),%eax
  4034d7:	99                   	cltd   
  4034d8:	48 8b 4c 24 08       	mov    0x8(%rsp),%rcx
  4034dd:	f7 f9                	idiv   %ecx
  4034df:	89 d3                	mov    %edx,%ebx
  4034e1:	45 31 ff             	xor    %r15d,%r15d
  4034e4:	85 db                	test   %ebx,%ebx
  4034e6:	0f 8e b5 00 00 00    	jle    4035a1 <create_relation_fk+0x3e1>
  4034ec:	48 8b 45 00          	mov    0x0(%rbp),%rax
  4034f0:	8b 54 24 04          	mov    0x4(%rsp),%edx
  4034f4:	0f af d1             	imul   %ecx,%edx
  4034f7:	48 63 ca             	movslq %edx,%rcx
  4034fa:	4c 8d 34 c8          	lea    (%rax,%rcx,8),%r14
  4034fe:	89 da                	mov    %ebx,%edx
  403500:	31 f6                	xor    %esi,%esi
  403502:	66 66 66 66 66 2e 0f 	data16 data16 data16 data16 nopw %cs:0x0(%rax,%rax,1)
  403509:	1f 84 00 00 00 00 00 
  403510:	48 8d 7e 01          	lea    0x1(%rsi),%rdi
  403514:	41 89 3c f6          	mov    %edi,(%r14,%rsi,8)
  403518:	48 39 d7             	cmp    %rdx,%rdi
  40351b:	48 89 fe             	mov    %rdi,%rsi
  40351e:	72 f0                	jb     403510 <create_relation_fk+0x350>
  403520:	ff cb                	dec    %ebx
  403522:	45 31 ff             	xor    %r15d,%r15d
  403525:	85 db                	test   %ebx,%ebx
  403527:	7e 78                	jle    4035a1 <create_relation_fk+0x3e1>
  403529:	48 63 d3             	movslq %ebx,%rdx
  40352c:	48 01 d1             	add    %rdx,%rcx
  40352f:	48 8d 2c c8          	lea    (%rax,%rcx,8),%rbp
  403533:	66 66 66 66 2e 0f 1f 	data16 data16 data16 nopw %cs:0x0(%rax,%rax,1)
  40353a:	84 00 00 00 00 00 
  403540:	e8 ab dd ff ff       	callq  4012f0 <rand@plt>
  403545:	0f 57 c0             	xorps  %xmm0,%xmm0
  403548:	f2 0f 2a c0          	cvtsi2sd %eax,%xmm0
  40354c:	f2 0f 59 05 54 4a 00 	mulsd  0x4a54(%rip),%xmm0        # 407fa8 <_IO_stdin_used+0xe88>
  403553:	00 
  403554:	0f 57 c9             	xorps  %xmm1,%xmm1
  403557:	f2 0f 2a cb          	cvtsi2sd %ebx,%xmm1
  40355b:	f2 0f 59 c8          	mulsd  %xmm0,%xmm1
  40355f:	f2 0f 2c c1          	cvttsd2si %xmm1,%eax
  403563:	8b 4d 00             	mov    0x0(%rbp),%ecx
  403566:	48 98                	cltq   
  403568:	41 8b 14 c6          	mov    (%r14,%rax,8),%edx
  40356c:	89 55 00             	mov    %edx,0x0(%rbp)
  40356f:	41 89 0c c6          	mov    %ecx,(%r14,%rax,8)
  403573:	ff cb                	dec    %ebx
  403575:	48 83 c5 f8          	add    $0xfffffffffffffff8,%rbp
  403579:	85 db                	test   %ebx,%ebx
  40357b:	7f c3                	jg     403540 <create_relation_fk+0x380>
  40357d:	eb 22                	jmp    4035a1 <create_relation_fk+0x3e1>
  40357f:	bf d0 7f 40 00       	mov    $0x407fd0,%edi
  403584:	e8 c7 dc ff ff       	callq  401250 <perror@plt>
  403589:	48 c7 45 00 00 00 00 	movq   $0x0,0x0(%rbp)
  403590:	00 
  403591:	bf e8 7f 40 00       	mov    $0x407fe8,%edi
  403596:	e8 b5 dc ff ff       	callq  401250 <perror@plt>
  40359b:	41 bf ff ff ff ff    	mov    $0xffffffff,%r15d
  4035a1:	44 89 f8             	mov    %r15d,%eax
  4035a4:	48 83 c4 58          	add    $0x58,%rsp
  4035a8:	5b                   	pop    %rbx
  4035a9:	41 5c                	pop    %r12
  4035ab:	41 5d                	pop    %r13
  4035ad:	41 5e                	pop    %r14
  4035af:	41 5f                	pop    %r15
  4035b1:	5d                   	pop    %rbp
  4035b2:	c3                   	retq   
  4035b3:	66 66 66 66 2e 0f 1f 	data16 data16 data16 nopw %cs:0x0(%rax,%rax,1)
  4035ba:	84 00 00 00 00 00 

00000000004035c0 <create_relation_fk_from_pk>:
  4035c0:	55                   	push   %rbp
  4035c1:	41 57                	push   %r15
  4035c3:	41 56                	push   %r14
  4035c5:	41 55                	push   %r13
  4035c7:	41 54                	push   %r12
  4035c9:	53                   	push   %rbx
  4035ca:	50                   	push   %rax
  4035cb:	41 89 d7             	mov    %edx,%r15d
  4035ce:	49 89 f6             	mov    %rsi,%r14
  4035d1:	49 89 fd             	mov    %rdi,%r13
  4035d4:	49 63 c7             	movslq %r15d,%rax
  4035d7:	48 8d 14 c5 00 60 30 	lea    0x306000(,%rax,8),%rdx
  4035de:	00 
  4035df:	be 40 00 00 00       	mov    $0x40,%esi
  4035e4:	e8 c7 dc ff ff       	callq  4012b0 <posix_memalign@plt>
  4035e9:	85 c0                	test   %eax,%eax
  4035eb:	0f 85 ef 00 00 00    	jne    4036e0 <create_relation_fk_from_pk+0x120>
  4035f1:	45 89 7d 08          	mov    %r15d,0x8(%r13)
  4035f5:	41 8b 4e 08          	mov    0x8(%r14),%ecx
  4035f9:	31 ed                	xor    %ebp,%ebp
  4035fb:	31 d2                	xor    %edx,%edx
  4035fd:	44 89 f8             	mov    %r15d,%eax
  403600:	f7 f1                	div    %ecx
  403602:	41 89 c4             	mov    %eax,%r12d
  403605:	45 85 e4             	test   %r12d,%r12d
  403608:	7e 4e                	jle    403658 <create_relation_fk_from_pk+0x98>
  40360a:	49 8b 7d 00          	mov    0x0(%r13),%rdi
  40360e:	49 8b 36             	mov    (%r14),%rsi
  403611:	48 8d 14 cd 00 00 00 	lea    0x0(,%rcx,8),%rdx
  403618:	00 
  403619:	e8 b2 db ff ff       	callq  4011d0 <memcpy@plt>
  40361e:	bd 01 00 00 00       	mov    $0x1,%ebp
  403623:	41 83 fc 01          	cmp    $0x1,%r12d
  403627:	74 2b                	je     403654 <create_relation_fk_from_pk+0x94>
  403629:	bd 01 00 00 00       	mov    $0x1,%ebp
  40362e:	66 90                	xchg   %ax,%ax
  403630:	41 8b 56 08          	mov    0x8(%r14),%edx
  403634:	49 8b 45 00          	mov    0x0(%r13),%rax
  403638:	89 d1                	mov    %edx,%ecx
  40363a:	0f af cd             	imul   %ebp,%ecx
  40363d:	48 8d 3c c8          	lea    (%rax,%rcx,8),%rdi
  403641:	49 8b 36             	mov    (%r14),%rsi
  403644:	48 c1 e2 03          	shl    $0x3,%rdx
  403648:	e8 83 db ff ff       	callq  4011d0 <memcpy@plt>
  40364d:	ff c5                	inc    %ebp
  40364f:	44 39 e5             	cmp    %r12d,%ebp
  403652:	7c dc                	jl     403630 <create_relation_fk_from_pk+0x70>
  403654:	41 8b 4e 08          	mov    0x8(%r14),%ecx
  403658:	31 d2                	xor    %edx,%edx
  40365a:	44 89 f8             	mov    %r15d,%eax
  40365d:	f7 f1                	div    %ecx
  40365f:	85 d2                	test   %edx,%edx
  403661:	7e 1a                	jle    40367d <create_relation_fk_from_pk+0xbd>
  403663:	49 8b 45 00          	mov    0x0(%r13),%rax
  403667:	0f af cd             	imul   %ebp,%ecx
  40366a:	48 8d 3c c8          	lea    (%rax,%rcx,8),%rdi
  40366e:	49 8b 36             	mov    (%r14),%rsi
  403671:	48 63 d2             	movslq %edx,%rdx
  403674:	48 c1 e2 03          	shl    $0x3,%rdx
  403678:	e8 53 db ff ff       	callq  4011d0 <memcpy@plt>
  40367d:	41 8b 6d 08          	mov    0x8(%r13),%ebp
  403681:	ff cd                	dec    %ebp
  403683:	85 ed                	test   %ebp,%ebp
  403685:	7e 48                	jle    4036cf <create_relation_fk_from_pk+0x10f>
  403687:	48 63 dd             	movslq %ebp,%rbx
  40368a:	48 c1 e3 03          	shl    $0x3,%rbx
  40368e:	66 90                	xchg   %ax,%ax
  403690:	e8 5b dc ff ff       	callq  4012f0 <rand@plt>
  403695:	0f 57 c0             	xorps  %xmm0,%xmm0
  403698:	f2 0f 2a c0          	cvtsi2sd %eax,%xmm0
  40369c:	f2 0f 59 05 04 49 00 	mulsd  0x4904(%rip),%xmm0        # 407fa8 <_IO_stdin_used+0xe88>
  4036a3:	00 
  4036a4:	0f 57 c9             	xorps  %xmm1,%xmm1
  4036a7:	f2 0f 2a cd          	cvtsi2sd %ebp,%xmm1
  4036ab:	f2 0f 59 c8          	mulsd  %xmm0,%xmm1
  4036af:	f2 0f 2c c1          	cvttsd2si %xmm1,%eax
  4036b3:	49 8b 4d 00          	mov    0x0(%r13),%rcx
  4036b7:	8b 14 19             	mov    (%rcx,%rbx,1),%edx
  4036ba:	48 98                	cltq   
  4036bc:	8b 34 c1             	mov    (%rcx,%rax,8),%esi
  4036bf:	89 34 19             	mov    %esi,(%rcx,%rbx,1)
  4036c2:	89 14 c1             	mov    %edx,(%rcx,%rax,8)
  4036c5:	ff cd                	dec    %ebp
  4036c7:	48 83 c3 f8          	add    $0xfffffffffffffff8,%rbx
  4036cb:	85 ed                	test   %ebp,%ebp
  4036cd:	7f c1                	jg     403690 <create_relation_fk_from_pk+0xd0>
  4036cf:	31 c0                	xor    %eax,%eax
  4036d1:	48 83 c4 08          	add    $0x8,%rsp
  4036d5:	5b                   	pop    %rbx
  4036d6:	41 5c                	pop    %r12
  4036d8:	41 5d                	pop    %r13
  4036da:	41 5e                	pop    %r14
  4036dc:	41 5f                	pop    %r15
  4036de:	5d                   	pop    %rbp
  4036df:	c3                   	retq   
  4036e0:	bf 34 80 40 00       	mov    $0x408034,%edi
  4036e5:	e8 66 db ff ff       	callq  401250 <perror@plt>
  4036ea:	eb e3                	jmp    4036cf <create_relation_fk_from_pk+0x10f>
  4036ec:	0f 1f 40 00          	nopl   0x0(%rax)

00000000004036f0 <create_relation_nonunique>:
  4036f0:	55                   	push   %rbp
  4036f1:	41 57                	push   %r15
  4036f3:	41 56                	push   %r14
  4036f5:	53                   	push   %rbx
  4036f6:	48 83 ec 18          	sub    $0x18,%rsp
  4036fa:	41 89 d6             	mov    %edx,%r14d
  4036fd:	89 f5                	mov    %esi,%ebp
  4036ff:	48 89 fb             	mov    %rdi,%rbx
  403702:	8a 05 b4 70 20 00    	mov    0x2070b4(%rip),%al        # 60a7bc <seeded>
  403708:	84 c0                	test   %al,%al
  40370a:	75 15                	jne    403721 <create_relation_nonunique+0x31>
  40370c:	31 ff                	xor    %edi,%edi
  40370e:	e8 cd da ff ff       	callq  4011e0 <time@plt>
  403713:	89 c7                	mov    %eax,%edi
  403715:	e8 56 da ff ff       	callq  401170 <srand@plt>
  40371a:	c6 05 9b 70 20 00 01 	movb   $0x1,0x20709b(%rip)        # 60a7bc <seeded>
  403721:	89 6b 08             	mov    %ebp,0x8(%rbx)
  403724:	89 e8                	mov    %ebp,%eax
  403726:	48 8d 2c c5 00 60 30 	lea    0x306000(,%rax,8),%rbp
  40372d:	00 
  40372e:	48 8d 7c 24 08       	lea    0x8(%rsp),%rdi
  403733:	be 40 00 00 00       	mov    $0x40,%esi
  403738:	48 89 ea             	mov    %rbp,%rdx
  40373b:	e8 70 db ff ff       	callq  4012b0 <posix_memalign@plt>
  403740:	85 c0                	test   %eax,%eax
  403742:	0f 85 83 00 00 00    	jne    4037cb <create_relation_nonunique+0xdb>
  403748:	83 3d 9d 78 20 00 00 	cmpl   $0x0,0x20789d(%rip)        # 60afec <numalocalize>
  40374f:	74 16                	je     403767 <create_relation_nonunique+0x77>
  403751:	48 8b 7c 24 08       	mov    0x8(%rsp),%rdi
  403756:	48 c1 ed 03          	shr    $0x3,%rbp
  40375a:	8b 15 88 78 20 00    	mov    0x207888(%rip),%edx        # 60afe8 <nthreads>
  403760:	89 ee                	mov    %ebp,%esi
  403762:	e8 f9 ee ff ff       	callq  402660 <numa_localize>
  403767:	48 8b 44 24 08       	mov    0x8(%rsp),%rax
  40376c:	48 89 03             	mov    %rax,(%rbx)
  40376f:	48 85 c0             	test   %rax,%rax
  403772:	74 68                	je     4037dc <create_relation_nonunique+0xec>
  403774:	45 31 ff             	xor    %r15d,%r15d
  403777:	83 7b 08 00          	cmpl   $0x0,0x8(%rbx)
  40377b:	74 40                	je     4037bd <create_relation_nonunique+0xcd>
  40377d:	f2 41 0f 2a c6       	cvtsi2sd %r14d,%xmm0
  403782:	f2 0f 11 44 24 10    	movsd  %xmm0,0x10(%rsp)
  403788:	45 31 ff             	xor    %r15d,%r15d
  40378b:	31 ed                	xor    %ebp,%ebp
  40378d:	0f 1f 00             	nopl   (%rax)
  403790:	e8 5b db ff ff       	callq  4012f0 <rand@plt>
  403795:	0f 57 c0             	xorps  %xmm0,%xmm0
  403798:	f2 0f 2a c0          	cvtsi2sd %eax,%xmm0
  40379c:	f2 0f 59 05 04 48 00 	mulsd  0x4804(%rip),%xmm0        # 407fa8 <_IO_stdin_used+0xe88>
  4037a3:	00 
  4037a4:	f2 0f 59 44 24 10    	mulsd  0x10(%rsp),%xmm0
  4037aa:	f2 0f 2c c0          	cvttsd2si %xmm0,%eax
  4037ae:	89 e9                	mov    %ebp,%ecx
  4037b0:	48 8b 13             	mov    (%rbx),%rdx
  4037b3:	89 04 ca             	mov    %eax,(%rdx,%rcx,8)
  4037b6:	ff c5                	inc    %ebp
  4037b8:	3b 6b 08             	cmp    0x8(%rbx),%ebp
  4037bb:	72 d3                	jb     403790 <create_relation_nonunique+0xa0>
  4037bd:	44 89 f8             	mov    %r15d,%eax
  4037c0:	48 83 c4 18          	add    $0x18,%rsp
  4037c4:	5b                   	pop    %rbx
  4037c5:	41 5e                	pop    %r14
  4037c7:	41 5f                	pop    %r15
  4037c9:	5d                   	pop    %rbp
  4037ca:	c3                   	retq   
  4037cb:	bf d0 7f 40 00       	mov    $0x407fd0,%edi
  4037d0:	e8 7b da ff ff       	callq  401250 <perror@plt>
  4037d5:	48 c7 03 00 00 00 00 	movq   $0x0,(%rbx)
  4037dc:	bf e8 7f 40 00       	mov    $0x407fe8,%edi
  4037e1:	e8 6a da ff ff       	callq  401250 <perror@plt>
  4037e6:	41 bf ff ff ff ff    	mov    $0xffffffff,%r15d
  4037ec:	eb cf                	jmp    4037bd <create_relation_nonunique+0xcd>
  4037ee:	66 90                	xchg   %ax,%ax

00000000004037f0 <zipf_ggl>:
  4037f0:	53                   	push   %rbx
  4037f1:	48 89 fb             	mov    %rdi,%rbx
  4037f4:	f2 0f 10 03          	movsd  (%rbx),%xmm0
  4037f8:	f2 0f 59 05 b0 47 00 	mulsd  0x47b0(%rip),%xmm0        # 407fb0 <_IO_stdin_used+0xe90>
  4037ff:	00 
  403800:	f2 0f 10 0d b0 47 00 	movsd  0x47b0(%rip),%xmm1        # 407fb8 <_IO_stdin_used+0xe98>
  403807:	00 
  403808:	e8 33 d9 ff ff       	callq  401140 <fmod@plt>
  40380d:	f2 0f 11 03          	movsd  %xmm0,(%rbx)
  403811:	f2 0f 58 05 a7 47 00 	addsd  0x47a7(%rip),%xmm0        # 407fc0 <_IO_stdin_used+0xea0>
  403818:	00 
  403819:	f2 0f 5e 05 a7 47 00 	divsd  0x47a7(%rip),%xmm0        # 407fc8 <_IO_stdin_used+0xea8>
  403820:	00 
  403821:	5b                   	pop    %rbx
  403822:	c3                   	retq   
  403823:	66 66 66 66 2e 0f 1f 	data16 data16 data16 nopw %cs:0x0(%rax,%rax,1)
  40382a:	84 00 00 00 00 00 

0000000000403830 <create_relation_zipf>:
  403830:	55                   	push   %rbp
  403831:	41 57                	push   %r15
  403833:	41 56                	push   %r14
  403835:	53                   	push   %rbx
  403836:	48 83 ec 18          	sub    $0x18,%rsp
  40383a:	f2 0f 11 44 24 10    	movsd  %xmm0,0x10(%rsp)
  403840:	41 89 d6             	mov    %edx,%r14d
  403843:	89 f5                	mov    %esi,%ebp
  403845:	49 89 ff             	mov    %rdi,%r15
  403848:	8a 05 6e 6f 20 00    	mov    0x206f6e(%rip),%al        # 60a7bc <seeded>
  40384e:	84 c0                	test   %al,%al
  403850:	75 15                	jne    403867 <create_relation_zipf+0x37>
  403852:	31 ff                	xor    %edi,%edi
  403854:	e8 87 d9 ff ff       	callq  4011e0 <time@plt>
  403859:	89 c7                	mov    %eax,%edi
  40385b:	e8 10 d9 ff ff       	callq  401170 <srand@plt>
  403860:	c6 05 55 6f 20 00 01 	movb   $0x1,0x206f55(%rip)        # 60a7bc <seeded>
  403867:	41 89 6f 08          	mov    %ebp,0x8(%r15)
  40386b:	89 e8                	mov    %ebp,%eax
  40386d:	48 8d 1c c5 00 60 30 	lea    0x306000(,%rax,8),%rbx
  403874:	00 
  403875:	48 8d 7c 24 08       	lea    0x8(%rsp),%rdi
  40387a:	be 40 00 00 00       	mov    $0x40,%esi
  40387f:	48 89 da             	mov    %rbx,%rdx
  403882:	e8 29 da ff ff       	callq  4012b0 <posix_memalign@plt>
  403887:	85 c0                	test   %eax,%eax
  403889:	75 4c                	jne    4038d7 <create_relation_zipf+0xa7>
  40388b:	83 3d 5a 77 20 00 00 	cmpl   $0x0,0x20775a(%rip)        # 60afec <numalocalize>
  403892:	74 16                	je     4038aa <create_relation_zipf+0x7a>
  403894:	48 8b 7c 24 08       	mov    0x8(%rsp),%rdi
  403899:	48 c1 eb 03          	shr    $0x3,%rbx
  40389d:	8b 15 45 77 20 00    	mov    0x207745(%rip),%edx        # 60afe8 <nthreads>
  4038a3:	89 de                	mov    %ebx,%esi
  4038a5:	e8 b6 ed ff ff       	callq  402660 <numa_localize>
  4038aa:	48 8b 44 24 08       	mov    0x8(%rsp),%rax
  4038af:	49 89 07             	mov    %rax,(%r15)
  4038b2:	48 85 c0             	test   %rax,%rax
  4038b5:	74 31                	je     4038e8 <create_relation_zipf+0xb8>
  4038b7:	89 ef                	mov    %ebp,%edi
  4038b9:	44 89 f6             	mov    %r14d,%esi
  4038bc:	f2 0f 10 44 24 10    	movsd  0x10(%rsp),%xmm0
  4038c2:	4c 89 fa             	mov    %r15,%rdx
  4038c5:	e8 46 00 00 00       	callq  403910 <gen_zipf>
  4038ca:	31 c0                	xor    %eax,%eax
  4038cc:	48 83 c4 18          	add    $0x18,%rsp
  4038d0:	5b                   	pop    %rbx
  4038d1:	41 5e                	pop    %r14
  4038d3:	41 5f                	pop    %r15
  4038d5:	5d                   	pop    %rbp
  4038d6:	c3                   	retq   
  4038d7:	bf d0 7f 40 00       	mov    $0x407fd0,%edi
  4038dc:	e8 6f d9 ff ff       	callq  401250 <perror@plt>
  4038e1:	49 c7 07 00 00 00 00 	movq   $0x0,(%r15)
  4038e8:	bf e8 7f 40 00       	mov    $0x407fe8,%edi
  4038ed:	e8 5e d9 ff ff       	callq  401250 <perror@plt>
  4038f2:	b8 ff ff ff ff       	mov    $0xffffffff,%eax
  4038f7:	eb d3                	jmp    4038cc <create_relation_zipf+0x9c>
  4038f9:	0f 1f 80 00 00 00 00 	nopl   0x0(%rax)

0000000000403900 <delete_relation>:
  403900:	48 8b 3f             	mov    (%rdi),%rdi
  403903:	e9 28 d7 ff ff       	jmpq   401030 <free@plt>
  403908:	0f 1f 84 00 00 00 00 	nopl   0x0(%rax,%rax,1)
  40390f:	00 

0000000000403910 <gen_zipf>:
  403910:	55                   	push   %rbp
  403911:	41 57                	push   %r15
  403913:	41 56                	push   %r14
  403915:	41 55                	push   %r13
  403917:	41 54                	push   %r12
  403919:	53                   	push   %rbx
  40391a:	48 83 ec 28          	sub    $0x28,%rsp
  40391e:	48 89 54 24 18       	mov    %rdx,0x18(%rsp)
  403923:	f2 0f 11 44 24 20    	movsd  %xmm0,0x20(%rsp)
  403929:	89 f3                	mov    %esi,%ebx
  40392b:	41 89 fd             	mov    %edi,%r13d
  40392e:	89 d8                	mov    %ebx,%eax
  403930:	48 89 04 24          	mov    %rax,(%rsp)
  403934:	48 8d 3c 85 00 00 00 	lea    0x0(,%rax,4),%rdi
  40393b:	00 
  40393c:	e8 bf d8 ff ff       	callq  401200 <malloc@plt>
  403941:	49 89 c7             	mov    %rax,%r15
  403944:	4d 85 ff             	test   %r15,%r15
  403947:	0f 84 42 04 00 00    	je     403d8f <gen_zipf+0x47f>
  40394d:	b8 ff ff ff ff       	mov    $0xffffffff,%eax
  403952:	48 89 5c 24 08       	mov    %rbx,0x8(%rsp)
  403957:	85 db                	test   %ebx,%ebx
  403959:	0f 84 e3 01 00 00    	je     403b42 <gen_zipf+0x232>
  40395f:	48 8b 6c 24 08       	mov    0x8(%rsp),%rbp
  403964:	8d 45 ff             	lea    -0x1(%rbp),%eax
  403967:	48 ff c0             	inc    %rax
  40396a:	31 d2                	xor    %edx,%edx
  40396c:	48 83 f8 07          	cmp    $0x7,%rax
  403970:	0f 86 a5 01 00 00    	jbe    403b1b <gen_zipf+0x20b>
  403976:	31 d2                	xor    %edx,%edx
  403978:	48 b9 f8 ff ff ff 01 	movabs $0x1fffffff8,%rcx
  40397f:	00 00 00 
  403982:	48 21 c1             	and    %rax,%rcx
  403985:	0f 84 90 01 00 00    	je     403b1b <gen_zipf+0x20b>
  40398b:	48 8d 79 f8          	lea    -0x8(%rcx),%rdi
  40398f:	48 c1 ef 03          	shr    $0x3,%rdi
  403993:	8d 57 01             	lea    0x1(%rdi),%edx
  403996:	83 e2 01             	and    $0x1,%edx
  403999:	be 01 00 00 00       	mov    $0x1,%esi
  40399e:	48 85 ff             	test   %rdi,%rdi
  4039a1:	0f 84 03 01 00 00    	je     403aaa <gen_zipf+0x19a>
  4039a7:	48 8d 72 ff          	lea    -0x1(%rdx),%rsi
  4039ab:	48 29 fe             	sub    %rdi,%rsi
  4039ae:	bf 01 00 00 00       	mov    $0x1,%edi
  4039b3:	66 48 0f 6e ef       	movq   %rdi,%xmm5
  4039b8:	66 0f 73 fd 08       	pslldq $0x8,%xmm5
  4039bd:	66 0f 6f 35 9b 46 00 	movdqa 0x469b(%rip),%xmm6        # 408060 <_IO_stdin_used+0xf40>
  4039c4:	00 
  4039c5:	66 44 0f 6f 05 a2 46 	movdqa 0x46a2(%rip),%xmm8        # 408070 <_IO_stdin_used+0xf50>
  4039cc:	00 00 
  4039ce:	66 44 0f 6f 0d a9 46 	movdqa 0x46a9(%rip),%xmm9        # 408080 <_IO_stdin_used+0xf60>
  4039d5:	00 00 
  4039d7:	66 44 0f 6f 15 b0 46 	movdqa 0x46b0(%rip),%xmm10        # 408090 <_IO_stdin_used+0xf70>
  4039de:	00 00 
  4039e0:	66 0f 6f 1d b8 46 00 	movdqa 0x46b8(%rip),%xmm3        # 4080a0 <_IO_stdin_used+0xf80>
  4039e7:	00 
  4039e8:	66 0f 6f 25 c0 46 00 	movdqa 0x46c0(%rip),%xmm4        # 4080b0 <_IO_stdin_used+0xf90>
  4039ef:	00 
  4039f0:	66 0f 6f c6          	movdqa %xmm6,%xmm0
  4039f4:	66 41 0f d4 c0       	paddq  %xmm8,%xmm0
  4039f9:	66 0f 6f fd          	movdqa %xmm5,%xmm7
  4039fd:	66 41 0f d4 f8       	paddq  %xmm8,%xmm7
  403a02:	66 0f 6f ce          	movdqa %xmm6,%xmm1
  403a06:	66 41 0f d4 c9       	paddq  %xmm9,%xmm1
  403a0b:	66 0f 6f d5          	movdqa %xmm5,%xmm2
  403a0f:	66 41 0f d4 d1       	paddq  %xmm9,%xmm2
  403a14:	66 48 0f 7e ef       	movq   %xmm5,%rdi
  403a19:	66 0f 70 ff e8       	pshufd $0xe8,%xmm7,%xmm7
  403a1e:	66 0f 70 c0 e8       	pshufd $0xe8,%xmm0,%xmm0
  403a23:	66 0f 6c f8          	punpcklqdq %xmm0,%xmm7
  403a27:	66 0f 70 c2 e8       	pshufd $0xe8,%xmm2,%xmm0
  403a2c:	66 0f 70 c9 e8       	pshufd $0xe8,%xmm1,%xmm1
  403a31:	66 0f 6c c1          	punpcklqdq %xmm1,%xmm0
  403a35:	f3 41 0f 7f 3c bf    	movdqu %xmm7,(%r15,%rdi,4)
  403a3b:	f3 41 0f 7f 44 bf 10 	movdqu %xmm0,0x10(%r15,%rdi,4)
  403a42:	66 0f 6f fd          	movdqa %xmm5,%xmm7
  403a46:	66 41 0f d4 fa       	paddq  %xmm10,%xmm7
  403a4b:	66 0f 6f c6          	movdqa %xmm6,%xmm0
  403a4f:	66 41 0f d4 c2       	paddq  %xmm10,%xmm0
  403a54:	66 0f 6f ce          	movdqa %xmm6,%xmm1
  403a58:	66 0f d4 cb          	paddq  %xmm3,%xmm1
  403a5c:	66 0f 6f d5          	movdqa %xmm5,%xmm2
  403a60:	66 0f d4 d3          	paddq  %xmm3,%xmm2
  403a64:	66 0f d4 f4          	paddq  %xmm4,%xmm6
  403a68:	66 0f d4 ec          	paddq  %xmm4,%xmm5
  403a6c:	66 0f 70 d2 e8       	pshufd $0xe8,%xmm2,%xmm2
  403a71:	66 0f 70 c9 e8       	pshufd $0xe8,%xmm1,%xmm1
  403a76:	66 0f 6c d1          	punpcklqdq %xmm1,%xmm2
  403a7a:	66 0f 70 cd e8       	pshufd $0xe8,%xmm5,%xmm1
  403a7f:	66 0f 70 ee e8       	pshufd $0xe8,%xmm6,%xmm5
  403a84:	66 0f 6c cd          	punpcklqdq %xmm5,%xmm1
  403a88:	f3 41 0f 7f 54 bf 20 	movdqu %xmm2,0x20(%r15,%rdi,4)
  403a8f:	f3 41 0f 7f 4c bf 30 	movdqu %xmm1,0x30(%r15,%rdi,4)
  403a96:	48 83 c6 02          	add    $0x2,%rsi
  403a9a:	66 0f 6f ef          	movdqa %xmm7,%xmm5
  403a9e:	66 0f 6f f0          	movdqa %xmm0,%xmm6
  403aa2:	0f 85 48 ff ff ff    	jne    4039f0 <gen_zipf+0xe0>
  403aa8:	eb 12                	jmp    403abc <gen_zipf+0x1ac>
  403aaa:	66 48 0f 6e fe       	movq   %rsi,%xmm7
  403aaf:	66 0f 73 ff 08       	pslldq $0x8,%xmm7
  403ab4:	66 0f 6f 05 a4 45 00 	movdqa 0x45a4(%rip),%xmm0        # 408060 <_IO_stdin_used+0xf40>
  403abb:	00 
  403abc:	48 85 d2             	test   %rdx,%rdx
  403abf:	74 52                	je     403b13 <gen_zipf+0x203>
  403ac1:	66 0f 6f 0d a7 45 00 	movdqa 0x45a7(%rip),%xmm1        # 408070 <_IO_stdin_used+0xf50>
  403ac8:	00 
  403ac9:	66 0f 6f d0          	movdqa %xmm0,%xmm2
  403acd:	66 0f d4 d1          	paddq  %xmm1,%xmm2
  403ad1:	66 0f d4 cf          	paddq  %xmm7,%xmm1
  403ad5:	66 0f 6f 1d a3 45 00 	movdqa 0x45a3(%rip),%xmm3        # 408080 <_IO_stdin_used+0xf60>
  403adc:	00 
  403add:	66 0f d4 c3          	paddq  %xmm3,%xmm0
  403ae1:	66 0f d4 df          	paddq  %xmm7,%xmm3
  403ae5:	66 48 0f 7e fa       	movq   %xmm7,%rdx
  403aea:	66 0f 70 c9 e8       	pshufd $0xe8,%xmm1,%xmm1
  403aef:	66 0f 70 d2 e8       	pshufd $0xe8,%xmm2,%xmm2
  403af4:	66 0f 6c ca          	punpcklqdq %xmm2,%xmm1
  403af8:	66 0f 70 d3 e8       	pshufd $0xe8,%xmm3,%xmm2
  403afd:	66 0f 70 c0 e8       	pshufd $0xe8,%xmm0,%xmm0
  403b02:	66 0f 6c d0          	punpcklqdq %xmm0,%xmm2
  403b06:	f3 41 0f 7f 0c 97    	movdqu %xmm1,(%r15,%rdx,4)
  403b0c:	f3 41 0f 7f 54 97 10 	movdqu %xmm2,0x10(%r15,%rdx,4)
  403b13:	48 39 c8             	cmp    %rcx,%rax
  403b16:	48 89 ca             	mov    %rcx,%rdx
  403b19:	74 21                	je     403b3c <gen_zipf+0x22c>
  403b1b:	49 8d 04 97          	lea    (%r15,%rdx,4),%rax
  403b1f:	89 e9                	mov    %ebp,%ecx
  403b21:	29 d1                	sub    %edx,%ecx
  403b23:	ff c2                	inc    %edx
  403b25:	66 66 2e 0f 1f 84 00 	data16 nopw %cs:0x0(%rax,%rax,1)
  403b2c:	00 00 00 00 
  403b30:	89 10                	mov    %edx,(%rax)
  403b32:	48 83 c0 04          	add    $0x4,%rax
  403b36:	ff c2                	inc    %edx
  403b38:	ff c9                	dec    %ecx
  403b3a:	75 f4                	jne    403b30 <gen_zipf+0x220>
  403b3c:	89 e8                	mov    %ebp,%eax
  403b3e:	ff c8                	dec    %eax
  403b40:	74 57                	je     403b99 <gen_zipf+0x289>
  403b42:	89 c5                	mov    %eax,%ebp
  403b44:	49 be 05 00 00 00 02 	movabs $0x200000005,%r14
  403b4b:	00 00 00 
  403b4e:	49 bc fc ff ff ff 03 	movabs $0x3fffffffc,%r12
  403b55:	00 00 00 
  403b58:	0f 1f 84 00 00 00 00 	nopl   0x0(%rax,%rax,1)
  403b5f:	00 
  403b60:	e8 8b d7 ff ff       	callq  4012f0 <rand@plt>
  403b65:	48 63 c8             	movslq %eax,%rcx
  403b68:	48 0f af cd          	imul   %rbp,%rcx
  403b6c:	48 89 c8             	mov    %rcx,%rax
  403b6f:	49 f7 e6             	mul    %r14
  403b72:	48 29 d1             	sub    %rdx,%rcx
  403b75:	48 d1 e9             	shr    %rcx
  403b78:	48 01 d1             	add    %rdx,%rcx
  403b7b:	48 c1 e9 1c          	shr    $0x1c,%rcx
  403b7f:	41 8b 04 af          	mov    (%r15,%rbp,4),%eax
  403b83:	4c 21 e1             	and    %r12,%rcx
  403b86:	41 8b 14 0f          	mov    (%r15,%rcx,1),%edx
  403b8a:	41 89 14 af          	mov    %edx,(%r15,%rbp,4)
  403b8e:	41 89 04 0f          	mov    %eax,(%r15,%rcx,1)
  403b92:	48 ff cd             	dec    %rbp
  403b95:	85 ed                	test   %ebp,%ebp
  403b97:	75 c7                	jne    403b60 <gen_zipf+0x250>
  403b99:	48 8b 3c 24          	mov    (%rsp),%rdi
  403b9d:	48 c1 e7 03          	shl    $0x3,%rdi
  403ba1:	e8 5a d6 ff ff       	callq  401200 <malloc@plt>
  403ba6:	48 89 c5             	mov    %rax,%rbp
  403ba9:	48 85 ed             	test   %rbp,%rbp
  403bac:	0f 84 f6 01 00 00    	je     403da8 <gen_zipf+0x498>
  403bb2:	4c 8b 74 24 08       	mov    0x8(%rsp),%r14
  403bb7:	45 85 f6             	test   %r14d,%r14d
  403bba:	0f 84 b6 00 00 00    	je     403c76 <gen_zipf+0x366>
  403bc0:	66 0f ef c9          	pxor   %xmm1,%xmm1
  403bc4:	bb 01 00 00 00       	mov    $0x1,%ebx
  403bc9:	0f 1f 80 00 00 00 00 	nopl   0x0(%rax)
  403bd0:	f2 0f 11 0c 24       	movsd  %xmm1,(%rsp)
  403bd5:	89 d8                	mov    %ebx,%eax
  403bd7:	0f 57 c0             	xorps  %xmm0,%xmm0
  403bda:	f2 48 0f 2a c0       	cvtsi2sd %rax,%xmm0
  403bdf:	f2 0f 10 4c 24 20    	movsd  0x20(%rsp),%xmm1
  403be5:	e8 46 d5 ff ff       	callq  401130 <pow@plt>
  403bea:	f2 0f 10 0d ce 44 00 	movsd  0x44ce(%rip),%xmm1        # 4080c0 <_IO_stdin_used+0xfa0>
  403bf1:	00 
  403bf2:	f2 0f 5e c8          	divsd  %xmm0,%xmm1
  403bf6:	f2 0f 10 04 24       	movsd  (%rsp),%xmm0
  403bfb:	f2 0f 58 c1          	addsd  %xmm1,%xmm0
  403bff:	f2 0f 11 04 24       	movsd  %xmm0,(%rsp)
  403c04:	f2 0f 10 0c 24       	movsd  (%rsp),%xmm1
  403c09:	ff c3                	inc    %ebx
  403c0b:	44 39 f3             	cmp    %r14d,%ebx
  403c0e:	76 c0                	jbe    403bd0 <gen_zipf+0x2c0>
  403c10:	66 0f 57 c9          	xorpd  %xmm1,%xmm1
  403c14:	bb 01 00 00 00       	mov    $0x1,%ebx
  403c19:	0f 1f 80 00 00 00 00 	nopl   0x0(%rax)
  403c20:	f2 0f 11 4c 24 10    	movsd  %xmm1,0x10(%rsp)
  403c26:	89 d8                	mov    %ebx,%eax
  403c28:	0f 57 c0             	xorps  %xmm0,%xmm0
  403c2b:	f2 48 0f 2a c0       	cvtsi2sd %rax,%xmm0
  403c30:	f2 0f 10 4c 24 20    	movsd  0x20(%rsp),%xmm1
  403c36:	e8 f5 d4 ff ff       	callq  401130 <pow@plt>
  403c3b:	f2 0f 10 0d 7d 44 00 	movsd  0x447d(%rip),%xmm1        # 4080c0 <_IO_stdin_used+0xfa0>
  403c42:	00 
  403c43:	f2 0f 5e c8          	divsd  %xmm0,%xmm1
  403c47:	f2 0f 10 44 24 10    	movsd  0x10(%rsp),%xmm0
  403c4d:	f2 0f 58 c1          	addsd  %xmm1,%xmm0
  403c51:	f2 0f 11 44 24 10    	movsd  %xmm0,0x10(%rsp)
  403c57:	f2 0f 10 4c 24 10    	movsd  0x10(%rsp),%xmm1
  403c5d:	66 0f 28 c1          	movapd %xmm1,%xmm0
  403c61:	f2 0f 5e 04 24       	divsd  (%rsp),%xmm0
  403c66:	8d 43 ff             	lea    -0x1(%rbx),%eax
  403c69:	f2 0f 11 44 c5 00    	movsd  %xmm0,0x0(%rbp,%rax,8)
  403c6f:	ff c3                	inc    %ebx
  403c71:	44 39 f3             	cmp    %r14d,%ebx
  403c74:	76 aa                	jbe    403c20 <gen_zipf+0x310>
  403c76:	48 8b 44 24 18       	mov    0x18(%rsp),%rax
  403c7b:	4c 8b 20             	mov    (%rax),%r12
  403c7e:	4d 85 e4             	test   %r12,%r12
  403c81:	75 18                	jne    403c9b <gen_zipf+0x38b>
  403c83:	44 89 ef             	mov    %r13d,%edi
  403c86:	48 c1 e7 03          	shl    $0x3,%rdi
  403c8a:	e8 71 d5 ff ff       	callq  401200 <malloc@plt>
  403c8f:	49 89 c4             	mov    %rax,%r12
  403c92:	4d 85 e4             	test   %r12,%r12
  403c95:	0f 84 26 01 00 00    	je     403dc1 <gen_zipf+0x4b1>
  403c9b:	45 85 ed             	test   %r13d,%r13d
  403c9e:	0f 84 c1 00 00 00    	je     403d65 <gen_zipf+0x455>
  403ca4:	48 8b 44 24 08       	mov    0x8(%rsp),%rax
  403ca9:	ff c8                	dec    %eax
  403cab:	f2 0f 10 45 00       	movsd  0x0(%rbp),%xmm0
  403cb0:	f2 0f 11 04 24       	movsd  %xmm0,(%rsp)
  403cb5:	83 f8 02             	cmp    $0x2,%eax
  403cb8:	72 64                	jb     403d1e <gen_zipf+0x40e>
  403cba:	48 89 c3             	mov    %rax,%rbx
  403cbd:	45 31 f6             	xor    %r14d,%r14d
  403cc0:	e8 2b d6 ff ff       	callq  4012f0 <rand@plt>
  403cc5:	0f 57 c0             	xorps  %xmm0,%xmm0
  403cc8:	f2 0f 2a c0          	cvtsi2sd %eax,%xmm0
  403ccc:	f2 0f 5e 05 e4 42 00 	divsd  0x42e4(%rip),%xmm0        # 407fb8 <_IO_stdin_used+0xe98>
  403cd3:	00 
  403cd4:	f2 0f 10 0c 24       	movsd  (%rsp),%xmm1
  403cd9:	66 0f 2e c8          	ucomisd %xmm0,%xmm1
  403cdd:	b8 00 00 00 00       	mov    $0x0,%eax
  403ce2:	73 26                	jae    403d0a <gen_zipf+0x3fa>
  403ce4:	31 c9                	xor    %ecx,%ecx
  403ce6:	89 d8                	mov    %ebx,%eax
  403ce8:	0f 1f 84 00 00 00 00 	nopl   0x0(%rax,%rax,1)
  403cef:	00 
  403cf0:	8d 14 08             	lea    (%rax,%rcx,1),%edx
  403cf3:	d1 ea                	shr    %edx
  403cf5:	66 0f 2e 44 d5 00    	ucomisd 0x0(%rbp,%rdx,8),%xmm0
  403cfb:	0f 47 ca             	cmova  %edx,%ecx
  403cfe:	0f 46 c2             	cmovbe %edx,%eax
  403d01:	89 c2                	mov    %eax,%edx
  403d03:	29 ca                	sub    %ecx,%edx
  403d05:	83 fa 01             	cmp    $0x1,%edx
  403d08:	77 e6                	ja     403cf0 <gen_zipf+0x3e0>
  403d0a:	89 c0                	mov    %eax,%eax
  403d0c:	41 8b 04 87          	mov    (%r15,%rax,4),%eax
  403d10:	43 89 04 f4          	mov    %eax,(%r12,%r14,8)
  403d14:	49 ff c6             	inc    %r14
  403d17:	45 39 ee             	cmp    %r13d,%r14d
  403d1a:	75 a4                	jne    403cc0 <gen_zipf+0x3b0>
  403d1c:	eb 47                	jmp    403d65 <gen_zipf+0x455>
  403d1e:	41 89 c6             	mov    %eax,%r14d
  403d21:	4c 89 e3             	mov    %r12,%rbx
  403d24:	66 66 66 2e 0f 1f 84 	data16 data16 nopw %cs:0x0(%rax,%rax,1)
  403d2b:	00 00 00 00 00 
  403d30:	e8 bb d5 ff ff       	callq  4012f0 <rand@plt>
  403d35:	0f 57 c0             	xorps  %xmm0,%xmm0
  403d38:	f2 0f 2a c0          	cvtsi2sd %eax,%xmm0
  403d3c:	f2 0f 5e 05 74 42 00 	divsd  0x4274(%rip),%xmm0        # 407fb8 <_IO_stdin_used+0xe98>
  403d43:	00 
  403d44:	f2 0f 10 0c 24       	movsd  (%rsp),%xmm1
  403d49:	66 0f 2e c8          	ucomisd %xmm0,%xmm1
  403d4d:	b8 00 00 00 00       	mov    $0x0,%eax
  403d52:	49 0f 42 c6          	cmovb  %r14,%rax
  403d56:	41 8b 04 87          	mov    (%r15,%rax,4),%eax
  403d5a:	89 03                	mov    %eax,(%rbx)
  403d5c:	48 83 c3 08          	add    $0x8,%rbx
  403d60:	41 ff cd             	dec    %r13d
  403d63:	75 cb                	jne    403d30 <gen_zipf+0x420>
  403d65:	48 89 ef             	mov    %rbp,%rdi
  403d68:	e8 c3 d2 ff ff       	callq  401030 <free@plt>
  403d6d:	4c 89 ff             	mov    %r15,%rdi
  403d70:	e8 bb d2 ff ff       	callq  401030 <free@plt>
  403d75:	48 8b 44 24 18       	mov    0x18(%rsp),%rax
  403d7a:	4c 89 20             	mov    %r12,(%rax)
  403d7d:	4c 89 e0             	mov    %r12,%rax
  403d80:	48 83 c4 28          	add    $0x28,%rsp
  403d84:	5b                   	pop    %rbx
  403d85:	41 5c                	pop    %r12
  403d87:	41 5d                	pop    %r13
  403d89:	41 5e                	pop    %r14
  403d8b:	41 5f                	pop    %r15
  403d8d:	5d                   	pop    %rbp
  403d8e:	c3                   	retq   
  403d8f:	bf c8 80 40 00       	mov    $0x4080c8,%edi
  403d94:	be d1 80 40 00       	mov    $0x4080d1,%esi
  403d99:	ba 23 00 00 00       	mov    $0x23,%edx
  403d9e:	b9 2a 81 40 00       	mov    $0x40812a,%ecx
  403da3:	e8 68 d3 ff ff       	callq  401110 <__assert_fail@plt>
  403da8:	bf 22 81 40 00       	mov    $0x408122,%edi
  403dad:	be d1 80 40 00       	mov    $0x4080d1,%esi
  403db2:	ba 45 00 00 00       	mov    $0x45,%edx
  403db7:	b9 4f 81 40 00       	mov    $0x40814f,%ecx
  403dbc:	e8 4f d3 ff ff       	callq  401110 <__assert_fail@plt>
  403dc1:	bf 26 81 40 00       	mov    $0x408126,%edi
  403dc6:	be d1 80 40 00       	mov    $0x4080d1,%esi
  403dcb:	ba 75 00 00 00       	mov    $0x75,%edx
  403dd0:	b9 e2 80 40 00       	mov    $0x4080e2,%ecx
  403dd5:	e8 36 d3 ff ff       	callq  401110 <__assert_fail@plt>
  403dda:	66 0f 1f 44 00 00    	nopw   0x0(%rax,%rax,1)

0000000000403de0 <PCM_initPerformanceMonitor>:
  403de0:	c3                   	retq   
  403de1:	66 66 66 66 66 66 2e 	data16 data16 data16 data16 data16 nopw %cs:0x0(%rax,%rax,1)
  403de8:	0f 1f 84 00 00 00 00 
  403def:	00 

0000000000403df0 <PCM_start>:
  403df0:	c3                   	retq   
  403df1:	66 66 66 66 66 66 2e 	data16 data16 data16 data16 data16 nopw %cs:0x0(%rax,%rax,1)
  403df8:	0f 1f 84 00 00 00 00 
  403dff:	00 

0000000000403e00 <PCM_stop>:
  403e00:	c3                   	retq   
  403e01:	66 66 66 66 66 66 2e 	data16 data16 data16 data16 data16 nopw %cs:0x0(%rax,%rax,1)
  403e08:	0f 1f 84 00 00 00 00 
  403e0f:	00 

0000000000403e10 <PCM_printResults>:
  403e10:	c3                   	retq   
  403e11:	66 66 66 66 66 66 2e 	data16 data16 data16 data16 data16 nopw %cs:0x0(%rax,%rax,1)
  403e18:	0f 1f 84 00 00 00 00 
  403e1f:	00 

0000000000403e20 <PCM_cleanup>:
  403e20:	c3                   	retq   
  403e21:	66 66 66 66 66 66 2e 	data16 data16 data16 data16 data16 nopw %cs:0x0(%rax,%rax,1)
  403e28:	0f 1f 84 00 00 00 00 
  403e2f:	00 

0000000000403e30 <PCM_accumulate>:
  403e30:	c3                   	retq   
  403e31:	66 66 66 66 66 66 2e 	data16 data16 data16 data16 data16 nopw %cs:0x0(%rax,%rax,1)
  403e38:	0f 1f 84 00 00 00 00 
  403e3f:	00 

0000000000403e40 <PCM_printAccumulators>:
  403e40:	c3                   	retq   
  403e41:	66 66 66 66 66 66 2e 	data16 data16 data16 data16 data16 nopw %cs:0x0(%rax,%rax,1)
  403e48:	0f 1f 84 00 00 00 00 
  403e4f:	00 

0000000000403e50 <PCM_log>:
  403e50:	c3                   	retq   
  403e51:	66 2e 0f 1f 84 00 00 	nopw   %cs:0x0(%rax,%rax,1)
  403e58:	00 00 00 
  403e5b:	0f 1f 44 00 00       	nopl   0x0(%rax,%rax,1)

0000000000403e60 <get_cpu_id>:
  403e60:	55                   	push   %rbp
  403e61:	41 57                	push   %r15
  403e63:	41 56                	push   %r14
  403e65:	53                   	push   %rbx
  403e66:	50                   	push   %rax
  403e67:	41 89 fe             	mov    %edi,%r14d
  403e6a:	8a 05 50 69 20 00    	mov    0x206950(%rip),%al        # 60a7c0 <inited>
  403e70:	84 c0                	test   %al,%al
  403e72:	0f 85 5e 02 00 00    	jne    4040d6 <get_cpu_id+0x276>
  403e78:	bf 10 82 40 00       	mov    $0x408210,%edi
  403e7d:	be 20 82 40 00       	mov    $0x408220,%esi
  403e82:	e8 b9 d3 ff ff       	callq  401240 <fopen@plt>
  403e87:	49 89 c7             	mov    %rax,%r15
  403e8a:	4d 85 ff             	test   %r15,%r15
  403e8d:	74 77                	je     403f06 <get_cpu_id+0xa6>
  403e8f:	be 22 82 40 00       	mov    $0x408222,%esi
  403e94:	ba c4 a7 60 00       	mov    $0x60a7c4,%edx
  403e99:	31 c0                	xor    %eax,%eax
  403e9b:	4c 89 ff             	mov    %r15,%rdi
  403e9e:	e8 bd d1 ff ff       	callq  401060 <__isoc99_fscanf@plt>
  403ea3:	85 c0                	test   %eax,%eax
  403ea5:	0f 8e b6 00 00 00    	jle    403f61 <get_cpu_id+0x101>
  403eab:	83 3d 12 69 20 00 00 	cmpl   $0x0,0x206912(%rip)        # 60a7c4 <max_cpus>
  403eb2:	7e 45                	jle    403ef9 <get_cpu_id+0x99>
  403eb4:	bd d0 a7 60 00       	mov    $0x60a7d0,%ebp
  403eb9:	31 db                	xor    %ebx,%ebx
  403ebb:	eb 13                	jmp    403ed0 <get_cpu_id+0x70>
  403ebd:	bf 25 82 40 00       	mov    $0x408225,%edi
  403ec2:	e8 89 d3 ff ff       	callq  401250 <perror@plt>
  403ec7:	eb 1d                	jmp    403ee6 <get_cpu_id+0x86>
  403ec9:	0f 1f 80 00 00 00 00 	nopl   0x0(%rax)
  403ed0:	be 22 82 40 00       	mov    $0x408222,%esi
  403ed5:	31 c0                	xor    %eax,%eax
  403ed7:	4c 89 ff             	mov    %r15,%rdi
  403eda:	48 89 ea             	mov    %rbp,%rdx
  403edd:	e8 7e d1 ff ff       	callq  401060 <__isoc99_fscanf@plt>
  403ee2:	85 c0                	test   %eax,%eax
  403ee4:	7e d7                	jle    403ebd <get_cpu_id+0x5d>
  403ee6:	48 ff c3             	inc    %rbx
  403ee9:	48 63 05 d4 68 20 00 	movslq 0x2068d4(%rip),%rax        # 60a7c4 <max_cpus>
  403ef0:	48 83 c5 04          	add    $0x4,%rbp
  403ef4:	48 39 c3             	cmp    %rax,%rbx
  403ef7:	7c d7                	jl     403ed0 <get_cpu_id+0x70>
  403ef9:	4c 89 ff             	mov    %r15,%rdi
  403efc:	e8 bf d1 ff ff       	callq  4010c0 <fclose@plt>
  403f01:	e9 c9 01 00 00       	jmpq   4040cf <get_cpu_id+0x26f>
  403f06:	bf 54 00 00 00       	mov    $0x54,%edi
  403f0b:	e8 50 d3 ff ff       	callq  401260 <sysconf@plt>
  403f10:	89 05 ae 68 20 00    	mov    %eax,0x2068ae(%rip)        # 60a7c4 <max_cpus>
  403f16:	85 c0                	test   %eax,%eax
  403f18:	0f 8e b1 01 00 00    	jle    4040cf <get_cpu_id+0x26f>
  403f1e:	48 98                	cltq   
  403f20:	31 d2                	xor    %edx,%edx
  403f22:	48 83 f8 08          	cmp    $0x8,%rax
  403f26:	0f 82 94 01 00 00    	jb     4040c0 <get_cpu_id+0x260>
  403f2c:	31 d2                	xor    %edx,%edx
  403f2e:	48 89 c1             	mov    %rax,%rcx
  403f31:	48 83 e1 f8          	and    $0xfffffffffffffff8,%rcx
  403f35:	0f 84 85 01 00 00    	je     4040c0 <get_cpu_id+0x260>
  403f3b:	48 8d 79 f8          	lea    -0x8(%rcx),%rdi
  403f3f:	48 89 fd             	mov    %rdi,%rbp
  403f42:	48 c1 ed 03          	shr    $0x3,%rbp
  403f46:	8d 55 01             	lea    0x1(%rbp),%edx
  403f49:	83 e2 03             	and    $0x3,%edx
  403f4c:	31 f6                	xor    %esi,%esi
  403f4e:	48 83 ff 18          	cmp    $0x18,%rdi
  403f52:	73 1c                	jae    403f70 <get_cpu_id+0x110>
  403f54:	66 0f 6f 05 24 42 00 	movdqa 0x4224(%rip),%xmm0        # 408180 <_IO_stdin_used+0x1060>
  403f5b:	00 
  403f5c:	e9 05 01 00 00       	jmpq   404066 <get_cpu_id+0x206>
  403f61:	bf 25 82 40 00       	mov    $0x408225,%edi
  403f66:	e8 e5 d2 ff ff       	callq  401250 <perror@plt>
  403f6b:	e9 3b ff ff ff       	jmpq   403eab <get_cpu_id+0x4b>
  403f70:	48 8d 7a ff          	lea    -0x1(%rdx),%rdi
  403f74:	48 29 ef             	sub    %rbp,%rdi
  403f77:	66 0f 6f 05 01 42 00 	movdqa 0x4201(%rip),%xmm0        # 408180 <_IO_stdin_used+0x1060>
  403f7e:	00 
  403f7f:	31 f6                	xor    %esi,%esi
  403f81:	66 44 0f 6f 05 06 42 	movdqa 0x4206(%rip),%xmm8        # 408190 <_IO_stdin_used+0x1070>
  403f88:	00 00 
  403f8a:	66 44 0f 6f 0d 0d 42 	movdqa 0x420d(%rip),%xmm9        # 4081a0 <_IO_stdin_used+0x1080>
  403f91:	00 00 
  403f93:	66 44 0f 6f 15 14 42 	movdqa 0x4214(%rip),%xmm10        # 4081b0 <_IO_stdin_used+0x1090>
  403f9a:	00 00 
  403f9c:	66 44 0f 6f 1d 1b 42 	movdqa 0x421b(%rip),%xmm11        # 4081c0 <_IO_stdin_used+0x10a0>
  403fa3:	00 00 
  403fa5:	66 0f 6f 2d 23 42 00 	movdqa 0x4223(%rip),%xmm5        # 4081d0 <_IO_stdin_used+0x10b0>
  403fac:	00 
  403fad:	66 0f 6f 35 2b 42 00 	movdqa 0x422b(%rip),%xmm6        # 4081e0 <_IO_stdin_used+0x10c0>
  403fb4:	00 
  403fb5:	66 0f 6f 3d 33 42 00 	movdqa 0x4233(%rip),%xmm7        # 4081f0 <_IO_stdin_used+0x10d0>
  403fbc:	00 
  403fbd:	66 0f 6f 0d 3b 42 00 	movdqa 0x423b(%rip),%xmm1        # 408200 <_IO_stdin_used+0x10e0>
  403fc4:	00 
  403fc5:	66 66 2e 0f 1f 84 00 	data16 nopw %cs:0x0(%rax,%rax,1)
  403fcc:	00 00 00 00 
  403fd0:	66 0f 6f d0          	movdqa %xmm0,%xmm2
  403fd4:	66 41 0f fe d0       	paddd  %xmm8,%xmm2
  403fd9:	66 0f 6f d8          	movdqa %xmm0,%xmm3
  403fdd:	66 41 0f fe d9       	paddd  %xmm9,%xmm3
  403fe2:	66 0f 7f 04 b5 d0 a7 	movdqa %xmm0,0x60a7d0(,%rsi,4)
  403fe9:	60 00 
  403feb:	66 0f 7f 14 b5 e0 a7 	movdqa %xmm2,0x60a7e0(,%rsi,4)
  403ff2:	60 00 
  403ff4:	66 0f 6f d0          	movdqa %xmm0,%xmm2
  403ff8:	66 41 0f fe d2       	paddd  %xmm10,%xmm2
  403ffd:	66 0f 6f e0          	movdqa %xmm0,%xmm4
  404001:	66 41 0f fe e3       	paddd  %xmm11,%xmm4
  404006:	66 0f 7f 1c b5 f0 a7 	movdqa %xmm3,0x60a7f0(,%rsi,4)
  40400d:	60 00 
  40400f:	66 0f 7f 14 b5 00 a8 	movdqa %xmm2,0x60a800(,%rsi,4)
  404016:	60 00 
  404018:	66 0f 6f d0          	movdqa %xmm0,%xmm2
  40401c:	66 0f fe d5          	paddd  %xmm5,%xmm2
  404020:	66 0f 6f d8          	movdqa %xmm0,%xmm3
  404024:	66 0f fe de          	paddd  %xmm6,%xmm3
  404028:	66 0f 7f 24 b5 10 a8 	movdqa %xmm4,0x60a810(,%rsi,4)
  40402f:	60 00 
  404031:	66 0f 7f 14 b5 20 a8 	movdqa %xmm2,0x60a820(,%rsi,4)
  404038:	60 00 
  40403a:	66 0f 6f d0          	movdqa %xmm0,%xmm2
  40403e:	66 0f fe d7          	paddd  %xmm7,%xmm2
  404042:	66 0f fe c1          	paddd  %xmm1,%xmm0
  404046:	66 0f 7f 1c b5 30 a8 	movdqa %xmm3,0x60a830(,%rsi,4)
  40404d:	60 00 
  40404f:	66 0f 7f 14 b5 40 a8 	movdqa %xmm2,0x60a840(,%rsi,4)
  404056:	60 00 
  404058:	48 8d 76 20          	lea    0x20(%rsi),%rsi
  40405c:	48 83 c7 04          	add    $0x4,%rdi
  404060:	0f 85 6a ff ff ff    	jne    403fd0 <get_cpu_id+0x170>
  404066:	48 85 d2             	test   %rdx,%rdx
  404069:	74 43                	je     4040ae <get_cpu_id+0x24e>
  40406b:	48 8d 34 b5 e0 a7 60 	lea    0x60a7e0(,%rsi,4),%rsi
  404072:	00 
  404073:	48 f7 da             	neg    %rdx
  404076:	66 0f 6f 0d 12 41 00 	movdqa 0x4112(%rip),%xmm1        # 408190 <_IO_stdin_used+0x1070>
  40407d:	00 
  40407e:	66 0f 6f 15 1a 41 00 	movdqa 0x411a(%rip),%xmm2        # 4081a0 <_IO_stdin_used+0x1080>
  404085:	00 
  404086:	66 2e 0f 1f 84 00 00 	nopw   %cs:0x0(%rax,%rax,1)
  40408d:	00 00 00 
  404090:	66 0f 6f d8          	movdqa %xmm0,%xmm3
  404094:	66 0f fe d9          	paddd  %xmm1,%xmm3
  404098:	66 0f 7f 46 f0       	movdqa %xmm0,-0x10(%rsi)
  40409d:	66 0f fe c2          	paddd  %xmm2,%xmm0
  4040a1:	66 0f 7f 1e          	movdqa %xmm3,(%rsi)
  4040a5:	48 83 c6 20          	add    $0x20,%rsi
  4040a9:	48 ff c2             	inc    %rdx
  4040ac:	75 e2                	jne    404090 <get_cpu_id+0x230>
  4040ae:	48 39 c8             	cmp    %rcx,%rax
  4040b1:	48 89 ca             	mov    %rcx,%rdx
  4040b4:	74 19                	je     4040cf <get_cpu_id+0x26f>
  4040b6:	66 2e 0f 1f 84 00 00 	nopw   %cs:0x0(%rax,%rax,1)
  4040bd:	00 00 00 
  4040c0:	89 14 95 d0 a7 60 00 	mov    %edx,0x60a7d0(,%rdx,4)
  4040c7:	48 ff c2             	inc    %rdx
  4040ca:	48 39 d0             	cmp    %rdx,%rax
  4040cd:	75 f1                	jne    4040c0 <get_cpu_id+0x260>
  4040cf:	c6 05 ea 66 20 00 01 	movb   $0x1,0x2066ea(%rip)        # 60a7c0 <inited>
  4040d6:	44 89 f0             	mov    %r14d,%eax
  4040d9:	99                   	cltd   
  4040da:	f7 3d e4 66 20 00    	idivl  0x2066e4(%rip)        # 60a7c4 <max_cpus>
  4040e0:	48 63 c2             	movslq %edx,%rax
  4040e3:	8b 04 85 d0 a7 60 00 	mov    0x60a7d0(,%rax,4),%eax
  4040ea:	48 83 c4 08          	add    $0x8,%rsp
  4040ee:	5b                   	pop    %rbx
  4040ef:	41 5e                	pop    %r14
  4040f1:	41 5f                	pop    %r15
  4040f3:	5d                   	pop    %rbp
  4040f4:	c3                   	retq   
  4040f5:	66 2e 0f 1f 84 00 00 	nopw   %cs:0x0(%rax,%rax,1)
  4040fc:	00 00 00 
  4040ff:	90                   	nop

0000000000404100 <task_queue_init>:
  404100:	55                   	push   %rbp
  404101:	41 56                	push   %r14
  404103:	53                   	push   %rbx
  404104:	41 89 fe             	mov    %edi,%r14d
  404107:	bf 68 00 00 00       	mov    $0x68,%edi
  40410c:	e8 ef d0 ff ff       	callq  401200 <malloc@plt>
  404111:	48 89 c3             	mov    %rax,%rbx
  404114:	bf 18 00 00 00       	mov    $0x18,%edi
  404119:	e8 e2 d0 ff ff       	callq  401200 <malloc@plt>
  40411e:	48 89 c5             	mov    %rax,%rbp
  404121:	48 89 6b 58          	mov    %rbp,0x58(%rbx)
  404125:	4d 63 f6             	movslq %r14d,%r14
  404128:	4a 8d 04 f5 00 00 00 	lea    0x0(,%r14,8),%rax
  40412f:	00 
  404130:	48 8d 3c c0          	lea    (%rax,%rax,8),%rdi
  404134:	e8 c7 d0 ff ff       	callq  401200 <malloc@plt>
  404139:	48 89 45 00          	mov    %rax,0x0(%rbp)
  40413d:	c7 45 10 00 00 00 00 	movl   $0x0,0x10(%rbp)
  404144:	48 c7 45 08 00 00 00 	movq   $0x0,0x8(%rbp)
  40414b:	00 
  40414c:	c7 43 60 00 00 00 00 	movl   $0x0,0x60(%rbx)
  404153:	44 89 73 64          	mov    %r14d,0x64(%rbx)
  404157:	48 c7 43 50 00 00 00 	movq   $0x0,0x50(%rbx)
  40415e:	00 
  40415f:	31 f6                	xor    %esi,%esi
  404161:	48 89 df             	mov    %rbx,%rdi
  404164:	e8 67 d1 ff ff       	callq  4012d0 <pthread_mutex_init@plt>
  404169:	48 8d 7b 28          	lea    0x28(%rbx),%rdi
  40416d:	31 f6                	xor    %esi,%esi
  40416f:	e8 5c d1 ff ff       	callq  4012d0 <pthread_mutex_init@plt>
  404174:	48 89 d8             	mov    %rbx,%rax
  404177:	5b                   	pop    %rbx
  404178:	41 5e                	pop    %r14
  40417a:	5d                   	pop    %rbp
  40417b:	c3                   	retq   
  40417c:	0f 1f 40 00          	nopl   0x0(%rax)

0000000000404180 <task_queue_free>:
  404180:	41 57                	push   %r15
  404182:	41 56                	push   %r14
  404184:	53                   	push   %rbx
  404185:	49 89 fe             	mov    %rdi,%r14
  404188:	49 8b 5e 58          	mov    0x58(%r14),%rbx
  40418c:	48 85 db             	test   %rbx,%rbx
  40418f:	74 2b                	je     4041bc <task_queue_free+0x3c>
  404191:	66 66 66 66 66 66 2e 	data16 data16 data16 data16 data16 nopw %cs:0x0(%rax,%rax,1)
  404198:	0f 1f 84 00 00 00 00 
  40419f:	00 
  4041a0:	48 8b 3b             	mov    (%rbx),%rdi
  4041a3:	e8 88 ce ff ff       	callq  401030 <free@plt>
  4041a8:	4c 8b 7b 08          	mov    0x8(%rbx),%r15
  4041ac:	48 89 df             	mov    %rbx,%rdi
  4041af:	e8 7c ce ff ff       	callq  401030 <free@plt>
  4041b4:	4d 85 ff             	test   %r15,%r15
  4041b7:	4c 89 fb             	mov    %r15,%rbx
  4041ba:	75 e4                	jne    4041a0 <task_queue_free+0x20>
  4041bc:	4c 89 f7             	mov    %r14,%rdi
  4041bf:	5b                   	pop    %rbx
  4041c0:	41 5e                	pop    %r14
  4041c2:	41 5f                	pop    %r15
  4041c4:	e9 67 ce ff ff       	jmpq   401030 <free@plt>
  4041c9:	0f 1f 80 00 00 00 00 	nopl   0x0(%rax)

00000000004041d0 <bucket_chaining_join>:
  4041d0:	55                   	push   %rbp
  4041d1:	41 57                	push   %r15
  4041d3:	41 56                	push   %r14
  4041d5:	41 55                	push   %r13
  4041d7:	41 54                	push   %r12
  4041d9:	53                   	push   %rbx
  4041da:	50                   	push   %rax
  4041db:	49 89 f6             	mov    %rsi,%r14
  4041de:	49 89 fc             	mov    %rdi,%r12
  4041e1:	41 8b 6c 24 08       	mov    0x8(%r12),%ebp
  4041e6:	8d 45 ff             	lea    -0x1(%rbp),%eax
  4041e9:	89 c1                	mov    %eax,%ecx
  4041eb:	d1 e9                	shr    %ecx
  4041ed:	09 c1                	or     %eax,%ecx
  4041ef:	89 c8                	mov    %ecx,%eax
  4041f1:	c1 e8 02             	shr    $0x2,%eax
  4041f4:	09 c8                	or     %ecx,%eax
  4041f6:	89 c1                	mov    %eax,%ecx
  4041f8:	c1 e9 04             	shr    $0x4,%ecx
  4041fb:	09 c1                	or     %eax,%ecx
  4041fd:	89 c8                	mov    %ecx,%eax
  4041ff:	c1 e8 08             	shr    $0x8,%eax
  404202:	09 c8                	or     %ecx,%eax
  404204:	41 89 c5             	mov    %eax,%r13d
  404207:	41 c1 ed 10          	shr    $0x10,%r13d
  40420b:	41 09 c5             	or     %eax,%r13d
  40420e:	41 8d 5d 01          	lea    0x1(%r13),%ebx
  404212:	41 c1 e5 0e          	shl    $0xe,%r13d
  404216:	48 8d 3c ad 00 00 00 	lea    0x0(,%rbp,4),%rdi
  40421d:	00 
  40421e:	e8 dd cf ff ff       	callq  401200 <malloc@plt>
  404223:	49 89 c7             	mov    %rax,%r15
  404226:	be 04 00 00 00       	mov    $0x4,%esi
  40422b:	48 89 df             	mov    %rbx,%rdi
  40422e:	e8 5d cf ff ff       	callq  401190 <calloc@plt>
  404233:	48 85 ed             	test   %rbp,%rbp
  404236:	49 8b 0c 24          	mov    (%r12),%rcx
  40423a:	74 60                	je     40429c <bucket_chaining_join+0xcc>
  40423c:	89 ee                	mov    %ebp,%esi
  40423e:	83 e6 01             	and    $0x1,%esi
  404241:	31 d2                	xor    %edx,%edx
  404243:	83 fd 01             	cmp    $0x1,%ebp
  404246:	74 3b                	je     404283 <bucket_chaining_join+0xb3>
  404248:	29 f5                	sub    %esi,%ebp
  40424a:	31 d2                	xor    %edx,%edx
  40424c:	0f 1f 40 00          	nopl   0x0(%rax)
  404250:	8b 3c d1             	mov    (%rcx,%rdx,8),%edi
  404253:	44 21 ef             	and    %r13d,%edi
  404256:	c1 ef 0e             	shr    $0xe,%edi
  404259:	8b 1c b8             	mov    (%rax,%rdi,4),%ebx
  40425c:	41 89 1c 97          	mov    %ebx,(%r15,%rdx,4)
  404260:	8d 5a 01             	lea    0x1(%rdx),%ebx
  404263:	89 1c b8             	mov    %ebx,(%rax,%rdi,4)
  404266:	8b 7c d1 08          	mov    0x8(%rcx,%rdx,8),%edi
  40426a:	44 21 ef             	and    %r13d,%edi
  40426d:	c1 ef 0e             	shr    $0xe,%edi
  404270:	8b 1c b8             	mov    (%rax,%rdi,4),%ebx
  404273:	41 89 5c 97 04       	mov    %ebx,0x4(%r15,%rdx,4)
  404278:	48 83 c2 02          	add    $0x2,%rdx
  40427c:	89 14 b8             	mov    %edx,(%rax,%rdi,4)
  40427f:	39 d5                	cmp    %edx,%ebp
  404281:	75 cd                	jne    404250 <bucket_chaining_join+0x80>
  404283:	85 f6                	test   %esi,%esi
  404285:	74 15                	je     40429c <bucket_chaining_join+0xcc>
  404287:	8b 34 d1             	mov    (%rcx,%rdx,8),%esi
  40428a:	44 21 ee             	and    %r13d,%esi
  40428d:	c1 ee 0e             	shr    $0xe,%esi
  404290:	8b 3c b0             	mov    (%rax,%rsi,4),%edi
  404293:	41 89 3c 97          	mov    %edi,(%r15,%rdx,4)
  404297:	ff c2                	inc    %edx
  404299:	89 14 b0             	mov    %edx,(%rax,%rsi,4)
  40429c:	45 8b 46 08          	mov    0x8(%r14),%r8d
  4042a0:	31 db                	xor    %ebx,%ebx
  4042a2:	45 85 c0             	test   %r8d,%r8d
  4042a5:	74 4a                	je     4042f1 <bucket_chaining_join+0x121>
  4042a7:	4d 8b 0e             	mov    (%r14),%r9
  4042aa:	31 ff                	xor    %edi,%edi
  4042ac:	31 db                	xor    %ebx,%ebx
  4042ae:	66 90                	xchg   %ax,%ax
  4042b0:	41 8b 2c f9          	mov    (%r9,%rdi,8),%ebp
  4042b4:	89 ea                	mov    %ebp,%edx
  4042b6:	44 21 ea             	and    %r13d,%edx
  4042b9:	c1 ea 0e             	shr    $0xe,%edx
  4042bc:	8b 14 90             	mov    (%rax,%rdx,4),%edx
  4042bf:	eb 24                	jmp    4042e5 <bucket_chaining_join+0x115>
  4042c1:	66 66 66 66 66 66 2e 	data16 data16 data16 data16 data16 nopw %cs:0x0(%rax,%rax,1)
  4042c8:	0f 1f 84 00 00 00 00 
  4042cf:	00 
  4042d0:	48 63 d2             	movslq %edx,%rdx
  4042d3:	31 f6                	xor    %esi,%esi
  4042d5:	3b 6c d1 f8          	cmp    -0x8(%rcx,%rdx,8),%ebp
  4042d9:	40 0f 94 c6          	sete   %sil
  4042dd:	48 01 f3             	add    %rsi,%rbx
  4042e0:	41 8b 54 97 fc       	mov    -0x4(%r15,%rdx,4),%edx
  4042e5:	85 d2                	test   %edx,%edx
  4042e7:	7f e7                	jg     4042d0 <bucket_chaining_join+0x100>
  4042e9:	48 ff c7             	inc    %rdi
  4042ec:	44 39 c7             	cmp    %r8d,%edi
  4042ef:	75 bf                	jne    4042b0 <bucket_chaining_join+0xe0>
  4042f1:	48 89 c7             	mov    %rax,%rdi
  4042f4:	e8 37 cd ff ff       	callq  401030 <free@plt>
  4042f9:	4c 89 ff             	mov    %r15,%rdi
  4042fc:	e8 2f cd ff ff       	callq  401030 <free@plt>
  404301:	48 89 d8             	mov    %rbx,%rax
  404304:	48 83 c4 08          	add    $0x8,%rsp
  404308:	5b                   	pop    %rbx
  404309:	41 5c                	pop    %r12
  40430b:	41 5d                	pop    %r13
  40430d:	41 5e                	pop    %r14
  40430f:	41 5f                	pop    %r15
  404311:	5d                   	pop    %rbp
  404312:	c3                   	retq   
  404313:	66 66 66 66 2e 0f 1f 	data16 data16 data16 nopw %cs:0x0(%rax,%rax,1)
  40431a:	84 00 00 00 00 00 

0000000000404320 <histogram_join>:
  404320:	55                   	push   %rbp
  404321:	41 57                	push   %r15
  404323:	41 56                	push   %r14
  404325:	41 55                	push   %r13
  404327:	41 54                	push   %r12
  404329:	53                   	push   %rbx
  40432a:	50                   	push   %rax
  40432b:	49 89 d7             	mov    %rdx,%r15
  40432e:	48 89 34 24          	mov    %rsi,(%rsp)
  404332:	48 8b 1f             	mov    (%rdi),%rbx
  404335:	44 8b 67 08          	mov    0x8(%rdi),%r12d
  404339:	45 8d 74 24 ff       	lea    -0x1(%r12),%r14d
  40433e:	44 89 f0             	mov    %r14d,%eax
  404341:	d1 e8                	shr    %eax
  404343:	44 09 f0             	or     %r14d,%eax
  404346:	89 c1                	mov    %eax,%ecx
  404348:	c1 e9 02             	shr    $0x2,%ecx
  40434b:	09 c1                	or     %eax,%ecx
  40434d:	89 c8                	mov    %ecx,%eax
  40434f:	c1 e8 04             	shr    $0x4,%eax
  404352:	09 c8                	or     %ecx,%eax
  404354:	89 c1                	mov    %eax,%ecx
  404356:	c1 e9 08             	shr    $0x8,%ecx
  404359:	09 c1                	or     %eax,%ecx
  40435b:	89 c8                	mov    %ecx,%eax
  40435d:	c1 e8 10             	shr    $0x10,%eax
  404360:	09 c8                	or     %ecx,%eax
  404362:	ff c0                	inc    %eax
  404364:	c1 e8 02             	shr    $0x2,%eax
  404367:	83 f8 04             	cmp    $0x4,%eax
  40436a:	bd 04 00 00 00       	mov    $0x4,%ebp
  40436f:	0f 43 e8             	cmovae %eax,%ebp
  404372:	41 89 ed             	mov    %ebp,%r13d
  404375:	41 c1 e5 0e          	shl    $0xe,%r13d
  404379:	41 81 c5 00 c0 ff ff 	add    $0xffffc000,%r13d
  404380:	8d 7d 02             	lea    0x2(%rbp),%edi
  404383:	be 04 00 00 00       	mov    $0x4,%esi
  404388:	e8 03 ce ff ff       	callq  401190 <calloc@plt>
  40438d:	45 85 e4             	test   %r12d,%r12d
  404390:	74 58                	je     4043ea <histogram_join+0xca>
  404392:	44 89 e1             	mov    %r12d,%ecx
  404395:	83 e1 01             	and    $0x1,%ecx
  404398:	31 d2                	xor    %edx,%edx
  40439a:	45 85 f6             	test   %r14d,%r14d
  40439d:	74 38                	je     4043d7 <histogram_join+0xb7>
  40439f:	44 89 e6             	mov    %r12d,%esi
  4043a2:	29 ce                	sub    %ecx,%esi
  4043a4:	31 d2                	xor    %edx,%edx
  4043a6:	66 2e 0f 1f 84 00 00 	nopw   %cs:0x0(%rax,%rax,1)
  4043ad:	00 00 00 
  4043b0:	8b 3c d3             	mov    (%rbx,%rdx,8),%edi
  4043b3:	44 21 ef             	and    %r13d,%edi
  4043b6:	c1 ef 0e             	shr    $0xe,%edi
  4043b9:	83 c7 02             	add    $0x2,%edi
  4043bc:	ff 04 b8             	incl   (%rax,%rdi,4)
  4043bf:	8b 7c d3 08          	mov    0x8(%rbx,%rdx,8),%edi
  4043c3:	44 21 ef             	and    %r13d,%edi
  4043c6:	c1 ef 0e             	shr    $0xe,%edi
  4043c9:	83 c7 02             	add    $0x2,%edi
  4043cc:	ff 04 b8             	incl   (%rax,%rdi,4)
  4043cf:	48 83 c2 02          	add    $0x2,%rdx
  4043d3:	39 d6                	cmp    %edx,%esi
  4043d5:	75 d9                	jne    4043b0 <histogram_join+0x90>
  4043d7:	85 c9                	test   %ecx,%ecx
  4043d9:	74 0f                	je     4043ea <histogram_join+0xca>
  4043db:	8b 0c d3             	mov    (%rbx,%rdx,8),%ecx
  4043de:	44 21 e9             	and    %r13d,%ecx
  4043e1:	c1 e9 0e             	shr    $0xe,%ecx
  4043e4:	83 c1 02             	add    $0x2,%ecx
  4043e7:	ff 04 88             	incl   (%rax,%rcx,4)
  4043ea:	8d 4d 01             	lea    0x1(%rbp),%ecx
  4043ed:	83 f9 02             	cmp    $0x2,%ecx
  4043f0:	72 7b                	jb     40446d <histogram_join+0x14d>
  4043f2:	89 ef                	mov    %ebp,%edi
  4043f4:	48 8d 6f ff          	lea    -0x1(%rdi),%rbp
  4043f8:	89 f9                	mov    %edi,%ecx
  4043fa:	83 e1 03             	and    $0x3,%ecx
  4043fd:	31 d2                	xor    %edx,%edx
  4043ff:	be 02 00 00 00       	mov    $0x2,%esi
  404404:	48 83 fd 03          	cmp    $0x3,%rbp
  404408:	72 43                	jb     40444d <histogram_join+0x12d>
  40440a:	48 29 cf             	sub    %rcx,%rdi
  40440d:	31 f6                	xor    %esi,%esi
  40440f:	31 d2                	xor    %edx,%edx
  404411:	66 66 66 66 66 66 2e 	data16 data16 data16 data16 data16 nopw %cs:0x0(%rax,%rax,1)
  404418:	0f 1f 84 00 00 00 00 
  40441f:	00 
  404420:	03 54 b0 08          	add    0x8(%rax,%rsi,4),%edx
  404424:	89 54 b0 08          	mov    %edx,0x8(%rax,%rsi,4)
  404428:	03 54 b0 0c          	add    0xc(%rax,%rsi,4),%edx
  40442c:	89 54 b0 0c          	mov    %edx,0xc(%rax,%rsi,4)
  404430:	03 54 b0 10          	add    0x10(%rax,%rsi,4),%edx
  404434:	89 54 b0 10          	mov    %edx,0x10(%rax,%rsi,4)
  404438:	03 54 b0 14          	add    0x14(%rax,%rsi,4),%edx
  40443c:	89 54 b0 14          	mov    %edx,0x14(%rax,%rsi,4)
  404440:	48 83 c6 04          	add    $0x4,%rsi
  404444:	48 39 f7             	cmp    %rsi,%rdi
  404447:	75 d7                	jne    404420 <histogram_join+0x100>
  404449:	48 83 c6 02          	add    $0x2,%rsi
  40444d:	48 85 c9             	test   %rcx,%rcx
  404450:	74 1b                	je     40446d <histogram_join+0x14d>
  404452:	48 8d 34 b0          	lea    (%rax,%rsi,4),%rsi
  404456:	48 f7 d9             	neg    %rcx
  404459:	0f 1f 80 00 00 00 00 	nopl   0x0(%rax)
  404460:	03 16                	add    (%rsi),%edx
  404462:	89 16                	mov    %edx,(%rsi)
  404464:	48 83 c6 04          	add    $0x4,%rsi
  404468:	48 ff c1             	inc    %rcx
  40446b:	75 f3                	jne    404460 <histogram_join+0x140>
  40446d:	45 85 e4             	test   %r12d,%r12d
  404470:	4d 8b 37             	mov    (%r15),%r14
  404473:	0f 84 7e 00 00 00    	je     4044f7 <histogram_join+0x1d7>
  404479:	45 89 e0             	mov    %r12d,%r8d
  40447c:	41 83 e0 01          	and    $0x1,%r8d
  404480:	31 d2                	xor    %edx,%edx
  404482:	41 83 fc 01          	cmp    $0x1,%r12d
  404486:	74 4d                	je     4044d5 <histogram_join+0x1b5>
  404488:	45 29 c4             	sub    %r8d,%r12d
  40448b:	31 d2                	xor    %edx,%edx
  40448d:	0f 1f 00             	nopl   (%rax)
  404490:	8b 3c d3             	mov    (%rbx,%rdx,8),%edi
  404493:	44 21 ef             	and    %r13d,%edi
  404496:	c1 ef 0e             	shr    $0xe,%edi
  404499:	ff c7                	inc    %edi
  40449b:	48 63 2c b8          	movslq (%rax,%rdi,4),%rbp
  40449f:	48 8b 34 d3          	mov    (%rbx,%rdx,8),%rsi
  4044a3:	49 89 34 ee          	mov    %rsi,(%r14,%rbp,8)
  4044a7:	8d 75 01             	lea    0x1(%rbp),%esi
  4044aa:	89 34 b8             	mov    %esi,(%rax,%rdi,4)
  4044ad:	8b 74 d3 08          	mov    0x8(%rbx,%rdx,8),%esi
  4044b1:	44 21 ee             	and    %r13d,%esi
  4044b4:	c1 ee 0e             	shr    $0xe,%esi
  4044b7:	ff c6                	inc    %esi
  4044b9:	48 63 3c b0          	movslq (%rax,%rsi,4),%rdi
  4044bd:	48 8b 6c d3 08       	mov    0x8(%rbx,%rdx,8),%rbp
  4044c2:	49 89 2c fe          	mov    %rbp,(%r14,%rdi,8)
  4044c6:	8d 7f 01             	lea    0x1(%rdi),%edi
  4044c9:	89 3c b0             	mov    %edi,(%rax,%rsi,4)
  4044cc:	48 83 c2 02          	add    $0x2,%rdx
  4044d0:	41 39 d4             	cmp    %edx,%r12d
  4044d3:	75 bb                	jne    404490 <histogram_join+0x170>
  4044d5:	45 85 c0             	test   %r8d,%r8d
  4044d8:	74 1d                	je     4044f7 <histogram_join+0x1d7>
  4044da:	8b 34 d3             	mov    (%rbx,%rdx,8),%esi
  4044dd:	44 21 ee             	and    %r13d,%esi
  4044e0:	c1 ee 0e             	shr    $0xe,%esi
  4044e3:	ff c6                	inc    %esi
  4044e5:	48 63 3c b0          	movslq (%rax,%rsi,4),%rdi
  4044e9:	48 8b 14 d3          	mov    (%rbx,%rdx,8),%rdx
  4044ed:	49 89 14 fe          	mov    %rdx,(%r14,%rdi,8)
  4044f1:	8d 57 01             	lea    0x1(%rdi),%edx
  4044f4:	89 14 b0             	mov    %edx,(%rax,%rsi,4)
  4044f7:	48 8b 0c 24          	mov    (%rsp),%rcx
  4044fb:	44 8b 49 08          	mov    0x8(%rcx),%r9d
  4044ff:	31 db                	xor    %ebx,%ebx
  404501:	45 85 c9             	test   %r9d,%r9d
  404504:	0f 84 c4 00 00 00    	je     4045ce <histogram_join+0x2ae>
  40450a:	4c 8b 01             	mov    (%rcx),%r8
  40450d:	45 31 d2             	xor    %r10d,%r10d
  404510:	31 db                	xor    %ebx,%ebx
  404512:	66 66 66 66 66 2e 0f 	data16 data16 data16 data16 nopw %cs:0x0(%rax,%rax,1)
  404519:	1f 84 00 00 00 00 00 
  404520:	43 8b 34 d0          	mov    (%r8,%r10,8),%esi
  404524:	89 f2                	mov    %esi,%edx
  404526:	44 21 ea             	and    %r13d,%edx
  404529:	c1 ea 0e             	shr    $0xe,%edx
  40452c:	48 63 2c 90          	movslq (%rax,%rdx,4),%rbp
  404530:	ff c2                	inc    %edx
  404532:	44 8b 1c 90          	mov    (%rax,%rdx,4),%r11d
  404536:	41 39 eb             	cmp    %ebp,%r11d
  404539:	0f 8e 83 00 00 00    	jle    4045c2 <histogram_join+0x2a2>
  40453f:	44 89 da             	mov    %r11d,%edx
  404542:	29 ea                	sub    %ebp,%edx
  404544:	41 8d 7b ff          	lea    -0x1(%r11),%edi
  404548:	29 ef                	sub    %ebp,%edi
  40454a:	83 e2 03             	and    $0x3,%edx
  40454d:	83 ff 03             	cmp    $0x3,%edi
  404550:	72 4a                	jb     40459c <histogram_join+0x27c>
  404552:	8d 7c 15 00          	lea    0x0(%rbp,%rdx,1),%edi
  404556:	44 29 df             	sub    %r11d,%edi
  404559:	0f 1f 80 00 00 00 00 	nopl   0x0(%rax)
  404560:	31 c9                	xor    %ecx,%ecx
  404562:	41 3b 34 ee          	cmp    (%r14,%rbp,8),%esi
  404566:	0f 94 c1             	sete   %cl
  404569:	48 01 d9             	add    %rbx,%rcx
  40456c:	31 db                	xor    %ebx,%ebx
  40456e:	41 3b 74 ee 08       	cmp    0x8(%r14,%rbp,8),%esi
  404573:	0f 94 c3             	sete   %bl
  404576:	48 01 cb             	add    %rcx,%rbx
  404579:	31 c9                	xor    %ecx,%ecx
  40457b:	41 3b 74 ee 10       	cmp    0x10(%r14,%rbp,8),%esi
  404580:	0f 94 c1             	sete   %cl
  404583:	48 01 d9             	add    %rbx,%rcx
  404586:	31 db                	xor    %ebx,%ebx
  404588:	41 3b 74 ee 18       	cmp    0x18(%r14,%rbp,8),%esi
  40458d:	0f 94 c3             	sete   %bl
  404590:	48 01 cb             	add    %rcx,%rbx
  404593:	48 83 c5 04          	add    $0x4,%rbp
  404597:	83 c7 04             	add    $0x4,%edi
  40459a:	75 c4                	jne    404560 <histogram_join+0x240>
  40459c:	85 d2                	test   %edx,%edx
  40459e:	74 22                	je     4045c2 <histogram_join+0x2a2>
  4045a0:	49 8d 3c ee          	lea    (%r14,%rbp,8),%rdi
  4045a4:	f7 da                	neg    %edx
  4045a6:	66 2e 0f 1f 84 00 00 	nopw   %cs:0x0(%rax,%rax,1)
  4045ad:	00 00 00 
  4045b0:	31 c9                	xor    %ecx,%ecx
  4045b2:	3b 37                	cmp    (%rdi),%esi
  4045b4:	0f 94 c1             	sete   %cl
  4045b7:	48 01 cb             	add    %rcx,%rbx
  4045ba:	48 83 c7 08          	add    $0x8,%rdi
  4045be:	ff c2                	inc    %edx
  4045c0:	75 ee                	jne    4045b0 <histogram_join+0x290>
  4045c2:	49 ff c2             	inc    %r10
  4045c5:	45 39 ca             	cmp    %r9d,%r10d
  4045c8:	0f 85 52 ff ff ff    	jne    404520 <histogram_join+0x200>
  4045ce:	48 89 c7             	mov    %rax,%rdi
  4045d1:	e8 5a ca ff ff       	callq  401030 <free@plt>
  4045d6:	48 89 d8             	mov    %rbx,%rax
  4045d9:	48 83 c4 08          	add    $0x8,%rsp
  4045dd:	5b                   	pop    %rbx
  4045de:	41 5c                	pop    %r12
  4045e0:	41 5d                	pop    %r13
  4045e2:	41 5e                	pop    %r14
  4045e4:	41 5f                	pop    %r15
  4045e6:	5d                   	pop    %rbp
  4045e7:	c3                   	retq   
  4045e8:	0f 1f 84 00 00 00 00 	nopl   0x0(%rax,%rax,1)
  4045ef:	00 

00000000004045f0 <histogram_optimized_join>:
  4045f0:	31 c0                	xor    %eax,%eax
  4045f2:	c3                   	retq   
  4045f3:	66 66 66 66 2e 0f 1f 	data16 data16 data16 nopw %cs:0x0(%rax,%rax,1)
  4045fa:	84 00 00 00 00 00 

0000000000404600 <radix_cluster>:
  404600:	55                   	push   %rbp
  404601:	48 89 e5             	mov    %rsp,%rbp
  404604:	41 57                	push   %r15
  404606:	41 56                	push   %r14
  404608:	41 55                	push   %r13
  40460a:	41 54                	push   %r12
  40460c:	53                   	push   %rbx
  40460d:	50                   	push   %rax
  40460e:	41 89 c9             	mov    %ecx,%r9d
  404611:	41 bb 01 00 00 00    	mov    $0x1,%r11d
  404617:	44 89 c1             	mov    %r8d,%ecx
  40461a:	41 d3 e3             	shl    %cl,%r11d
  40461d:	45 8d 43 ff          	lea    -0x1(%r11),%r8d
  404621:	44 89 c9             	mov    %r9d,%ecx
  404624:	41 d3 e0             	shl    %cl,%r8d
  404627:	4a 8d 04 9d 0f 00 00 	lea    0xf(,%r11,4),%rax
  40462e:	00 
  40462f:	48 b9 f0 ff ff ff 07 	movabs $0x7fffffff0,%rcx
  404636:	00 00 00 
  404639:	48 21 c1             	and    %rax,%rcx
  40463c:	49 89 e5             	mov    %rsp,%r13
  40463f:	49 29 cd             	sub    %rcx,%r13
  404642:	4c 89 ec             	mov    %r13,%rsp
  404645:	44 8b 56 08          	mov    0x8(%rsi),%r10d
  404649:	4d 85 d2             	test   %r10,%r10
  40464c:	74 5b                	je     4046a9 <radix_cluster+0xa9>
  40464e:	4c 8b 3e             	mov    (%rsi),%r15
  404651:	45 89 d6             	mov    %r10d,%r14d
  404654:	41 83 e6 01          	and    $0x1,%r14d
  404658:	31 db                	xor    %ebx,%ebx
  40465a:	41 83 fa 01          	cmp    $0x1,%r10d
  40465e:	74 35                	je     404695 <radix_cluster+0x95>
  404660:	4d 89 d4             	mov    %r10,%r12
  404663:	4d 29 f4             	sub    %r14,%r12
  404666:	31 db                	xor    %ebx,%ebx
  404668:	0f 1f 84 00 00 00 00 	nopl   0x0(%rax,%rax,1)
  40466f:	00 
  404670:	41 8b 04 df          	mov    (%r15,%rbx,8),%eax
  404674:	44 21 c0             	and    %r8d,%eax
  404677:	44 89 c9             	mov    %r9d,%ecx
  40467a:	d3 e8                	shr    %cl,%eax
  40467c:	ff 04 82             	incl   (%rdx,%rax,4)
  40467f:	41 8b 44 df 08       	mov    0x8(%r15,%rbx,8),%eax
  404684:	44 21 c0             	and    %r8d,%eax
  404687:	d3 e8                	shr    %cl,%eax
  404689:	ff 04 82             	incl   (%rdx,%rax,4)
  40468c:	48 83 c3 02          	add    $0x2,%rbx
  404690:	49 39 dc             	cmp    %rbx,%r12
  404693:	75 db                	jne    404670 <radix_cluster+0x70>
  404695:	4d 85 f6             	test   %r14,%r14
  404698:	74 0f                	je     4046a9 <radix_cluster+0xa9>
  40469a:	41 8b 04 df          	mov    (%r15,%rbx,8),%eax
  40469e:	44 21 c0             	and    %r8d,%eax
  4046a1:	44 89 c9             	mov    %r9d,%ecx
  4046a4:	d3 e8                	shr    %cl,%eax
  4046a6:	ff 04 82             	incl   (%rdx,%rax,4)
  4046a9:	45 31 f6             	xor    %r14d,%r14d
  4046ac:	31 db                	xor    %ebx,%ebx
  4046ae:	31 c0                	xor    %eax,%eax
  4046b0:	41 8d 0c 06          	lea    (%r14,%rax,1),%ecx
  4046b4:	41 89 4c 9d 00       	mov    %ecx,0x0(%r13,%rbx,4)
  4046b9:	03 04 9a             	add    (%rdx,%rbx,4),%eax
  4046bc:	48 ff c3             	inc    %rbx
  4046bf:	41 83 c6 18          	add    $0x18,%r14d
  4046c3:	4c 39 db             	cmp    %r11,%rbx
  4046c6:	72 e8                	jb     4046b0 <radix_cluster+0xb0>
  4046c8:	45 85 d2             	test   %r10d,%r10d
  4046cb:	0f 84 8e 00 00 00    	je     40475f <radix_cluster+0x15f>
  4046d1:	48 8b 16             	mov    (%rsi),%rdx
  4046d4:	48 8b 37             	mov    (%rdi),%rsi
  4046d7:	45 89 d3             	mov    %r10d,%r11d
  4046da:	41 83 e3 01          	and    $0x1,%r11d
  4046de:	31 ff                	xor    %edi,%edi
  4046e0:	41 83 fa 01          	cmp    $0x1,%r10d
  4046e4:	74 55                	je     40473b <radix_cluster+0x13b>
  4046e6:	4d 29 da             	sub    %r11,%r10
  4046e9:	31 ff                	xor    %edi,%edi
  4046eb:	0f 1f 44 00 00       	nopl   0x0(%rax,%rax,1)
  4046f0:	8b 04 fa             	mov    (%rdx,%rdi,8),%eax
  4046f3:	44 21 c0             	and    %r8d,%eax
  4046f6:	44 89 c9             	mov    %r9d,%ecx
  4046f9:	d3 e8                	shr    %cl,%eax
  4046fb:	41 8b 4c 85 00       	mov    0x0(%r13,%rax,4),%ecx
  404700:	48 8b 1c fa          	mov    (%rdx,%rdi,8),%rbx
  404704:	48 89 1c ce          	mov    %rbx,(%rsi,%rcx,8)
  404708:	8d 49 01             	lea    0x1(%rcx),%ecx
  40470b:	41 89 4c 85 00       	mov    %ecx,0x0(%r13,%rax,4)
  404710:	8b 44 fa 08          	mov    0x8(%rdx,%rdi,8),%eax
  404714:	44 21 c0             	and    %r8d,%eax
  404717:	44 89 c9             	mov    %r9d,%ecx
  40471a:	d3 e8                	shr    %cl,%eax
  40471c:	41 8b 4c 85 00       	mov    0x0(%r13,%rax,4),%ecx
  404721:	48 8b 5c fa 08       	mov    0x8(%rdx,%rdi,8),%rbx
  404726:	48 89 1c ce          	mov    %rbx,(%rsi,%rcx,8)
  40472a:	8d 49 01             	lea    0x1(%rcx),%ecx
  40472d:	41 89 4c 85 00       	mov    %ecx,0x0(%r13,%rax,4)
  404732:	48 83 c7 02          	add    $0x2,%rdi
  404736:	49 39 fa             	cmp    %rdi,%r10
  404739:	75 b5                	jne    4046f0 <radix_cluster+0xf0>
  40473b:	4d 85 db             	test   %r11,%r11
  40473e:	74 1f                	je     40475f <radix_cluster+0x15f>
  404740:	44 23 04 fa          	and    (%rdx,%rdi,8),%r8d
  404744:	44 89 c9             	mov    %r9d,%ecx
  404747:	41 d3 e8             	shr    %cl,%r8d
  40474a:	43 8b 44 85 00       	mov    0x0(%r13,%r8,4),%eax
  40474f:	48 8b 0c fa          	mov    (%rdx,%rdi,8),%rcx
  404753:	48 89 0c c6          	mov    %rcx,(%rsi,%rax,8)
  404757:	8d 40 01             	lea    0x1(%rax),%eax
  40475a:	43 89 44 85 00       	mov    %eax,0x0(%r13,%r8,4)
  40475f:	48 8d 65 d8          	lea    -0x28(%rbp),%rsp
  404763:	5b                   	pop    %rbx
  404764:	41 5c                	pop    %r12
  404766:	41 5d                	pop    %r13
  404768:	41 5e                	pop    %r14
  40476a:	41 5f                	pop    %r15
  40476c:	5d                   	pop    %rbp
  40476d:	c3                   	retq   
  40476e:	66 90                	xchg   %ax,%ax

0000000000404770 <radix_cluster_nopadding>:
  404770:	55                   	push   %rbp
  404771:	41 57                	push   %r15
  404773:	41 56                	push   %r14
  404775:	41 55                	push   %r13
  404777:	41 54                	push   %r12
  404779:	53                   	push   %rbx
  40477a:	50                   	push   %rax
  40477b:	41 89 d6             	mov    %edx,%r14d
  40477e:	49 89 f4             	mov    %rsi,%r12
  404781:	48 89 3c 24          	mov    %rdi,(%rsp)
  404785:	bd 01 00 00 00       	mov    $0x1,%ebp
  40478a:	d3 e5                	shl    %cl,%ebp
  40478c:	44 8d 6d ff          	lea    -0x1(%rbp),%r13d
  404790:	44 89 f1             	mov    %r14d,%ecx
  404793:	41 d3 e5             	shl    %cl,%r13d
  404796:	41 8b 5c 24 08       	mov    0x8(%r12),%ebx
  40479b:	be 04 00 00 00       	mov    $0x4,%esi
  4047a0:	48 89 ef             	mov    %rbp,%rdi
  4047a3:	e8 e8 c9 ff ff       	callq  401190 <calloc@plt>
  4047a8:	49 89 c7             	mov    %rax,%r15
  4047ab:	48 8d 3c ed 00 00 00 	lea    0x0(,%rbp,8),%rdi
  4047b2:	00 
  4047b3:	e8 48 ca ff ff       	callq  401200 <malloc@plt>
  4047b8:	41 89 d9             	mov    %ebx,%r9d
  4047bb:	49 8b 14 24          	mov    (%r12),%rdx
  4047bf:	45 85 c9             	test   %r9d,%r9d
  4047c2:	74 52                	je     404816 <radix_cluster_nopadding+0xa6>
  4047c4:	45 89 c8             	mov    %r9d,%r8d
  4047c7:	41 83 e0 01          	and    $0x1,%r8d
  4047cb:	41 83 f9 01          	cmp    $0x1,%r9d
  4047cf:	48 89 d7             	mov    %rdx,%rdi
  4047d2:	74 2f                	je     404803 <radix_cluster_nopadding+0x93>
  4047d4:	44 89 c6             	mov    %r8d,%esi
  4047d7:	44 29 ce             	sub    %r9d,%esi
  4047da:	48 89 d7             	mov    %rdx,%rdi
  4047dd:	0f 1f 00             	nopl   (%rax)
  4047e0:	8b 1f                	mov    (%rdi),%ebx
  4047e2:	44 21 eb             	and    %r13d,%ebx
  4047e5:	44 89 f1             	mov    %r14d,%ecx
  4047e8:	d3 eb                	shr    %cl,%ebx
  4047ea:	41 ff 04 9f          	incl   (%r15,%rbx,4)
  4047ee:	8b 5f 08             	mov    0x8(%rdi),%ebx
  4047f1:	44 21 eb             	and    %r13d,%ebx
  4047f4:	d3 eb                	shr    %cl,%ebx
  4047f6:	41 ff 04 9f          	incl   (%r15,%rbx,4)
  4047fa:	48 83 c7 10          	add    $0x10,%rdi
  4047fe:	83 c6 02             	add    $0x2,%esi
  404801:	75 dd                	jne    4047e0 <radix_cluster_nopadding+0x70>
  404803:	45 85 c0             	test   %r8d,%r8d
  404806:	74 0e                	je     404816 <radix_cluster_nopadding+0xa6>
  404808:	8b 37                	mov    (%rdi),%esi
  40480a:	44 21 ee             	and    %r13d,%esi
  40480d:	44 89 f1             	mov    %r14d,%ecx
  404810:	d3 ee                	shr    %cl,%esi
  404812:	41 ff 04 b7          	incl   (%r15,%rsi,4)
  404816:	48 8b 0c 24          	mov    (%rsp),%rcx
  40481a:	48 8b 09             	mov    (%rcx),%rcx
  40481d:	31 f6                	xor    %esi,%esi
  40481f:	31 ff                	xor    %edi,%edi
  404821:	66 66 66 66 66 66 2e 	data16 data16 data16 data16 data16 nopw %cs:0x0(%rax,%rax,1)
  404828:	0f 1f 84 00 00 00 00 
  40482f:	00 
  404830:	89 fb                	mov    %edi,%ebx
  404832:	48 8d 1c d9          	lea    (%rcx,%rbx,8),%rbx
  404836:	48 89 1c f0          	mov    %rbx,(%rax,%rsi,8)
  40483a:	41 03 3c b7          	add    (%r15,%rsi,4),%edi
  40483e:	48 ff c6             	inc    %rsi
  404841:	48 39 ee             	cmp    %rbp,%rsi
  404844:	72 ea                	jb     404830 <radix_cluster_nopadding+0xc0>
  404846:	45 85 c9             	test   %r9d,%r9d
  404849:	74 77                	je     4048c2 <radix_cluster_nopadding+0x152>
  40484b:	44 89 ce             	mov    %r9d,%esi
  40484e:	83 e6 01             	and    $0x1,%esi
  404851:	41 83 f9 01          	cmp    $0x1,%r9d
  404855:	74 4c                	je     4048a3 <radix_cluster_nopadding+0x133>
  404857:	89 f7                	mov    %esi,%edi
  404859:	44 29 cf             	sub    %r9d,%edi
  40485c:	0f 1f 40 00          	nopl   0x0(%rax)
  404860:	8b 2a                	mov    (%rdx),%ebp
  404862:	44 21 ed             	and    %r13d,%ebp
  404865:	44 89 f1             	mov    %r14d,%ecx
  404868:	d3 ed                	shr    %cl,%ebp
  40486a:	48 8b 0c e8          	mov    (%rax,%rbp,8),%rcx
  40486e:	48 8b 1a             	mov    (%rdx),%rbx
  404871:	48 89 19             	mov    %rbx,(%rcx)
  404874:	48 83 c1 08          	add    $0x8,%rcx
  404878:	48 89 0c e8          	mov    %rcx,(%rax,%rbp,8)
  40487c:	8b 6a 08             	mov    0x8(%rdx),%ebp
  40487f:	44 21 ed             	and    %r13d,%ebp
  404882:	44 89 f1             	mov    %r14d,%ecx
  404885:	d3 ed                	shr    %cl,%ebp
  404887:	48 8b 0c e8          	mov    (%rax,%rbp,8),%rcx
  40488b:	48 8b 5a 08          	mov    0x8(%rdx),%rbx
  40488f:	48 89 19             	mov    %rbx,(%rcx)
  404892:	48 83 c1 08          	add    $0x8,%rcx
  404896:	48 89 0c e8          	mov    %rcx,(%rax,%rbp,8)
  40489a:	48 83 c2 10          	add    $0x10,%rdx
  40489e:	83 c7 02             	add    $0x2,%edi
  4048a1:	75 bd                	jne    404860 <radix_cluster_nopadding+0xf0>
  4048a3:	85 f6                	test   %esi,%esi
  4048a5:	74 1b                	je     4048c2 <radix_cluster_nopadding+0x152>
  4048a7:	44 23 2a             	and    (%rdx),%r13d
  4048aa:	44 89 f1             	mov    %r14d,%ecx
  4048ad:	41 d3 ed             	shr    %cl,%r13d
  4048b0:	4a 8b 0c e8          	mov    (%rax,%r13,8),%rcx
  4048b4:	48 8b 12             	mov    (%rdx),%rdx
  4048b7:	48 89 11             	mov    %rdx,(%rcx)
  4048ba:	48 83 c1 08          	add    $0x8,%rcx
  4048be:	4a 89 0c e8          	mov    %rcx,(%rax,%r13,8)
  4048c2:	48 89 c7             	mov    %rax,%rdi
  4048c5:	e8 66 c7 ff ff       	callq  401030 <free@plt>
  4048ca:	4c 89 ff             	mov    %r15,%rdi
  4048cd:	48 83 c4 08          	add    $0x8,%rsp
  4048d1:	5b                   	pop    %rbx
  4048d2:	41 5c                	pop    %r12
  4048d4:	41 5d                	pop    %r13
  4048d6:	41 5e                	pop    %r14
  4048d8:	41 5f                	pop    %r15
  4048da:	5d                   	pop    %rbp
  4048db:	e9 50 c7 ff ff       	jmpq   401030 <free@plt>

00000000004048e0 <serial_radix_partition>:
  4048e0:	55                   	push   %rbp
  4048e1:	41 57                	push   %r15
  4048e3:	41 56                	push   %r14
  4048e5:	41 55                	push   %r13
  4048e7:	41 54                	push   %r12
  4048e9:	53                   	push   %rbx
  4048ea:	48 83 ec 48          	sub    $0x48,%rsp
  4048ee:	41 89 cd             	mov    %ecx,%r13d
  4048f1:	41 89 d7             	mov    %edx,%r15d
  4048f4:	48 89 74 24 10       	mov    %rsi,0x10(%rsp)
  4048f9:	48 89 fb             	mov    %rdi,%rbx
  4048fc:	41 be 01 00 00 00    	mov    $0x1,%r14d
  404902:	41 d3 e6             	shl    %cl,%r14d
  404905:	41 8d 46 01          	lea    0x1(%r14),%eax
  404909:	48 63 e8             	movslq %eax,%rbp
  40490c:	be 04 00 00 00       	mov    $0x4,%esi
  404911:	48 89 ef             	mov    %rbp,%rdi
  404914:	e8 77 c8 ff ff       	callq  401190 <calloc@plt>
  404919:	be 04 00 00 00       	mov    $0x4,%esi
  40491e:	48 89 ef             	mov    %rbp,%rdi
  404921:	48 89 c5             	mov    %rax,%rbp
  404924:	e8 67 c8 ff ff       	callq  401190 <calloc@plt>
  404929:	49 89 c4             	mov    %rax,%r12
  40492c:	48 8d 7b 10          	lea    0x10(%rbx),%rdi
  404930:	48 89 de             	mov    %rbx,%rsi
  404933:	48 89 ea             	mov    %rbp,%rdx
  404936:	44 89 f9             	mov    %r15d,%ecx
  404939:	45 89 e8             	mov    %r13d,%r8d
  40493c:	e8 bf fc ff ff       	callq  404600 <radix_cluster>
  404941:	48 8d 7b 30          	lea    0x30(%rbx),%rdi
  404945:	48 89 5c 24 40       	mov    %rbx,0x40(%rsp)
  40494a:	48 8d 73 20          	lea    0x20(%rbx),%rsi
  40494e:	4c 89 64 24 20       	mov    %r12,0x20(%rsp)
  404953:	4c 89 e2             	mov    %r12,%rdx
  404956:	44 89 f9             	mov    %r15d,%ecx
  404959:	45 89 e8             	mov    %r13d,%r8d
  40495c:	e8 9f fc ff ff       	callq  404600 <radix_cluster>
  404961:	41 83 fd 1f          	cmp    $0x1f,%r13d
  404965:	0f 84 8d 01 00 00    	je     404af8 <serial_radix_partition+0x218>
  40496b:	48 8b 44 24 10       	mov    0x10(%rsp),%rax
  404970:	48 8d 40 28          	lea    0x28(%rax),%rax
  404974:	48 89 44 24 18       	mov    %rax,0x18(%rsp)
  404979:	49 63 ce             	movslq %r14d,%rcx
  40497c:	45 31 ed             	xor    %r13d,%r13d
  40497f:	45 31 e4             	xor    %r12d,%r12d
  404982:	45 31 ff             	xor    %r15d,%r15d
  404985:	45 31 f6             	xor    %r14d,%r14d
  404988:	48 89 6c 24 38       	mov    %rbp,0x38(%rsp)
  40498d:	48 89 4c 24 30       	mov    %rcx,0x30(%rsp)
  404992:	66 66 66 66 66 2e 0f 	data16 data16 data16 data16 nopw %cs:0x0(%rax,%rax,1)
  404999:	1f 84 00 00 00 00 00 
  4049a0:	42 8b 5c a5 00       	mov    0x0(%rbp,%r12,4),%ebx
  4049a5:	48 8b 44 24 20       	mov    0x20(%rsp),%rax
  4049aa:	42 8b 04 a0          	mov    (%rax,%r12,4),%eax
  4049ae:	85 db                	test   %ebx,%ebx
  4049b0:	0f 8e 29 01 00 00    	jle    404adf <serial_radix_partition+0x1ff>
  4049b6:	85 c0                	test   %eax,%eax
  4049b8:	0f 8e 21 01 00 00    	jle    404adf <serial_radix_partition+0x1ff>
  4049be:	89 44 24 0c          	mov    %eax,0xc(%rsp)
  4049c2:	48 8b 7c 24 18       	mov    0x18(%rsp),%rdi
  4049c7:	e8 14 c9 ff ff       	callq  4012e0 <pthread_mutex_lock@plt>
  4049cc:	48 8b 4c 24 10       	mov    0x10(%rsp),%rcx
  4049d1:	48 8b 51 58          	mov    0x58(%rcx),%rdx
  4049d5:	48 63 42 10          	movslq 0x10(%rdx),%rax
  4049d9:	48 63 69 64          	movslq 0x64(%rcx),%rbp
  4049dd:	39 e8                	cmp    %ebp,%eax
  4049df:	89 5c 24 08          	mov    %ebx,0x8(%rsp)
  4049e3:	7d 1b                	jge    404a00 <serial_radix_partition+0x120>
  4049e5:	48 8d 2c c0          	lea    (%rax,%rax,8),%rbp
  4049e9:	48 c1 e5 03          	shl    $0x3,%rbp
  4049ed:	48 03 2a             	add    (%rdx),%rbp
  4049f0:	8d 40 01             	lea    0x1(%rax),%eax
  4049f3:	89 42 10             	mov    %eax,0x10(%rdx)
  4049f6:	eb 52                	jmp    404a4a <serial_radix_partition+0x16a>
  4049f8:	0f 1f 84 00 00 00 00 	nopl   0x0(%rax,%rax,1)
  4049ff:	00 
  404a00:	bf 18 00 00 00       	mov    $0x18,%edi
  404a05:	48 89 54 24 28       	mov    %rdx,0x28(%rsp)
  404a0a:	e8 f1 c7 ff ff       	callq  401200 <malloc@plt>
  404a0f:	44 89 fb             	mov    %r15d,%ebx
  404a12:	49 89 c7             	mov    %rax,%r15
  404a15:	48 c1 e5 03          	shl    $0x3,%rbp
  404a19:	48 8d 7c ed 00       	lea    0x0(%rbp,%rbp,8),%rdi
  404a1e:	e8 dd c7 ff ff       	callq  401200 <malloc@plt>
  404a23:	48 89 c5             	mov    %rax,%rbp
  404a26:	49 89 2f             	mov    %rbp,(%r15)
  404a29:	41 c7 47 10 01 00 00 	movl   $0x1,0x10(%r15)
  404a30:	00 
  404a31:	48 8b 44 24 28       	mov    0x28(%rsp),%rax
  404a36:	49 89 47 08          	mov    %rax,0x8(%r15)
  404a3a:	48 8b 44 24 10       	mov    0x10(%rsp),%rax
  404a3f:	4c 89 78 58          	mov    %r15,0x58(%rax)
  404a43:	41 89 df             	mov    %ebx,%r15d
  404a46:	8b 5c 24 08          	mov    0x8(%rsp),%ebx
  404a4a:	48 8b 7c 24 18       	mov    0x18(%rsp),%rdi
  404a4f:	e8 9c c7 ff ff       	callq  4011f0 <pthread_mutex_unlock@plt>
  404a54:	89 5d 08             	mov    %ebx,0x8(%rbp)
  404a57:	44 89 f8             	mov    %r15d,%eax
  404a5a:	48 c1 e0 03          	shl    $0x3,%rax
  404a5e:	48 8b 54 24 40       	mov    0x40(%rsp),%rdx
  404a63:	48 8b 4a 10          	mov    0x10(%rdx),%rcx
  404a67:	48 01 c1             	add    %rax,%rcx
  404a6a:	4c 01 e9             	add    %r13,%rcx
  404a6d:	48 89 4d 00          	mov    %rcx,0x0(%rbp)
  404a71:	48 03 02             	add    (%rdx),%rax
  404a74:	4c 01 e8             	add    %r13,%rax
  404a77:	48 89 45 10          	mov    %rax,0x10(%rbp)
  404a7b:	8b 44 24 0c          	mov    0xc(%rsp),%eax
  404a7f:	89 45 28             	mov    %eax,0x28(%rbp)
  404a82:	44 89 f0             	mov    %r14d,%eax
  404a85:	48 c1 e0 03          	shl    $0x3,%rax
  404a89:	48 8b 4a 30          	mov    0x30(%rdx),%rcx
  404a8d:	48 01 c1             	add    %rax,%rcx
  404a90:	4c 01 e9             	add    %r13,%rcx
  404a93:	48 89 4d 20          	mov    %rcx,0x20(%rbp)
  404a97:	48 03 42 20          	add    0x20(%rdx),%rax
  404a9b:	4c 01 e8             	add    %r13,%rax
  404a9e:	48 89 45 30          	mov    %rax,0x30(%rbp)
  404aa2:	44 89 fb             	mov    %r15d,%ebx
  404aa5:	4c 8b 7c 24 10       	mov    0x10(%rsp),%r15
  404aaa:	4c 89 ff             	mov    %r15,%rdi
  404aad:	e8 2e c8 ff ff       	callq  4012e0 <pthread_mutex_lock@plt>
  404ab2:	49 8b 47 50          	mov    0x50(%r15),%rax
  404ab6:	48 89 45 40          	mov    %rax,0x40(%rbp)
  404aba:	49 89 6f 50          	mov    %rbp,0x50(%r15)
  404abe:	41 ff 47 60          	incl   0x60(%r15)
  404ac2:	4c 89 ff             	mov    %r15,%rdi
  404ac5:	41 89 df             	mov    %ebx,%r15d
  404ac8:	8b 5c 24 08          	mov    0x8(%rsp),%ebx
  404acc:	e8 1f c7 ff ff       	callq  4011f0 <pthread_mutex_unlock@plt>
  404ad1:	8b 44 24 0c          	mov    0xc(%rsp),%eax
  404ad5:	48 8b 6c 24 38       	mov    0x38(%rsp),%rbp
  404ada:	48 8b 4c 24 30       	mov    0x30(%rsp),%rcx
  404adf:	41 01 df             	add    %ebx,%r15d
  404ae2:	41 01 c6             	add    %eax,%r14d
  404ae5:	49 ff c4             	inc    %r12
  404ae8:	49 81 c5 c0 00 00 00 	add    $0xc0,%r13
  404aef:	49 39 cc             	cmp    %rcx,%r12
  404af2:	0f 8c a8 fe ff ff    	jl     4049a0 <serial_radix_partition+0xc0>
  404af8:	48 89 ef             	mov    %rbp,%rdi
  404afb:	e8 30 c5 ff ff       	callq  401030 <free@plt>
  404b00:	48 8b 7c 24 20       	mov    0x20(%rsp),%rdi
  404b05:	48 83 c4 48          	add    $0x48,%rsp
  404b09:	5b                   	pop    %rbx
  404b0a:	41 5c                	pop    %r12
  404b0c:	41 5d                	pop    %r13
  404b0e:	41 5e                	pop    %r14
  404b10:	41 5f                	pop    %r15
  404b12:	5d                   	pop    %rbp
  404b13:	e9 18 c5 ff ff       	jmpq   401030 <free@plt>
  404b18:	0f 1f 84 00 00 00 00 	nopl   0x0(%rax,%rax,1)
  404b1f:	00 

0000000000404b20 <parallel_radix_partition>:
  404b20:	55                   	push   %rbp
  404b21:	48 89 e5             	mov    %rsp,%rbp
  404b24:	41 57                	push   %r15
  404b26:	41 56                	push   %r14
  404b28:	41 55                	push   %r13
  404b2a:	41 54                	push   %r12
  404b2c:	53                   	push   %rbx
  404b2d:	48 83 ec 78          	sub    $0x78,%rsp
  404b31:	4c 8b 1f             	mov    (%rdi),%r11
  404b34:	4c 8b 4f 10          	mov    0x10(%rdi),%r9
  404b38:	4c 8b 7f 18          	mov    0x18(%rdi),%r15
  404b3c:	48 8b 47 20          	mov    0x20(%rdi),%rax
  404b40:	48 89 45 d0          	mov    %rax,-0x30(%rbp)
  404b44:	48 8b 70 78          	mov    0x78(%rax),%rsi
  404b48:	48 89 f0             	mov    %rsi,%rax
  404b4b:	48 c1 e8 20          	shr    $0x20,%rax
  404b4f:	48 89 45 90          	mov    %rax,-0x70(%rbp)
  404b53:	8b 57 28             	mov    0x28(%rdi),%edx
  404b56:	48 8b 5f 30          	mov    0x30(%rdi),%rbx
  404b5a:	48 89 d9             	mov    %rbx,%rcx
  404b5d:	48 c1 e9 20          	shr    $0x20,%rcx
  404b61:	41 ba 01 00 00 00    	mov    $0x1,%r10d
  404b67:	48 89 4d 98          	mov    %rcx,-0x68(%rbp)
  404b6b:	41 d3 e2             	shl    %cl,%r10d
  404b6e:	45 8d 42 ff          	lea    -0x1(%r10),%r8d
  404b72:	89 d9                	mov    %ebx,%ecx
  404b74:	41 d3 e0             	shl    %cl,%r8d
  404b77:	48 89 7d 80          	mov    %rdi,-0x80(%rbp)
  404b7b:	8b 47 3c             	mov    0x3c(%rdi),%eax
  404b7e:	89 45 a4             	mov    %eax,-0x5c(%rbp)
  404b81:	41 8d 42 01          	lea    0x1(%r10),%eax
  404b85:	48 8d 04 85 0f 00 00 	lea    0xf(,%rax,4),%rax
  404b8c:	00 
  404b8d:	48 b9 f0 ff ff ff 07 	movabs $0x7fffffff0,%rcx
  404b94:	00 00 00 
  404b97:	48 21 c1             	and    %rax,%rcx
  404b9a:	49 89 e6             	mov    %rsp,%r14
  404b9d:	49 29 ce             	sub    %rcx,%r14
  404ba0:	4c 89 f4             	mov    %r14,%rsp
  404ba3:	48 89 b5 68 ff ff ff 	mov    %rsi,-0x98(%rbp)
  404baa:	41 89 f5             	mov    %esi,%r13d
  404bad:	4c 89 4d a8          	mov    %r9,-0x58(%rbp)
  404bb1:	4b 8b 34 e9          	mov    (%r9,%r13,8),%rsi
  404bb5:	48 89 55 c8          	mov    %rdx,-0x38(%rbp)
  404bb9:	85 d2                	test   %edx,%edx
  404bbb:	74 5a                	je     404c17 <parallel_radix_partition+0xf7>
  404bbd:	48 8b 4d c8          	mov    -0x38(%rbp),%rcx
  404bc1:	41 89 c9             	mov    %ecx,%r9d
  404bc4:	41 83 e1 01          	and    $0x1,%r9d
  404bc8:	31 c0                	xor    %eax,%eax
  404bca:	83 f9 01             	cmp    $0x1,%ecx
  404bcd:	74 35                	je     404c04 <parallel_radix_partition+0xe4>
  404bcf:	4c 8b 65 c8          	mov    -0x38(%rbp),%r12
  404bd3:	45 29 cc             	sub    %r9d,%r12d
  404bd6:	31 c0                	xor    %eax,%eax
  404bd8:	0f 1f 84 00 00 00 00 	nopl   0x0(%rax,%rax,1)
  404bdf:	00 
  404be0:	41 8b 14 c3          	mov    (%r11,%rax,8),%edx
  404be4:	44 21 c2             	and    %r8d,%edx
  404be7:	89 d9                	mov    %ebx,%ecx
  404be9:	d3 ea                	shr    %cl,%edx
  404beb:	ff 04 96             	incl   (%rsi,%rdx,4)
  404bee:	41 8b 54 c3 08       	mov    0x8(%r11,%rax,8),%edx
  404bf3:	44 21 c2             	and    %r8d,%edx
  404bf6:	d3 ea                	shr    %cl,%edx
  404bf8:	ff 04 96             	incl   (%rsi,%rdx,4)
  404bfb:	48 83 c0 02          	add    $0x2,%rax
  404bff:	41 39 c4             	cmp    %eax,%r12d
  404c02:	75 dc                	jne    404be0 <parallel_radix_partition+0xc0>
  404c04:	45 85 c9             	test   %r9d,%r9d
  404c07:	74 0e                	je     404c17 <parallel_radix_partition+0xf7>
  404c09:	41 8b 04 c3          	mov    (%r11,%rax,8),%eax
  404c0d:	44 21 c0             	and    %r8d,%eax
  404c10:	89 d9                	mov    %ebx,%ecx
  404c12:	d3 e8                	shr    %cl,%eax
  404c14:	ff 04 86             	incl   (%rsi,%rax,4)
  404c17:	4c 89 85 78 ff ff ff 	mov    %r8,-0x88(%rbp)
  404c1e:	4c 89 9d 70 ff ff ff 	mov    %r11,-0x90(%rbp)
  404c25:	48 89 5d 88          	mov    %rbx,-0x78(%rbp)
  404c29:	45 89 d4             	mov    %r10d,%r12d
  404c2c:	31 c0                	xor    %eax,%eax
  404c2e:	31 c9                	xor    %ecx,%ecx
  404c30:	03 0c 86             	add    (%rsi,%rax,4),%ecx
  404c33:	89 0c 86             	mov    %ecx,(%rsi,%rax,4)
  404c36:	48 ff c0             	inc    %rax
  404c39:	4c 39 e0             	cmp    %r12,%rax
  404c3c:	72 f2                	jb     404c30 <parallel_radix_partition+0x110>
  404c3e:	48 8b 45 d0          	mov    -0x30(%rbp),%rax
  404c42:	48 8b 78 60          	mov    0x60(%rax),%rdi
  404c46:	e8 75 c6 ff ff       	callq  4012c0 <pthread_barrier_wait@plt>
  404c4b:	ff c0                	inc    %eax
  404c4d:	83 f8 01             	cmp    $0x1,%eax
  404c50:	48 8b 9d 68 ff ff ff 	mov    -0x98(%rbp),%rbx
  404c57:	0f 87 f2 04 00 00    	ja     40514f <parallel_radix_partition+0x62f>
  404c5d:	85 db                	test   %ebx,%ebx
  404c5f:	4c 8b 45 a8          	mov    -0x58(%rbp),%r8
  404c63:	0f 84 71 01 00 00    	je     404dda <parallel_radix_partition+0x2ba>
  404c69:	49 83 fc 01          	cmp    $0x1,%r12
  404c6d:	b8 01 00 00 00       	mov    $0x1,%eax
  404c72:	49 0f 47 c4          	cmova  %r12,%rax
  404c76:	4c 8d 58 ff          	lea    -0x1(%rax),%r11
  404c7a:	49 8d 4c 87 fc       	lea    -0x4(%r15,%rax,4),%rcx
  404c7f:	48 89 4d d0          	mov    %rcx,-0x30(%rbp)
  404c83:	41 89 c2             	mov    %eax,%r10d
  404c86:	41 83 e2 f8          	and    $0xfffffff8,%r10d
  404c8a:	49 8d 4a f8          	lea    -0x8(%r10),%rcx
  404c8e:	48 c1 e9 03          	shr    $0x3,%rcx
  404c92:	8d 51 01             	lea    0x1(%rcx),%edx
  404c95:	83 e2 01             	and    $0x1,%edx
  404c98:	48 89 55 b8          	mov    %rdx,-0x48(%rbp)
  404c9c:	48 ff ca             	dec    %rdx
  404c9f:	48 89 4d b0          	mov    %rcx,-0x50(%rbp)
  404ca3:	48 29 ca             	sub    %rcx,%rdx
  404ca6:	48 89 55 c0          	mov    %rdx,-0x40(%rbp)
  404caa:	31 d2                	xor    %edx,%edx
  404cac:	0f 1f 40 00          	nopl   0x0(%rax)
  404cb0:	49 8b 3c d0          	mov    (%r8,%rdx,8),%rdi
  404cb4:	48 83 f8 07          	cmp    $0x7,%rax
  404cb8:	be 00 00 00 00       	mov    $0x0,%esi
  404cbd:	0f 86 fd 00 00 00    	jbe    404dc0 <parallel_radix_partition+0x2a0>
  404cc3:	4d 85 d2             	test   %r10,%r10
  404cc6:	be 00 00 00 00       	mov    $0x0,%esi
  404ccb:	0f 84 ef 00 00 00    	je     404dc0 <parallel_radix_partition+0x2a0>
  404cd1:	4a 8d 34 9f          	lea    (%rdi,%r11,4),%rsi
  404cd5:	49 39 f7             	cmp    %rsi,%r15
  404cd8:	77 0f                	ja     404ce9 <parallel_radix_partition+0x1c9>
  404cda:	48 3b 7d d0          	cmp    -0x30(%rbp),%rdi
  404cde:	be 00 00 00 00       	mov    $0x0,%esi
  404ce3:	0f 86 d7 00 00 00    	jbe    404dc0 <parallel_radix_partition+0x2a0>
  404ce9:	48 83 7d b0 00       	cmpq   $0x0,-0x50(%rbp)
  404cee:	41 b9 00 00 00 00    	mov    $0x0,%r9d
  404cf4:	0f 84 81 00 00 00    	je     404d7b <parallel_radix_partition+0x25b>
  404cfa:	4c 8b 45 c0          	mov    -0x40(%rbp),%r8
  404cfe:	45 31 c9             	xor    %r9d,%r9d
  404d01:	66 66 66 66 66 66 2e 	data16 data16 data16 data16 data16 nopw %cs:0x0(%rax,%rax,1)
  404d08:	0f 1f 84 00 00 00 00 
  404d0f:	00 
  404d10:	f3 42 0f 6f 04 8f    	movdqu (%rdi,%r9,4),%xmm0
  404d16:	f3 42 0f 6f 4c 8f 10 	movdqu 0x10(%rdi,%r9,4),%xmm1
  404d1d:	f3 43 0f 6f 14 8f    	movdqu (%r15,%r9,4),%xmm2
  404d23:	f3 43 0f 6f 5c 8f 10 	movdqu 0x10(%r15,%r9,4),%xmm3
  404d2a:	66 0f fe d0          	paddd  %xmm0,%xmm2
  404d2e:	66 0f fe d9          	paddd  %xmm1,%xmm3
  404d32:	f3 43 0f 7f 14 8f    	movdqu %xmm2,(%r15,%r9,4)
  404d38:	f3 43 0f 7f 5c 8f 10 	movdqu %xmm3,0x10(%r15,%r9,4)
  404d3f:	f3 42 0f 6f 44 8f 20 	movdqu 0x20(%rdi,%r9,4),%xmm0
  404d46:	f3 42 0f 6f 4c 8f 30 	movdqu 0x30(%rdi,%r9,4),%xmm1
  404d4d:	f3 43 0f 6f 54 8f 20 	movdqu 0x20(%r15,%r9,4),%xmm2
  404d54:	f3 43 0f 6f 5c 8f 30 	movdqu 0x30(%r15,%r9,4),%xmm3
  404d5b:	66 0f fe d0          	paddd  %xmm0,%xmm2
  404d5f:	66 0f fe d9          	paddd  %xmm1,%xmm3
  404d63:	f3 43 0f 7f 54 8f 20 	movdqu %xmm2,0x20(%r15,%r9,4)
  404d6a:	f3 43 0f 7f 5c 8f 30 	movdqu %xmm3,0x30(%r15,%r9,4)
  404d71:	49 83 c1 10          	add    $0x10,%r9
  404d75:	49 83 c0 02          	add    $0x2,%r8
  404d79:	75 95                	jne    404d10 <parallel_radix_partition+0x1f0>
  404d7b:	48 83 7d b8 00       	cmpq   $0x0,-0x48(%rbp)
  404d80:	74 2f                	je     404db1 <parallel_radix_partition+0x291>
  404d82:	f3 42 0f 6f 04 8f    	movdqu (%rdi,%r9,4),%xmm0
  404d88:	f3 42 0f 6f 4c 8f 10 	movdqu 0x10(%rdi,%r9,4),%xmm1
  404d8f:	f3 43 0f 6f 14 8f    	movdqu (%r15,%r9,4),%xmm2
  404d95:	f3 43 0f 6f 5c 8f 10 	movdqu 0x10(%r15,%r9,4),%xmm3
  404d9c:	66 0f fe d0          	paddd  %xmm0,%xmm2
  404da0:	66 0f fe d9          	paddd  %xmm1,%xmm3
  404da4:	f3 43 0f 7f 14 8f    	movdqu %xmm2,(%r15,%r9,4)
  404daa:	f3 43 0f 7f 5c 8f 10 	movdqu %xmm3,0x10(%r15,%r9,4)
  404db1:	4c 39 d0             	cmp    %r10,%rax
  404db4:	4c 89 d6             	mov    %r10,%rsi
  404db7:	4c 8b 45 a8          	mov    -0x58(%rbp),%r8
  404dbb:	74 12                	je     404dcf <parallel_radix_partition+0x2af>
  404dbd:	0f 1f 00             	nopl   (%rax)
  404dc0:	8b 0c b7             	mov    (%rdi,%rsi,4),%ecx
  404dc3:	41 01 0c b7          	add    %ecx,(%r15,%rsi,4)
  404dc7:	48 ff c6             	inc    %rsi
  404dca:	4c 39 e6             	cmp    %r12,%rsi
  404dcd:	72 f1                	jb     404dc0 <parallel_radix_partition+0x2a0>
  404dcf:	48 ff c2             	inc    %rdx
  404dd2:	39 da                	cmp    %ebx,%edx
  404dd4:	0f 85 d6 fe ff ff    	jne    404cb0 <parallel_radix_partition+0x190>
  404dda:	48 8b 75 90          	mov    -0x70(%rbp),%rsi
  404dde:	39 f3                	cmp    %esi,%ebx
  404de0:	0f 83 97 01 00 00    	jae    404f7d <parallel_radix_partition+0x45d>
  404de6:	48 8b 45 98          	mov    -0x68(%rbp),%rax
  404dea:	85 c0                	test   %eax,%eax
  404dec:	0f 84 8b 01 00 00    	je     404f7d <parallel_radix_partition+0x45d>
  404df2:	49 83 fc 02          	cmp    $0x2,%r12
  404df6:	bf 02 00 00 00       	mov    $0x2,%edi
  404dfb:	49 0f 47 fc          	cmova  %r12,%rdi
  404dff:	49 8d 4f 04          	lea    0x4(%r15),%rcx
  404e03:	49 8d 44 bf fc       	lea    -0x4(%r15,%rdi,4),%rax
  404e08:	48 89 45 d0          	mov    %rax,-0x30(%rbp)
  404e0c:	48 8d 57 ff          	lea    -0x1(%rdi),%rdx
  404e10:	4c 8d 5f fe          	lea    -0x2(%rdi),%r11
  404e14:	48 8d 47 f7          	lea    -0x9(%rdi),%rax
  404e18:	48 c1 e8 03          	shr    $0x3,%rax
  404e1c:	8d 78 01             	lea    0x1(%rax),%edi
  404e1f:	49 89 d1             	mov    %rdx,%r9
  404e22:	49 83 e1 f8          	and    $0xfffffffffffffff8,%r9
  404e26:	49 8d 59 01          	lea    0x1(%r9),%rbx
  404e2a:	48 89 5d c0          	mov    %rbx,-0x40(%rbp)
  404e2e:	83 e7 01             	and    $0x1,%edi
  404e31:	48 89 7d b8          	mov    %rdi,-0x48(%rbp)
  404e35:	48 8d 5f ff          	lea    -0x1(%rdi),%rbx
  404e39:	48 89 45 b0          	mov    %rax,-0x50(%rbp)
  404e3d:	48 29 c3             	sub    %rax,%rbx
  404e40:	48 83 fa 08          	cmp    $0x8,%rdx
  404e44:	4f 8b 14 e8          	mov    (%r8,%r13,8),%r10
  404e48:	bf 01 00 00 00       	mov    $0x1,%edi
  404e4d:	0f 82 0d 01 00 00    	jb     404f60 <parallel_radix_partition+0x440>
  404e53:	4d 85 c9             	test   %r9,%r9
  404e56:	bf 01 00 00 00       	mov    $0x1,%edi
  404e5b:	0f 84 ff 00 00 00    	je     404f60 <parallel_radix_partition+0x440>
  404e61:	4b 8d 3c 9a          	lea    (%r10,%r11,4),%rdi
  404e65:	48 39 f9             	cmp    %rdi,%rcx
  404e68:	77 0f                	ja     404e79 <parallel_radix_partition+0x359>
  404e6a:	4c 3b 55 d0          	cmp    -0x30(%rbp),%r10
  404e6e:	bf 01 00 00 00       	mov    $0x1,%edi
  404e73:	0f 86 e7 00 00 00    	jbe    404f60 <parallel_radix_partition+0x440>
  404e79:	4c 89 d8             	mov    %r11,%rax
  404e7c:	48 83 7d b0 00       	cmpq   $0x0,-0x50(%rbp)
  404e81:	41 bb 01 00 00 00    	mov    $0x1,%r11d
  404e87:	0f 84 88 00 00 00    	je     404f15 <parallel_radix_partition+0x3f5>
  404e8d:	49 89 d8             	mov    %rbx,%r8
  404e90:	41 bb 0c 00 00 00    	mov    $0xc,%r11d
  404e96:	66 2e 0f 1f 84 00 00 	nopw   %cs:0x0(%rax,%rax,1)
  404e9d:	00 00 00 
  404ea0:	f3 43 0f 6f 44 9a d0 	movdqu -0x30(%r10,%r11,4),%xmm0
  404ea7:	f3 43 0f 6f 4c 9a e0 	movdqu -0x20(%r10,%r11,4),%xmm1
  404eae:	f3 43 0f 6f 54 9f d4 	movdqu -0x2c(%r15,%r11,4),%xmm2
  404eb5:	f3 43 0f 6f 5c 9f e4 	movdqu -0x1c(%r15,%r11,4),%xmm3
  404ebc:	66 0f fe d0          	paddd  %xmm0,%xmm2
  404ec0:	66 0f fe d9          	paddd  %xmm1,%xmm3
  404ec4:	f3 43 0f 7f 54 9f d4 	movdqu %xmm2,-0x2c(%r15,%r11,4)
  404ecb:	f3 43 0f 7f 5c 9f e4 	movdqu %xmm3,-0x1c(%r15,%r11,4)
  404ed2:	f3 43 0f 6f 44 9a f0 	movdqu -0x10(%r10,%r11,4),%xmm0
  404ed9:	f3 43 0f 6f 0c 9a    	movdqu (%r10,%r11,4),%xmm1
  404edf:	f3 43 0f 6f 54 9f f4 	movdqu -0xc(%r15,%r11,4),%xmm2
  404ee6:	f3 43 0f 6f 5c 9f 04 	movdqu 0x4(%r15,%r11,4),%xmm3
  404eed:	66 0f fe d0          	paddd  %xmm0,%xmm2
  404ef1:	66 0f fe d9          	paddd  %xmm1,%xmm3
  404ef5:	f3 43 0f 7f 54 9f f4 	movdqu %xmm2,-0xc(%r15,%r11,4)
  404efc:	f3 43 0f 7f 5c 9f 04 	movdqu %xmm3,0x4(%r15,%r11,4)
  404f03:	49 83 c3 10          	add    $0x10,%r11
  404f07:	49 83 c0 02          	add    $0x2,%r8
  404f0b:	75 93                	jne    404ea0 <parallel_radix_partition+0x380>
  404f0d:	49 83 c3 f5          	add    $0xfffffffffffffff5,%r11
  404f11:	4c 8b 45 a8          	mov    -0x58(%rbp),%r8
  404f15:	48 83 7d b8 00       	cmpq   $0x0,-0x48(%rbp)
  404f1a:	74 30                	je     404f4c <parallel_radix_partition+0x42c>
  404f1c:	f3 43 0f 6f 44 9a fc 	movdqu -0x4(%r10,%r11,4),%xmm0
  404f23:	f3 43 0f 6f 4c 9a 0c 	movdqu 0xc(%r10,%r11,4),%xmm1
  404f2a:	f3 43 0f 6f 14 9f    	movdqu (%r15,%r11,4),%xmm2
  404f30:	f3 43 0f 6f 5c 9f 10 	movdqu 0x10(%r15,%r11,4),%xmm3
  404f37:	66 0f fe d0          	paddd  %xmm0,%xmm2
  404f3b:	66 0f fe d9          	paddd  %xmm1,%xmm3
  404f3f:	f3 43 0f 7f 14 9f    	movdqu %xmm2,(%r15,%r11,4)
  404f45:	f3 43 0f 7f 5c 9f 10 	movdqu %xmm3,0x10(%r15,%r11,4)
  404f4c:	4c 39 ca             	cmp    %r9,%rdx
  404f4f:	48 8b 7d c0          	mov    -0x40(%rbp),%rdi
  404f53:	48 8b 75 90          	mov    -0x70(%rbp),%rsi
  404f57:	49 89 c3             	mov    %rax,%r11
  404f5a:	74 15                	je     404f71 <parallel_radix_partition+0x451>
  404f5c:	0f 1f 40 00          	nopl   0x0(%rax)
  404f60:	41 8b 44 ba fc       	mov    -0x4(%r10,%rdi,4),%eax
  404f65:	41 01 04 bf          	add    %eax,(%r15,%rdi,4)
  404f69:	48 ff c7             	inc    %rdi
  404f6c:	4c 39 e7             	cmp    %r12,%rdi
  404f6f:	72 ef                	jb     404f60 <parallel_radix_partition+0x440>
  404f71:	49 ff c5             	inc    %r13
  404f74:	41 39 f5             	cmp    %esi,%r13d
  404f77:	0f 85 c3 fe ff ff    	jne    404e40 <parallel_radix_partition+0x320>
  404f7d:	49 83 fc 01          	cmp    $0x1,%r12
  404f81:	b8 01 00 00 00       	mov    $0x1,%eax
  404f86:	49 0f 47 c4          	cmova  %r12,%rax
  404f8a:	31 d2                	xor    %edx,%edx
  404f8c:	48 83 f8 07          	cmp    $0x7,%rax
  404f90:	4c 8b 5d c8          	mov    -0x38(%rbp),%r11
  404f94:	44 8b 45 a4          	mov    -0x5c(%rbp),%r8d
  404f98:	0f 86 d6 00 00 00    	jbe    405074 <parallel_radix_partition+0x554>
  404f9e:	b9 f8 ff ff ff       	mov    $0xfffffff8,%ecx
  404fa3:	31 d2                	xor    %edx,%edx
  404fa5:	48 21 c1             	and    %rax,%rcx
  404fa8:	0f 84 c6 00 00 00    	je     405074 <parallel_radix_partition+0x554>
  404fae:	66 41 0f 6e c0       	movd   %r8d,%xmm0
  404fb3:	66 0f 70 c0 00       	pshufd $0x0,%xmm0,%xmm0
  404fb8:	49 8d 57 10          	lea    0x10(%r15),%rdx
  404fbc:	49 8d 76 10          	lea    0x10(%r14),%rsi
  404fc0:	66 0f 6f 2d b8 31 00 	movdqa 0x31b8(%rip),%xmm5        # 408180 <_IO_stdin_used+0x1060>
  404fc7:	00 
  404fc8:	66 44 0f 6f 05 bf 31 	movdqa 0x31bf(%rip),%xmm8        # 408190 <_IO_stdin_used+0x1070>
  404fcf:	00 00 
  404fd1:	66 0f 6f 15 c7 31 00 	movdqa 0x31c7(%rip),%xmm2        # 4081a0 <_IO_stdin_used+0x1080>
  404fd8:	00 
  404fd9:	66 0f 70 d8 f5       	pshufd $0xf5,%xmm0,%xmm3
  404fde:	48 89 cf             	mov    %rcx,%rdi
  404fe1:	66 66 66 66 66 66 2e 	data16 data16 data16 data16 data16 nopw %cs:0x0(%rax,%rax,1)
  404fe8:	0f 1f 84 00 00 00 00 
  404fef:	00 
  404ff0:	66 0f 6f f5          	movdqa %xmm5,%xmm6
  404ff4:	66 41 0f fe f0       	paddd  %xmm8,%xmm6
  404ff9:	66 0f 6f e5          	movdqa %xmm5,%xmm4
  404ffd:	66 0f fe e2          	paddd  %xmm2,%xmm4
  405001:	66 0f 70 fd f5       	pshufd $0xf5,%xmm5,%xmm7
  405006:	66 0f f4 e8          	pmuludq %xmm0,%xmm5
  40500a:	66 0f 70 ed e8       	pshufd $0xe8,%xmm5,%xmm5
  40500f:	66 0f f4 fb          	pmuludq %xmm3,%xmm7
  405013:	66 0f 70 ff e8       	pshufd $0xe8,%xmm7,%xmm7
  405018:	66 0f 62 ef          	punpckldq %xmm7,%xmm5
  40501c:	66 0f 70 fe f5       	pshufd $0xf5,%xmm6,%xmm7
  405021:	66 0f f4 f0          	pmuludq %xmm0,%xmm6
  405025:	66 0f 70 f6 e8       	pshufd $0xe8,%xmm6,%xmm6
  40502a:	66 0f f4 fb          	pmuludq %xmm3,%xmm7
  40502e:	66 0f 70 ff e8       	pshufd $0xe8,%xmm7,%xmm7
  405033:	66 0f 62 f7          	punpckldq %xmm7,%xmm6
  405037:	f3 0f 6f 7a f0       	movdqu -0x10(%rdx),%xmm7
  40503c:	f3 0f 6f 0a          	movdqu (%rdx),%xmm1
  405040:	66 0f fe fd          	paddd  %xmm5,%xmm7
  405044:	66 0f fe ce          	paddd  %xmm6,%xmm1
  405048:	f3 0f 7f 7a f0       	movdqu %xmm7,-0x10(%rdx)
  40504d:	f3 0f 7f 0a          	movdqu %xmm1,(%rdx)
  405051:	66 0f 7f 7e f0       	movdqa %xmm7,-0x10(%rsi)
  405056:	66 0f 7f 0e          	movdqa %xmm1,(%rsi)
  40505a:	48 83 c2 20          	add    $0x20,%rdx
  40505e:	48 83 c6 20          	add    $0x20,%rsi
  405062:	48 83 c7 f8          	add    $0xfffffffffffffff8,%rdi
  405066:	66 0f 6f ec          	movdqa %xmm4,%xmm5
  40506a:	75 84                	jne    404ff0 <parallel_radix_partition+0x4d0>
  40506c:	48 39 c8             	cmp    %rcx,%rax
  40506f:	48 89 ca             	mov    %rcx,%rdx
  405072:	74 25                	je     405099 <parallel_radix_partition+0x579>
  405074:	44 89 c0             	mov    %r8d,%eax
  405077:	0f af c2             	imul   %edx,%eax
  40507a:	66 0f 1f 44 00 00    	nopw   0x0(%rax,%rax,1)
  405080:	41 8b 0c 97          	mov    (%r15,%rdx,4),%ecx
  405084:	01 c1                	add    %eax,%ecx
  405086:	41 89 0c 97          	mov    %ecx,(%r15,%rdx,4)
  40508a:	41 89 0c 96          	mov    %ecx,(%r14,%rdx,4)
  40508e:	48 ff c2             	inc    %rdx
  405091:	44 01 c0             	add    %r8d,%eax
  405094:	4c 39 e2             	cmp    %r12,%rdx
  405097:	72 e7                	jb     405080 <parallel_radix_partition+0x560>
  405099:	48 8b 4d 98          	mov    -0x68(%rbp),%rcx
  40509d:	41 d3 e0             	shl    %cl,%r8d
  4050a0:	48 8b 55 80          	mov    -0x80(%rbp),%rdx
  4050a4:	44 03 42 2c          	add    0x2c(%rdx),%r8d
  4050a8:	45 85 db             	test   %r11d,%r11d
  4050ab:	47 89 04 a7          	mov    %r8d,(%r15,%r12,4)
  4050af:	48 8b 4d 88          	mov    -0x78(%rbp),%rcx
  4050b3:	48 8b 85 70 ff ff ff 	mov    -0x90(%rbp),%rax
  4050ba:	4c 8b 95 78 ff ff ff 	mov    -0x88(%rbp),%r10
  4050c1:	74 7d                	je     405140 <parallel_radix_partition+0x620>
  4050c3:	4c 8b 4a 08          	mov    0x8(%rdx),%r9
  4050c7:	45 89 d8             	mov    %r11d,%r8d
  4050ca:	41 83 e0 01          	and    $0x1,%r8d
  4050ce:	31 d2                	xor    %edx,%edx
  4050d0:	41 83 fb 01          	cmp    $0x1,%r11d
  4050d4:	74 4b                	je     405121 <parallel_radix_partition+0x601>
  4050d6:	45 29 c3             	sub    %r8d,%r11d
  4050d9:	31 d2                	xor    %edx,%edx
  4050db:	0f 1f 44 00 00       	nopl   0x0(%rax,%rax,1)
  4050e0:	8b 3c d0             	mov    (%rax,%rdx,8),%edi
  4050e3:	44 21 d7             	and    %r10d,%edi
  4050e6:	d3 ef                	shr    %cl,%edi
  4050e8:	49 63 1c be          	movslq (%r14,%rdi,4),%rbx
  4050ec:	48 8b 34 d0          	mov    (%rax,%rdx,8),%rsi
  4050f0:	49 89 34 d9          	mov    %rsi,(%r9,%rbx,8)
  4050f4:	8d 73 01             	lea    0x1(%rbx),%esi
  4050f7:	41 89 34 be          	mov    %esi,(%r14,%rdi,4)
  4050fb:	8b 74 d0 08          	mov    0x8(%rax,%rdx,8),%esi
  4050ff:	44 21 d6             	and    %r10d,%esi
  405102:	d3 ee                	shr    %cl,%esi
  405104:	49 63 1c b6          	movslq (%r14,%rsi,4),%rbx
  405108:	48 8b 7c d0 08       	mov    0x8(%rax,%rdx,8),%rdi
  40510d:	49 89 3c d9          	mov    %rdi,(%r9,%rbx,8)
  405111:	8d 7b 01             	lea    0x1(%rbx),%edi
  405114:	41 89 3c b6          	mov    %edi,(%r14,%rsi,4)
  405118:	48 83 c2 02          	add    $0x2,%rdx
  40511c:	41 39 d3             	cmp    %edx,%r11d
  40511f:	75 bf                	jne    4050e0 <parallel_radix_partition+0x5c0>
  405121:	45 85 c0             	test   %r8d,%r8d
  405124:	74 1a                	je     405140 <parallel_radix_partition+0x620>
  405126:	44 23 14 d0          	and    (%rax,%rdx,8),%r10d
  40512a:	41 d3 ea             	shr    %cl,%r10d
  40512d:	4b 63 0c 96          	movslq (%r14,%r10,4),%rcx
  405131:	48 8b 14 d0          	mov    (%rax,%rdx,8),%rdx
  405135:	49 89 14 c9          	mov    %rdx,(%r9,%rcx,8)
  405139:	8d 41 01             	lea    0x1(%rcx),%eax
  40513c:	43 89 04 96          	mov    %eax,(%r14,%r10,4)
  405140:	48 8d 65 d8          	lea    -0x28(%rbp),%rsp
  405144:	5b                   	pop    %rbx
  405145:	41 5c                	pop    %r12
  405147:	41 5d                	pop    %r13
  405149:	41 5e                	pop    %r14
  40514b:	41 5f                	pop    %r15
  40514d:	5d                   	pop    %rbp
  40514e:	c3                   	retq   
  40514f:	bf 30 72 40 00       	mov    $0x407230,%edi
  405154:	e8 17 bf ff ff       	callq  401070 <puts@plt>
  405159:	bf 01 00 00 00       	mov    $0x1,%edi
  40515e:	e8 2d c1 ff ff       	callq  401290 <exit@plt>
  405163:	66 66 66 66 2e 0f 1f 	data16 data16 data16 nopw %cs:0x0(%rax,%rax,1)
  40516a:	84 00 00 00 00 00 

0000000000405170 <parallel_radix_partition_optimized>:
  405170:	55                   	push   %rbp
  405171:	48 89 e5             	mov    %rsp,%rbp
  405174:	41 57                	push   %r15
  405176:	41 56                	push   %r14
  405178:	41 55                	push   %r13
  40517a:	41 54                	push   %r12
  40517c:	53                   	push   %rbx
  40517d:	48 83 e4 c0          	and    $0xffffffffffffffc0,%rsp
  405181:	48 81 ec c0 00 00 00 	sub    $0xc0,%rsp
  405188:	48 89 e3             	mov    %rsp,%rbx
  40518b:	4c 8b 3f             	mov    (%rdi),%r15
  40518e:	4c 8b 4f 10          	mov    0x10(%rdi),%r9
  405192:	4c 8b 77 18          	mov    0x18(%rdi),%r14
  405196:	4c 8b 47 20          	mov    0x20(%rdi),%r8
  40519a:	49 8b 70 78          	mov    0x78(%r8),%rsi
  40519e:	48 89 f0             	mov    %rsi,%rax
  4051a1:	48 c1 e8 20          	shr    $0x20,%rax
  4051a5:	48 89 43 68          	mov    %rax,0x68(%rbx)
  4051a9:	8b 47 28             	mov    0x28(%rdi),%eax
  4051ac:	4c 8b 6f 30          	mov    0x30(%rdi),%r13
  4051b0:	4c 89 e9             	mov    %r13,%rcx
  4051b3:	48 c1 e9 20          	shr    $0x20,%rcx
  4051b7:	41 ba 01 00 00 00    	mov    $0x1,%r10d
  4051bd:	48 89 4b 60          	mov    %rcx,0x60(%rbx)
  4051c1:	41 d3 e2             	shl    %cl,%r10d
  4051c4:	41 8d 52 ff          	lea    -0x1(%r10),%edx
  4051c8:	44 89 e9             	mov    %r13d,%ecx
  4051cb:	d3 e2                	shl    %cl,%edx
  4051cd:	89 53 28             	mov    %edx,0x28(%rbx)
  4051d0:	48 89 7b 78          	mov    %rdi,0x78(%rbx)
  4051d4:	8b 4f 3c             	mov    0x3c(%rdi),%ecx
  4051d7:	89 4b 5c             	mov    %ecx,0x5c(%rbx)
  4051da:	48 89 73 20          	mov    %rsi,0x20(%rbx)
  4051de:	41 89 f4             	mov    %esi,%r12d
  4051e1:	4c 89 4b 38          	mov    %r9,0x38(%rbx)
  4051e5:	4b 8b 14 e1          	mov    (%r9,%r12,8),%rdx
  4051e9:	89 43 2c             	mov    %eax,0x2c(%rbx)
  4051ec:	85 c0                	test   %eax,%eax
  4051ee:	74 57                	je     405247 <parallel_radix_partition_optimized+0xd7>
  4051f0:	8b 4b 2c             	mov    0x2c(%rbx),%ecx
  4051f3:	41 89 c9             	mov    %ecx,%r9d
  4051f6:	41 83 e1 01          	and    $0x1,%r9d
  4051fa:	31 c0                	xor    %eax,%eax
  4051fc:	83 f9 01             	cmp    $0x1,%ecx
  4051ff:	8b 7b 28             	mov    0x28(%rbx),%edi
  405202:	74 2f                	je     405233 <parallel_radix_partition_optimized+0xc3>
  405204:	8b 43 2c             	mov    0x2c(%rbx),%eax
  405207:	41 89 c3             	mov    %eax,%r11d
  40520a:	45 29 cb             	sub    %r9d,%r11d
  40520d:	31 c0                	xor    %eax,%eax
  40520f:	90                   	nop
  405210:	41 8b 34 c7          	mov    (%r15,%rax,8),%esi
  405214:	21 fe                	and    %edi,%esi
  405216:	44 89 e9             	mov    %r13d,%ecx
  405219:	d3 ee                	shr    %cl,%esi
  40521b:	ff 04 b2             	incl   (%rdx,%rsi,4)
  40521e:	41 8b 74 c7 08       	mov    0x8(%r15,%rax,8),%esi
  405223:	21 fe                	and    %edi,%esi
  405225:	d3 ee                	shr    %cl,%esi
  405227:	ff 04 b2             	incl   (%rdx,%rsi,4)
  40522a:	48 83 c0 02          	add    $0x2,%rax
  40522e:	41 39 c3             	cmp    %eax,%r11d
  405231:	75 dd                	jne    405210 <parallel_radix_partition_optimized+0xa0>
  405233:	45 85 c9             	test   %r9d,%r9d
  405236:	74 0f                	je     405247 <parallel_radix_partition_optimized+0xd7>
  405238:	41 8b 04 c7          	mov    (%r15,%rax,8),%eax
  40523c:	23 43 28             	and    0x28(%rbx),%eax
  40523f:	44 89 e9             	mov    %r13d,%ecx
  405242:	d3 e8                	shr    %cl,%eax
  405244:	ff 04 82             	incl   (%rdx,%rax,4)
  405247:	4c 89 6b 70          	mov    %r13,0x70(%rbx)
  40524b:	45 89 d5             	mov    %r10d,%r13d
  40524e:	31 c0                	xor    %eax,%eax
  405250:	31 c9                	xor    %ecx,%ecx
  405252:	66 66 66 66 66 2e 0f 	data16 data16 data16 data16 nopw %cs:0x0(%rax,%rax,1)
  405259:	1f 84 00 00 00 00 00 
  405260:	03 0c 82             	add    (%rdx,%rax,4),%ecx
  405263:	89 0c 82             	mov    %ecx,(%rdx,%rax,4)
  405266:	48 ff c0             	inc    %rax
  405269:	4c 39 e8             	cmp    %r13,%rax
  40526c:	72 f2                	jb     405260 <parallel_radix_partition_optimized+0xf0>
  40526e:	49 8b 78 60          	mov    0x60(%r8),%rdi
  405272:	e8 49 c0 ff ff       	callq  4012c0 <pthread_barrier_wait@plt>
  405277:	ff c0                	inc    %eax
  405279:	83 f8 01             	cmp    $0x1,%eax
  40527c:	0f 87 15 05 00 00    	ja     405797 <parallel_radix_partition_optimized+0x627>
  405282:	48 8b 43 20          	mov    0x20(%rbx),%rax
  405286:	85 c0                	test   %eax,%eax
  405288:	0f 84 7c 01 00 00    	je     40540a <parallel_radix_partition_optimized+0x29a>
  40528e:	49 83 fd 01          	cmp    $0x1,%r13
  405292:	41 ba 01 00 00 00    	mov    $0x1,%r10d
  405298:	4d 0f 47 d5          	cmova  %r13,%r10
  40529c:	4d 8d 42 ff          	lea    -0x1(%r10),%r8
  4052a0:	4b 8d 4c 96 fc       	lea    -0x4(%r14,%r10,4),%rcx
  4052a5:	48 89 4b 30          	mov    %rcx,0x30(%rbx)
  4052a9:	45 89 d3             	mov    %r10d,%r11d
  4052ac:	41 83 e3 f8          	and    $0xfffffff8,%r11d
  4052b0:	49 8d 4b f8          	lea    -0x8(%r11),%rcx
  4052b4:	48 c1 e9 03          	shr    $0x3,%rcx
  4052b8:	8d 51 01             	lea    0x1(%rcx),%edx
  4052bb:	83 e2 01             	and    $0x1,%edx
  4052be:	48 89 53 48          	mov    %rdx,0x48(%rbx)
  4052c2:	48 ff ca             	dec    %rdx
  4052c5:	48 89 4b 50          	mov    %rcx,0x50(%rbx)
  4052c9:	48 29 ca             	sub    %rcx,%rdx
  4052cc:	48 89 53 40          	mov    %rdx,0x40(%rbx)
  4052d0:	31 d2                	xor    %edx,%edx
  4052d2:	66 66 66 66 66 2e 0f 	data16 data16 data16 data16 nopw %cs:0x0(%rax,%rax,1)
  4052d9:	1f 84 00 00 00 00 00 
  4052e0:	48 8b 4b 38          	mov    0x38(%rbx),%rcx
  4052e4:	48 8b 3c d1          	mov    (%rcx,%rdx,8),%rdi
  4052e8:	49 83 fa 07          	cmp    $0x7,%r10
  4052ec:	be 00 00 00 00       	mov    $0x0,%esi
  4052f1:	0f 86 f9 00 00 00    	jbe    4053f0 <parallel_radix_partition_optimized+0x280>
  4052f7:	4d 85 db             	test   %r11,%r11
  4052fa:	be 00 00 00 00       	mov    $0x0,%esi
  4052ff:	0f 84 eb 00 00 00    	je     4053f0 <parallel_radix_partition_optimized+0x280>
  405305:	4a 8d 34 87          	lea    (%rdi,%r8,4),%rsi
  405309:	49 39 f6             	cmp    %rsi,%r14
  40530c:	77 0f                	ja     40531d <parallel_radix_partition_optimized+0x1ad>
  40530e:	48 3b 7b 30          	cmp    0x30(%rbx),%rdi
  405312:	be 00 00 00 00       	mov    $0x0,%esi
  405317:	0f 86 d3 00 00 00    	jbe    4053f0 <parallel_radix_partition_optimized+0x280>
  40531d:	4c 89 c1             	mov    %r8,%rcx
  405320:	48 83 7b 50 00       	cmpq   $0x0,0x50(%rbx)
  405325:	41 b9 00 00 00 00    	mov    $0x0,%r9d
  40532b:	74 7e                	je     4053ab <parallel_radix_partition_optimized+0x23b>
  40532d:	4c 8b 43 40          	mov    0x40(%rbx),%r8
  405331:	45 31 c9             	xor    %r9d,%r9d
  405334:	66 66 66 2e 0f 1f 84 	data16 data16 nopw %cs:0x0(%rax,%rax,1)
  40533b:	00 00 00 00 00 
  405340:	f3 42 0f 6f 04 8f    	movdqu (%rdi,%r9,4),%xmm0
  405346:	f3 42 0f 6f 4c 8f 10 	movdqu 0x10(%rdi,%r9,4),%xmm1
  40534d:	f3 43 0f 6f 14 8e    	movdqu (%r14,%r9,4),%xmm2
  405353:	f3 43 0f 6f 5c 8e 10 	movdqu 0x10(%r14,%r9,4),%xmm3
  40535a:	66 0f fe d0          	paddd  %xmm0,%xmm2
  40535e:	66 0f fe d9          	paddd  %xmm1,%xmm3
  405362:	f3 43 0f 7f 14 8e    	movdqu %xmm2,(%r14,%r9,4)
  405368:	f3 43 0f 7f 5c 8e 10 	movdqu %xmm3,0x10(%r14,%r9,4)
  40536f:	f3 42 0f 6f 44 8f 20 	movdqu 0x20(%rdi,%r9,4),%xmm0
  405376:	f3 42 0f 6f 4c 8f 30 	movdqu 0x30(%rdi,%r9,4),%xmm1
  40537d:	f3 43 0f 6f 54 8e 20 	movdqu 0x20(%r14,%r9,4),%xmm2
  405384:	f3 43 0f 6f 5c 8e 30 	movdqu 0x30(%r14,%r9,4),%xmm3
  40538b:	66 0f fe d0          	paddd  %xmm0,%xmm2
  40538f:	66 0f fe d9          	paddd  %xmm1,%xmm3
  405393:	f3 43 0f 7f 54 8e 20 	movdqu %xmm2,0x20(%r14,%r9,4)
  40539a:	f3 43 0f 7f 5c 8e 30 	movdqu %xmm3,0x30(%r14,%r9,4)
  4053a1:	49 83 c1 10          	add    $0x10,%r9
  4053a5:	49 83 c0 02          	add    $0x2,%r8
  4053a9:	75 95                	jne    405340 <parallel_radix_partition_optimized+0x1d0>
  4053ab:	48 83 7b 48 00       	cmpq   $0x0,0x48(%rbx)
  4053b0:	74 2f                	je     4053e1 <parallel_radix_partition_optimized+0x271>
  4053b2:	f3 42 0f 6f 04 8f    	movdqu (%rdi,%r9,4),%xmm0
  4053b8:	f3 42 0f 6f 4c 8f 10 	movdqu 0x10(%rdi,%r9,4),%xmm1
  4053bf:	f3 43 0f 6f 14 8e    	movdqu (%r14,%r9,4),%xmm2
  4053c5:	f3 43 0f 6f 5c 8e 10 	movdqu 0x10(%r14,%r9,4),%xmm3
  4053cc:	66 0f fe d0          	paddd  %xmm0,%xmm2
  4053d0:	66 0f fe d9          	paddd  %xmm1,%xmm3
  4053d4:	f3 43 0f 7f 14 8e    	movdqu %xmm2,(%r14,%r9,4)
  4053da:	f3 43 0f 7f 5c 8e 10 	movdqu %xmm3,0x10(%r14,%r9,4)
  4053e1:	4d 39 da             	cmp    %r11,%r10
  4053e4:	4c 89 de             	mov    %r11,%rsi
  4053e7:	48 8b 43 20          	mov    0x20(%rbx),%rax
  4053eb:	49 89 c8             	mov    %rcx,%r8
  4053ee:	74 0f                	je     4053ff <parallel_radix_partition_optimized+0x28f>
  4053f0:	8b 0c b7             	mov    (%rdi,%rsi,4),%ecx
  4053f3:	41 01 0c b6          	add    %ecx,(%r14,%rsi,4)
  4053f7:	48 ff c6             	inc    %rsi
  4053fa:	4c 39 ee             	cmp    %r13,%rsi
  4053fd:	72 f1                	jb     4053f0 <parallel_radix_partition_optimized+0x280>
  4053ff:	48 ff c2             	inc    %rdx
  405402:	39 c2                	cmp    %eax,%edx
  405404:	0f 85 d6 fe ff ff    	jne    4052e0 <parallel_radix_partition_optimized+0x170>
  40540a:	48 8b 73 68          	mov    0x68(%rbx),%rsi
  40540e:	39 f0                	cmp    %esi,%eax
  405410:	4c 8b 43 70          	mov    0x70(%rbx),%r8
  405414:	0f 83 a3 01 00 00    	jae    4055bd <parallel_radix_partition_optimized+0x44d>
  40541a:	48 8b 43 60          	mov    0x60(%rbx),%rax
  40541e:	85 c0                	test   %eax,%eax
  405420:	0f 84 97 01 00 00    	je     4055bd <parallel_radix_partition_optimized+0x44d>
  405426:	49 83 fd 02          	cmp    $0x2,%r13
  40542a:	b8 02 00 00 00       	mov    $0x2,%eax
  40542f:	49 0f 47 c5          	cmova  %r13,%rax
  405433:	49 8d 4e 04          	lea    0x4(%r14),%rcx
  405437:	49 8d 54 86 fc       	lea    -0x4(%r14,%rax,4),%rdx
  40543c:	48 89 53 30          	mov    %rdx,0x30(%rbx)
  405440:	48 8d 50 ff          	lea    -0x1(%rax),%rdx
  405444:	4c 8d 58 fe          	lea    -0x2(%rax),%r11
  405448:	4c 8d 50 f7          	lea    -0x9(%rax),%r10
  40544c:	49 c1 ea 03          	shr    $0x3,%r10
  405450:	41 8d 7a 01          	lea    0x1(%r10),%edi
  405454:	49 89 d1             	mov    %rdx,%r9
  405457:	49 83 e1 f8          	and    $0xfffffffffffffff8,%r9
  40545b:	49 8d 41 01          	lea    0x1(%r9),%rax
  40545f:	48 89 43 48          	mov    %rax,0x48(%rbx)
  405463:	83 e7 01             	and    $0x1,%edi
  405466:	48 89 7b 50          	mov    %rdi,0x50(%rbx)
  40546a:	48 8d 47 ff          	lea    -0x1(%rdi),%rax
  40546e:	4c 89 53 20          	mov    %r10,0x20(%rbx)
  405472:	4c 29 d0             	sub    %r10,%rax
  405475:	48 89 43 40          	mov    %rax,0x40(%rbx)
  405479:	0f 1f 80 00 00 00 00 	nopl   0x0(%rax)
  405480:	48 83 fa 08          	cmp    $0x8,%rdx
  405484:	48 8b 43 38          	mov    0x38(%rbx),%rax
  405488:	4e 8b 14 e0          	mov    (%rax,%r12,8),%r10
  40548c:	bf 01 00 00 00       	mov    $0x1,%edi
  405491:	0f 82 09 01 00 00    	jb     4055a0 <parallel_radix_partition_optimized+0x430>
  405497:	4d 85 c9             	test   %r9,%r9
  40549a:	bf 01 00 00 00       	mov    $0x1,%edi
  40549f:	0f 84 fb 00 00 00    	je     4055a0 <parallel_radix_partition_optimized+0x430>
  4054a5:	4b 8d 3c 9a          	lea    (%r10,%r11,4),%rdi
  4054a9:	48 39 f9             	cmp    %rdi,%rcx
  4054ac:	77 0f                	ja     4054bd <parallel_radix_partition_optimized+0x34d>
  4054ae:	4c 3b 53 30          	cmp    0x30(%rbx),%r10
  4054b2:	bf 01 00 00 00       	mov    $0x1,%edi
  4054b7:	0f 86 e3 00 00 00    	jbe    4055a0 <parallel_radix_partition_optimized+0x430>
  4054bd:	4c 89 d8             	mov    %r11,%rax
  4054c0:	48 83 7b 20 00       	cmpq   $0x0,0x20(%rbx)
  4054c5:	41 bb 01 00 00 00    	mov    $0x1,%r11d
  4054cb:	0f 84 80 00 00 00    	je     405551 <parallel_radix_partition_optimized+0x3e1>
  4054d1:	4c 8b 43 40          	mov    0x40(%rbx),%r8
  4054d5:	41 bb 0c 00 00 00    	mov    $0xc,%r11d
  4054db:	0f 1f 44 00 00       	nopl   0x0(%rax,%rax,1)
  4054e0:	f3 43 0f 6f 44 9a d0 	movdqu -0x30(%r10,%r11,4),%xmm0
  4054e7:	f3 43 0f 6f 4c 9a e0 	movdqu -0x20(%r10,%r11,4),%xmm1
  4054ee:	f3 43 0f 6f 54 9e d4 	movdqu -0x2c(%r14,%r11,4),%xmm2
  4054f5:	f3 43 0f 6f 5c 9e e4 	movdqu -0x1c(%r14,%r11,4),%xmm3
  4054fc:	66 0f fe d0          	paddd  %xmm0,%xmm2
  405500:	66 0f fe d9          	paddd  %xmm1,%xmm3
  405504:	f3 43 0f 7f 54 9e d4 	movdqu %xmm2,-0x2c(%r14,%r11,4)
  40550b:	f3 43 0f 7f 5c 9e e4 	movdqu %xmm3,-0x1c(%r14,%r11,4)
  405512:	f3 43 0f 6f 44 9a f0 	movdqu -0x10(%r10,%r11,4),%xmm0
  405519:	f3 43 0f 6f 0c 9a    	movdqu (%r10,%r11,4),%xmm1
  40551f:	f3 43 0f 6f 54 9e f4 	movdqu -0xc(%r14,%r11,4),%xmm2
  405526:	f3 43 0f 6f 5c 9e 04 	movdqu 0x4(%r14,%r11,4),%xmm3
  40552d:	66 0f fe d0          	paddd  %xmm0,%xmm2
  405531:	66 0f fe d9          	paddd  %xmm1,%xmm3
  405535:	f3 43 0f 7f 54 9e f4 	movdqu %xmm2,-0xc(%r14,%r11,4)
  40553c:	f3 43 0f 7f 5c 9e 04 	movdqu %xmm3,0x4(%r14,%r11,4)
  405543:	49 83 c3 10          	add    $0x10,%r11
  405547:	49 83 c0 02          	add    $0x2,%r8
  40554b:	75 93                	jne    4054e0 <parallel_radix_partition_optimized+0x370>
  40554d:	49 83 c3 f5          	add    $0xfffffffffffffff5,%r11
  405551:	48 83 7b 50 00       	cmpq   $0x0,0x50(%rbx)
  405556:	74 30                	je     405588 <parallel_radix_partition_optimized+0x418>
  405558:	f3 43 0f 6f 44 9a fc 	movdqu -0x4(%r10,%r11,4),%xmm0
  40555f:	f3 43 0f 6f 4c 9a 0c 	movdqu 0xc(%r10,%r11,4),%xmm1
  405566:	f3 43 0f 6f 14 9e    	movdqu (%r14,%r11,4),%xmm2
  40556c:	f3 43 0f 6f 5c 9e 10 	movdqu 0x10(%r14,%r11,4),%xmm3
  405573:	66 0f fe d0          	paddd  %xmm0,%xmm2
  405577:	66 0f fe d9          	paddd  %xmm1,%xmm3
  40557b:	f3 43 0f 7f 14 9e    	movdqu %xmm2,(%r14,%r11,4)
  405581:	f3 43 0f 7f 5c 9e 10 	movdqu %xmm3,0x10(%r14,%r11,4)
  405588:	4c 39 ca             	cmp    %r9,%rdx
  40558b:	48 8b 7b 48          	mov    0x48(%rbx),%rdi
  40558f:	4c 8b 43 70          	mov    0x70(%rbx),%r8
  405593:	48 8b 73 68          	mov    0x68(%rbx),%rsi
  405597:	49 89 c3             	mov    %rax,%r11
  40559a:	74 15                	je     4055b1 <parallel_radix_partition_optimized+0x441>
  40559c:	0f 1f 40 00          	nopl   0x0(%rax)
  4055a0:	41 8b 44 ba fc       	mov    -0x4(%r10,%rdi,4),%eax
  4055a5:	41 01 04 be          	add    %eax,(%r14,%rdi,4)
  4055a9:	48 ff c7             	inc    %rdi
  4055ac:	4c 39 ef             	cmp    %r13,%rdi
  4055af:	72 ef                	jb     4055a0 <parallel_radix_partition_optimized+0x430>
  4055b1:	49 ff c4             	inc    %r12
  4055b4:	41 39 f4             	cmp    %esi,%r12d
  4055b7:	0f 85 c3 fe ff ff    	jne    405480 <parallel_radix_partition_optimized+0x310>
  4055bd:	48 8b 43 78          	mov    0x78(%rbx),%rax
  4055c1:	4c 8b 60 08          	mov    0x8(%rax),%r12
  4055c5:	48 89 e2             	mov    %rsp,%rdx
  4055c8:	4c 89 e9             	mov    %r13,%rcx
  4055cb:	48 c1 e1 06          	shl    $0x6,%rcx
  4055cf:	48 29 ca             	sub    %rcx,%rdx
  4055d2:	48 83 e2 c0          	and    $0xffffffffffffffc0,%rdx
  4055d6:	48 89 d4             	mov    %rdx,%rsp
  4055d9:	48 89 53 20          	mov    %rdx,0x20(%rbx)
  4055dd:	48 8d 4a 38          	lea    0x38(%rdx),%rcx
  4055e1:	31 d2                	xor    %edx,%edx
  4055e3:	31 f6                	xor    %esi,%esi
  4055e5:	44 8b 4b 5c          	mov    0x5c(%rbx),%r9d
  4055e9:	0f 1f 80 00 00 00 00 	nopl   0x0(%rax)
  4055f0:	41 8b 3c b6          	mov    (%r14,%rsi,4),%edi
  4055f4:	01 d7                	add    %edx,%edi
  4055f6:	41 89 3c b6          	mov    %edi,(%r14,%rsi,4)
  4055fa:	89 39                	mov    %edi,(%rcx)
  4055fc:	48 ff c6             	inc    %rsi
  4055ff:	48 83 c1 40          	add    $0x40,%rcx
  405603:	44 01 ca             	add    %r9d,%edx
  405606:	4c 39 ee             	cmp    %r13,%rsi
  405609:	72 e5                	jb     4055f0 <parallel_radix_partition_optimized+0x480>
  40560b:	48 8b 4b 60          	mov    0x60(%rbx),%rcx
  40560f:	41 d3 e1             	shl    %cl,%r9d
  405612:	44 03 48 2c          	add    0x2c(%rax),%r9d
  405616:	8b 43 2c             	mov    0x2c(%rbx),%eax
  405619:	85 c0                	test   %eax,%eax
  40561b:	47 89 0c ae          	mov    %r9d,(%r14,%r13,4)
  40561f:	44 8b 5b 28          	mov    0x28(%rbx),%r11d
  405623:	4c 8b 73 20          	mov    0x20(%rbx),%r14
  405627:	74 79                	je     4056a2 <parallel_radix_partition_optimized+0x532>
  405629:	0f 1f 80 00 00 00 00 	nopl   0x0(%rax)
  405630:	41 8b 17             	mov    (%r15),%edx
  405633:	44 21 da             	and    %r11d,%edx
  405636:	44 89 c1             	mov    %r8d,%ecx
  405639:	d3 ea                	shr    %cl,%edx
  40563b:	48 c1 e2 06          	shl    $0x6,%rdx
  40563f:	4d 8d 4c 16 38       	lea    0x38(%r14,%rdx,1),%r9
  405644:	4d 8d 14 16          	lea    (%r14,%rdx,1),%r10
  405648:	41 8b 4c 16 38       	mov    0x38(%r14,%rdx,1),%ecx
  40564d:	89 ce                	mov    %ecx,%esi
  40564f:	83 e6 07             	and    $0x7,%esi
  405652:	49 8b 3f             	mov    (%r15),%rdi
  405655:	49 89 3c f2          	mov    %rdi,(%r10,%rsi,8)
  405659:	83 fe 07             	cmp    $0x7,%esi
  40565c:	75 37                	jne    405695 <parallel_radix_partition_optimized+0x525>
  40565e:	f3 41 0f 6f 04 16    	movdqu (%r14,%rdx,1),%xmm0
  405664:	f3 41 0f 6f 4c 16 10 	movdqu 0x10(%r14,%rdx,1),%xmm1
  40566b:	f3 41 0f 6f 54 16 20 	movdqu 0x20(%r14,%rdx,1),%xmm2
  405672:	f3 41 0f 6f 5c 16 30 	movdqu 0x30(%r14,%rdx,1),%xmm3
  405679:	f3 41 0f 7f 5c cc f8 	movdqu %xmm3,-0x8(%r12,%rcx,8)
  405680:	f3 41 0f 7f 54 cc e8 	movdqu %xmm2,-0x18(%r12,%rcx,8)
  405687:	f3 41 0f 7f 4c cc d8 	movdqu %xmm1,-0x28(%r12,%rcx,8)
  40568e:	f3 41 0f 7f 44 cc c8 	movdqu %xmm0,-0x38(%r12,%rcx,8)
  405695:	ff c1                	inc    %ecx
  405697:	41 89 09             	mov    %ecx,(%r9)
  40569a:	49 83 c7 08          	add    $0x8,%r15
  40569e:	ff c8                	dec    %eax
  4056a0:	75 8e                	jne    405630 <parallel_radix_partition_optimized+0x4c0>
  4056a2:	4d 8d 46 18          	lea    0x18(%r14),%r8
  4056a6:	45 31 db             	xor    %r11d,%r11d
  4056a9:	4d 89 f1             	mov    %r14,%r9
  4056ac:	0f 1f 40 00          	nopl   0x0(%rax)
  4056b0:	4c 89 d9             	mov    %r11,%rcx
  4056b3:	48 c1 e1 06          	shl    $0x6,%rcx
  4056b7:	45 8b 54 0e 38       	mov    0x38(%r14,%rcx,1),%r10d
  4056bc:	45 89 d7             	mov    %r10d,%r15d
  4056bf:	41 83 e7 07          	and    $0x7,%r15d
  4056c3:	0f 84 ab 00 00 00    	je     405774 <parallel_radix_partition_optimized+0x604>
  4056c9:	44 89 d2             	mov    %r10d,%edx
  4056cc:	44 29 fa             	sub    %r15d,%edx
  4056cf:	41 8d 77 ff          	lea    -0x1(%r15),%esi
  4056d3:	41 83 e2 03          	and    $0x3,%r10d
  4056d7:	83 fe 03             	cmp    $0x3,%esi
  4056da:	73 04                	jae    4056e0 <parallel_radix_partition_optimized+0x570>
  4056dc:	31 f6                	xor    %esi,%esi
  4056de:	eb 6c                	jmp    40574c <parallel_radix_partition_optimized+0x5dc>
  4056e0:	4c 89 4b 30          	mov    %r9,0x30(%rbx)
  4056e4:	45 29 d7             	sub    %r10d,%r15d
  4056e7:	41 89 d6             	mov    %edx,%r14d
  4056ea:	4c 89 43 38          	mov    %r8,0x38(%rbx)
  4056ee:	4c 89 c7             	mov    %r8,%rdi
  4056f1:	31 f6                	xor    %esi,%esi
  4056f3:	66 66 66 66 2e 0f 1f 	data16 data16 data16 nopw %cs:0x0(%rax,%rax,1)
  4056fa:	84 00 00 00 00 00 
  405700:	49 8d 04 36          	lea    (%r14,%rsi,1),%rax
  405704:	41 89 c0             	mov    %eax,%r8d
  405707:	4c 8b 4f e8          	mov    -0x18(%rdi),%r9
  40570b:	4f 89 0c c4          	mov    %r9,(%r12,%r8,8)
  40570f:	44 8d 40 01          	lea    0x1(%rax),%r8d
  405713:	48 8b 4f f0          	mov    -0x10(%rdi),%rcx
  405717:	4b 89 0c c4          	mov    %rcx,(%r12,%r8,8)
  40571b:	44 8d 40 02          	lea    0x2(%rax),%r8d
  40571f:	48 8b 4f f8          	mov    -0x8(%rdi),%rcx
  405723:	4b 89 0c c4          	mov    %rcx,(%r12,%r8,8)
  405727:	83 c0 03             	add    $0x3,%eax
  40572a:	48 8b 0f             	mov    (%rdi),%rcx
  40572d:	49 89 0c c4          	mov    %rcx,(%r12,%rax,8)
  405731:	48 83 c6 04          	add    $0x4,%rsi
  405735:	48 83 c7 20          	add    $0x20,%rdi
  405739:	41 39 f7             	cmp    %esi,%r15d
  40573c:	75 c2                	jne    405700 <parallel_radix_partition_optimized+0x590>
  40573e:	01 f2                	add    %esi,%edx
  405740:	4c 8b 73 20          	mov    0x20(%rbx),%r14
  405744:	4c 8b 43 38          	mov    0x38(%rbx),%r8
  405748:	4c 8b 4b 30          	mov    0x30(%rbx),%r9
  40574c:	45 85 d2             	test   %r10d,%r10d
  40574f:	74 23                	je     405774 <parallel_radix_partition_optimized+0x604>
  405751:	49 8d 34 f1          	lea    (%r9,%rsi,8),%rsi
  405755:	41 f7 da             	neg    %r10d
  405758:	0f 1f 84 00 00 00 00 	nopl   0x0(%rax,%rax,1)
  40575f:	00 
  405760:	89 d7                	mov    %edx,%edi
  405762:	48 8b 06             	mov    (%rsi),%rax
  405765:	49 89 04 fc          	mov    %rax,(%r12,%rdi,8)
  405769:	ff c2                	inc    %edx
  40576b:	48 83 c6 08          	add    $0x8,%rsi
  40576f:	41 ff c2             	inc    %r10d
  405772:	75 ec                	jne    405760 <parallel_radix_partition_optimized+0x5f0>
  405774:	49 ff c3             	inc    %r11
  405777:	49 83 c0 40          	add    $0x40,%r8
  40577b:	49 83 c1 40          	add    $0x40,%r9
  40577f:	4d 39 eb             	cmp    %r13,%r11
  405782:	0f 82 28 ff ff ff    	jb     4056b0 <parallel_radix_partition_optimized+0x540>
  405788:	48 8d 65 d8          	lea    -0x28(%rbp),%rsp
  40578c:	5b                   	pop    %rbx
  40578d:	41 5c                	pop    %r12
  40578f:	41 5d                	pop    %r13
  405791:	41 5e                	pop    %r14
  405793:	41 5f                	pop    %r15
  405795:	5d                   	pop    %rbp
  405796:	c3                   	retq   
  405797:	bf 30 72 40 00       	mov    $0x407230,%edi
  40579c:	e8 cf b8 ff ff       	callq  401070 <puts@plt>
  4057a1:	bf 01 00 00 00       	mov    $0x1,%edi
  4057a6:	e8 e5 ba ff ff       	callq  401290 <exit@plt>
  4057ab:	0f 1f 44 00 00       	nopl   0x0(%rax,%rax,1)

00000000004057b0 <prj_thread>:
  4057b0:	55                   	push   %rbp
  4057b1:	48 89 e5             	mov    %rsp,%rbp
  4057b4:	41 57                	push   %r15
  4057b6:	41 56                	push   %r14
  4057b8:	41 55                	push   %r13
  4057ba:	41 54                	push   %r12
  4057bc:	53                   	push   %rbx
  4057bd:	48 83 e4 c0          	and    $0xffffffffffffffc0,%rsp
  4057c1:	48 81 ec 40 01 00 00 	sub    $0x140,%rsp
  4057c8:	49 89 fc             	mov    %rdi,%r12
  4057cb:	4c 8b 7f 78          	mov    0x78(%rdi),%r15
  4057cf:	bf 81 00 00 00       	mov    $0x81,%edi
  4057d4:	be 04 00 00 00       	mov    $0x4,%esi
  4057d9:	e8 b2 b9 ff ff       	callq  401190 <calloc@plt>
  4057de:	48 89 c3             	mov    %rax,%rbx
  4057e1:	bf 81 00 00 00       	mov    $0x81,%edi
  4057e6:	be 04 00 00 00       	mov    $0x4,%esi
  4057eb:	e8 a0 b9 ff ff       	callq  401190 <calloc@plt>
  4057f0:	48 89 5c 24 38       	mov    %rbx,0x38(%rsp)
  4057f5:	48 85 db             	test   %rbx,%rbx
  4057f8:	0f 84 d1 0b 00 00    	je     4063cf <prj_thread+0xc1f>
  4057fe:	48 85 c0             	test   %rax,%rax
  405801:	0f 84 c8 0b 00 00    	je     4063cf <prj_thread+0xc1f>
  405807:	48 89 44 24 40       	mov    %rax,0x40(%rsp)
  40580c:	4c 89 e3             	mov    %r12,%rbx
  40580f:	4c 8b 73 40          	mov    0x40(%rbx),%r14
  405813:	48 8b 43 48          	mov    0x48(%rbx),%rax
  405817:	48 89 44 24 48       	mov    %rax,0x48(%rsp)
  40581c:	48 8b 43 50          	mov    0x50(%rbx),%rax
  405820:	48 89 44 24 60       	mov    %rax,0x60(%rsp)
  405825:	bf 80 00 00 00       	mov    $0x80,%edi
  40582a:	be 04 00 00 00       	mov    $0x4,%esi
  40582f:	e8 5c b9 ff ff       	callq  401190 <calloc@plt>
  405834:	4d 63 ef             	movslq %r15d,%r13
  405837:	48 8b 0b             	mov    (%rbx),%rcx
  40583a:	4a 89 04 e9          	mov    %rax,(%rcx,%r13,8)
  40583e:	bf 80 00 00 00       	mov    $0x80,%edi
  405843:	be 04 00 00 00       	mov    $0x4,%esi
  405848:	e8 43 b9 ff ff       	callq  401190 <calloc@plt>
  40584d:	48 8b 4b 18          	mov    0x18(%rbx),%rcx
  405851:	4c 89 ac 24 f0 00 00 	mov    %r13,0xf0(%rsp)
  405858:	00 
  405859:	4a 89 04 e9          	mov    %rax,(%rcx,%r13,8)
  40585d:	c7 83 80 00 00 00 00 	movl   $0x0,0x80(%rbx)
  405864:	00 00 00 
  405867:	48 8b 7b 60          	mov    0x60(%rbx),%rdi
  40586b:	e8 50 ba ff ff       	callq  4012c0 <pthread_barrier_wait@plt>
  405870:	ff c0                	inc    %eax
  405872:	83 f8 02             	cmp    $0x2,%eax
  405875:	0f 83 40 0b 00 00    	jae    4063bb <prj_thread+0xc0b>
  40587b:	45 85 ff             	test   %r15d,%r15d
  40587e:	48 8b 4c 24 38       	mov    0x38(%rsp),%rcx
  405883:	4c 89 e6             	mov    %r12,%rsi
  405886:	75 46                	jne    4058ce <prj_thread+0x11e>
  405888:	48 8d be a0 00 00 00 	lea    0xa0(%rsi),%rdi
  40588f:	31 f6                	xor    %esi,%esi
  405891:	e8 6a b8 ff ff       	callq  401100 <gettimeofday@plt>
  405896:	4c 89 e6             	mov    %r12,%rsi
  405899:	48 8b 4c 24 38       	mov    0x38(%rsp),%rcx
  40589e:	0f 31                	rdtsc  
  4058a0:	48 c1 e2 20          	shl    $0x20,%rdx
  4058a4:	48 09 c2             	or     %rax,%rdx
  4058a7:	48 89 96 88 00 00 00 	mov    %rdx,0x88(%rsi)
  4058ae:	0f 31                	rdtsc  
  4058b0:	48 c1 e2 20          	shl    $0x20,%rdx
  4058b4:	48 09 c2             	or     %rax,%rdx
  4058b7:	48 89 96 90 00 00 00 	mov    %rdx,0x90(%rsi)
  4058be:	0f 31                	rdtsc  
  4058c0:	48 c1 e2 20          	shl    $0x20,%rdx
  4058c4:	48 09 c2             	or     %rax,%rdx
  4058c7:	48 89 96 98 00 00 00 	mov    %rdx,0x98(%rsi)
  4058ce:	4c 89 74 24 70       	mov    %r14,0x70(%rsp)
  4058d3:	48 89 b4 24 a0 00 00 	mov    %rsi,0xa0(%rsp)
  4058da:	00 
  4058db:	0f 10 46 08          	movups 0x8(%rsi),%xmm0
  4058df:	0f 29 84 24 80 00 00 	movaps %xmm0,0x80(%rsp)
  4058e6:	00 
  4058e7:	48 8b 06             	mov    (%rsi),%rax
  4058ea:	48 89 84 24 90 00 00 	mov    %rax,0x90(%rsp)
  4058f1:	00 
  4058f2:	48 89 8c 24 98 00 00 	mov    %rcx,0x98(%rsp)
  4058f9:	00 
  4058fa:	8b 46 30             	mov    0x30(%rsi),%eax
  4058fd:	89 84 24 a8 00 00 00 	mov    %eax,0xa8(%rsp)
  405904:	8b 46 38             	mov    0x38(%rsi),%eax
  405907:	89 84 24 ac 00 00 00 	mov    %eax,0xac(%rsp)
  40590e:	0f 28 05 2b 29 00 00 	movaps 0x292b(%rip),%xmm0        # 408240 <_IO_stdin_used+0x1120>
  405915:	0f 29 84 24 b0 00 00 	movaps %xmm0,0xb0(%rsp)
  40591c:	00 
  40591d:	4c 8d b4 24 80 00 00 	lea    0x80(%rsp),%r14
  405924:	00 
  405925:	4c 89 f7             	mov    %r14,%rdi
  405928:	48 89 f3             	mov    %rsi,%rbx
  40592b:	e8 f0 f1 ff ff       	callq  404b20 <parallel_radix_partition>
  405930:	0f 28 43 20          	movaps 0x20(%rbx),%xmm0
  405934:	0f 29 84 24 80 00 00 	movaps %xmm0,0x80(%rsp)
  40593b:	00 
  40593c:	48 8b 43 18          	mov    0x18(%rbx),%rax
  405940:	48 89 84 24 90 00 00 	mov    %rax,0x90(%rsp)
  405947:	00 
  405948:	48 8b 44 24 40       	mov    0x40(%rsp),%rax
  40594d:	48 89 84 24 98 00 00 	mov    %rax,0x98(%rsp)
  405954:	00 
  405955:	8b 43 34             	mov    0x34(%rbx),%eax
  405958:	89 84 24 a8 00 00 00 	mov    %eax,0xa8(%rsp)
  40595f:	8b 43 3c             	mov    0x3c(%rbx),%eax
  405962:	89 84 24 ac 00 00 00 	mov    %eax,0xac(%rsp)
  405969:	c7 84 24 b8 00 00 00 	movl   $0x1,0xb8(%rsp)
  405970:	01 00 00 00 
  405974:	4c 89 f7             	mov    %r14,%rdi
  405977:	e8 a4 f1 ff ff       	callq  404b20 <parallel_radix_partition>
  40597c:	48 8b 7b 60          	mov    0x60(%rbx),%rdi
  405980:	e8 3b b9 ff ff       	callq  4012c0 <pthread_barrier_wait@plt>
  405985:	ff c0                	inc    %eax
  405987:	83 f8 02             	cmp    $0x2,%eax
  40598a:	0f 83 2b 0a 00 00    	jae    4063bb <prj_thread+0xc0b>
  405990:	4c 89 7c 24 68       	mov    %r15,0x68(%rsp)
  405995:	45 85 ff             	test   %r15d,%r15d
  405998:	48 89 5c 24 30       	mov    %rbx,0x30(%rsp)
  40599d:	4c 8b 4c 24 38       	mov    0x38(%rsp),%r9
  4059a2:	4c 8b 5c 24 40       	mov    0x40(%rsp),%r11
  4059a7:	4c 8b 74 24 48       	mov    0x48(%rsp),%r14
  4059ac:	4c 8b 44 24 60       	mov    0x60(%rsp),%r8
  4059b1:	0f 85 3b 02 00 00    	jne    405bf2 <prj_thread+0x442>
  4059b7:	4c 8b 54 24 68       	mov    0x68(%rsp),%r10
  4059bc:	49 c1 ea 0d          	shr    $0xd,%r10
  4059c0:	41 81 e2 00 00 f8 ff 	and    $0xfff80000,%r10d
  4059c7:	31 f6                	xor    %esi,%esi
  4059c9:	4c 89 54 24 78       	mov    %r10,0x78(%rsp)
  4059ce:	66 90                	xchg   %ax,%ax
  4059d0:	49 89 f5             	mov    %rsi,%r13
  4059d3:	49 8d 75 01          	lea    0x1(%r13),%rsi
  4059d7:	47 8b 7c a9 04       	mov    0x4(%r9,%r13,4),%r15d
  4059dc:	47 2b 3c a9          	sub    (%r9,%r13,4),%r15d
  4059e0:	41 81 c7 e8 f3 ff ff 	add    $0xfffff3e8,%r15d
  4059e7:	43 8b 5c ab 04       	mov    0x4(%r11,%r13,4),%ebx
  4059ec:	43 2b 1c ab          	sub    (%r11,%r13,4),%ebx
  4059f0:	81 c3 e8 f3 ff ff    	add    $0xfffff3e8,%ebx
  4059f6:	45 39 d7             	cmp    %r10d,%r15d
  4059f9:	7f 45                	jg     405a40 <prj_thread+0x290>
  4059fb:	44 39 d3             	cmp    %r10d,%ebx
  4059fe:	7f 40                	jg     405a40 <prj_thread+0x290>
  405a00:	45 85 ff             	test   %r15d,%r15d
  405a03:	0f 8e dc 01 00 00    	jle    405be5 <prj_thread+0x435>
  405a09:	85 db                	test   %ebx,%ebx
  405a0b:	0f 8e d4 01 00 00    	jle    405be5 <prj_thread+0x435>
  405a11:	49 8b 56 58          	mov    0x58(%r14),%rdx
  405a15:	48 63 4a 10          	movslq 0x10(%rdx),%rcx
  405a19:	4d 63 66 64          	movslq 0x64(%r14),%r12
  405a1d:	44 39 e1             	cmp    %r12d,%ecx
  405a20:	0f 8d 07 01 00 00    	jge    405b2d <prj_thread+0x37d>
  405a26:	48 8d 04 c9          	lea    (%rcx,%rcx,8),%rax
  405a2a:	48 c1 e0 03          	shl    $0x3,%rax
  405a2e:	48 03 02             	add    (%rdx),%rax
  405a31:	8d 49 01             	lea    0x1(%rcx),%ecx
  405a34:	89 4a 10             	mov    %ecx,0x10(%rdx)
  405a37:	e9 4e 01 00 00       	jmpq   405b8a <prj_thread+0x3da>
  405a3c:	0f 1f 40 00          	nopl   0x0(%rax)
  405a40:	49 8b 50 58          	mov    0x58(%r8),%rdx
  405a44:	48 63 4a 10          	movslq 0x10(%rdx),%rcx
  405a48:	4d 63 60 64          	movslq 0x64(%r8),%r12
  405a4c:	44 39 e1             	cmp    %r12d,%ecx
  405a4f:	7d 1f                	jge    405a70 <prj_thread+0x2c0>
  405a51:	48 8d 04 c9          	lea    (%rcx,%rcx,8),%rax
  405a55:	48 c1 e0 03          	shl    $0x3,%rax
  405a59:	48 03 02             	add    (%rdx),%rax
  405a5c:	8d 49 01             	lea    0x1(%rcx),%ecx
  405a5f:	89 4a 10             	mov    %ecx,0x10(%rdx)
  405a62:	eb 69                	jmp    405acd <prj_thread+0x31d>
  405a64:	66 66 66 2e 0f 1f 84 	data16 data16 nopw %cs:0x0(%rax,%rax,1)
  405a6b:	00 00 00 00 00 
  405a70:	bf 18 00 00 00       	mov    $0x18,%edi
  405a75:	48 89 74 24 58       	mov    %rsi,0x58(%rsp)
  405a7a:	48 89 54 24 50       	mov    %rdx,0x50(%rsp)
  405a7f:	e8 7c b7 ff ff       	callq  401200 <malloc@plt>
  405a84:	49 89 c6             	mov    %rax,%r14
  405a87:	49 c1 e4 03          	shl    $0x3,%r12
  405a8b:	4b 8d 3c e4          	lea    (%r12,%r12,8),%rdi
  405a8f:	e8 6c b7 ff ff       	callq  401200 <malloc@plt>
  405a94:	48 8b 74 24 58       	mov    0x58(%rsp),%rsi
  405a99:	4c 8b 54 24 78       	mov    0x78(%rsp),%r10
  405a9e:	4c 8b 44 24 60       	mov    0x60(%rsp),%r8
  405aa3:	48 8b 4c 24 48       	mov    0x48(%rsp),%rcx
  405aa8:	4c 8b 5c 24 40       	mov    0x40(%rsp),%r11
  405aad:	4c 8b 4c 24 38       	mov    0x38(%rsp),%r9
  405ab2:	49 89 06             	mov    %rax,(%r14)
  405ab5:	41 c7 46 10 01 00 00 	movl   $0x1,0x10(%r14)
  405abc:	00 
  405abd:	48 8b 54 24 50       	mov    0x50(%rsp),%rdx
  405ac2:	49 89 56 08          	mov    %rdx,0x8(%r14)
  405ac6:	4d 89 70 58          	mov    %r14,0x58(%r8)
  405aca:	49 89 ce             	mov    %rcx,%r14
  405acd:	44 89 78 18          	mov    %r15d,0x18(%rax)
  405ad1:	44 89 78 08          	mov    %r15d,0x8(%rax)
  405ad5:	4b 63 0c a9          	movslq (%r9,%r13,4),%rcx
  405ad9:	48 c1 e1 03          	shl    $0x3,%rcx
  405add:	48 8b 7c 24 30       	mov    0x30(%rsp),%rdi
  405ae2:	48 8b 57 10          	mov    0x10(%rdi),%rdx
  405ae6:	48 01 ca             	add    %rcx,%rdx
  405ae9:	48 89 10             	mov    %rdx,(%rax)
  405aec:	48 03 4f 08          	add    0x8(%rdi),%rcx
  405af0:	48 89 48 10          	mov    %rcx,0x10(%rax)
  405af4:	89 58 38             	mov    %ebx,0x38(%rax)
  405af7:	89 58 28             	mov    %ebx,0x28(%rax)
  405afa:	4b 63 0c ab          	movslq (%r11,%r13,4),%rcx
  405afe:	48 c1 e1 03          	shl    $0x3,%rcx
  405b02:	48 8b 57 28          	mov    0x28(%rdi),%rdx
  405b06:	48 01 ca             	add    %rcx,%rdx
  405b09:	48 89 50 20          	mov    %rdx,0x20(%rax)
  405b0d:	49 89 fc             	mov    %rdi,%r12
  405b10:	48 03 4f 20          	add    0x20(%rdi),%rcx
  405b14:	48 89 48 30          	mov    %rcx,0x30(%rax)
  405b18:	49 8b 48 50          	mov    0x50(%r8),%rcx
  405b1c:	48 89 48 40          	mov    %rcx,0x40(%rax)
  405b20:	49 89 40 50          	mov    %rax,0x50(%r8)
  405b24:	41 ff 40 60          	incl   0x60(%r8)
  405b28:	e9 b8 00 00 00       	jmpq   405be5 <prj_thread+0x435>
  405b2d:	bf 18 00 00 00       	mov    $0x18,%edi
  405b32:	48 89 74 24 58       	mov    %rsi,0x58(%rsp)
  405b37:	48 89 54 24 50       	mov    %rdx,0x50(%rsp)
  405b3c:	e8 bf b6 ff ff       	callq  401200 <malloc@plt>
  405b41:	49 89 c6             	mov    %rax,%r14
  405b44:	49 c1 e4 03          	shl    $0x3,%r12
  405b48:	4b 8d 3c e4          	lea    (%r12,%r12,8),%rdi
  405b4c:	e8 af b6 ff ff       	callq  401200 <malloc@plt>
  405b51:	48 8b 74 24 58       	mov    0x58(%rsp),%rsi
  405b56:	4c 8b 54 24 78       	mov    0x78(%rsp),%r10
  405b5b:	4c 8b 44 24 60       	mov    0x60(%rsp),%r8
  405b60:	48 8b 4c 24 48       	mov    0x48(%rsp),%rcx
  405b65:	4c 8b 5c 24 40       	mov    0x40(%rsp),%r11
  405b6a:	4c 8b 4c 24 38       	mov    0x38(%rsp),%r9
  405b6f:	49 89 06             	mov    %rax,(%r14)
  405b72:	41 c7 46 10 01 00 00 	movl   $0x1,0x10(%r14)
  405b79:	00 
  405b7a:	48 8b 54 24 50       	mov    0x50(%rsp),%rdx
  405b7f:	49 89 56 08          	mov    %rdx,0x8(%r14)
  405b83:	4c 89 71 58          	mov    %r14,0x58(%rcx)
  405b87:	49 89 ce             	mov    %rcx,%r14
  405b8a:	44 89 78 18          	mov    %r15d,0x18(%rax)
  405b8e:	44 89 78 08          	mov    %r15d,0x8(%rax)
  405b92:	4b 63 0c a9          	movslq (%r9,%r13,4),%rcx
  405b96:	48 c1 e1 03          	shl    $0x3,%rcx
  405b9a:	48 8b 7c 24 30       	mov    0x30(%rsp),%rdi
  405b9f:	48 8b 57 10          	mov    0x10(%rdi),%rdx
  405ba3:	48 01 ca             	add    %rcx,%rdx
  405ba6:	48 89 10             	mov    %rdx,(%rax)
  405ba9:	48 03 4f 08          	add    0x8(%rdi),%rcx
  405bad:	48 89 48 10          	mov    %rcx,0x10(%rax)
  405bb1:	89 58 38             	mov    %ebx,0x38(%rax)
  405bb4:	89 58 28             	mov    %ebx,0x28(%rax)
  405bb7:	4b 63 0c ab          	movslq (%r11,%r13,4),%rcx
  405bbb:	48 c1 e1 03          	shl    $0x3,%rcx
  405bbf:	48 8b 57 28          	mov    0x28(%rdi),%rdx
  405bc3:	48 01 ca             	add    %rcx,%rdx
  405bc6:	48 89 50 20          	mov    %rdx,0x20(%rax)
  405bca:	49 89 fc             	mov    %rdi,%r12
  405bcd:	48 03 4f 20          	add    0x20(%rdi),%rcx
  405bd1:	48 89 48 30          	mov    %rcx,0x30(%rax)
  405bd5:	49 8b 4e 50          	mov    0x50(%r14),%rcx
  405bd9:	48 89 48 40          	mov    %rcx,0x40(%rax)
  405bdd:	49 89 46 50          	mov    %rax,0x50(%r14)
  405be1:	41 ff 46 60          	incl   0x60(%r14)
  405be5:	48 81 fe 80 00 00 00 	cmp    $0x80,%rsi
  405bec:	0f 85 de fd ff ff    	jne    4059d0 <prj_thread+0x220>
  405bf2:	49 8b 7c 24 60       	mov    0x60(%r12),%rdi
  405bf7:	e8 c4 b6 ff ff       	callq  4012c0 <pthread_barrier_wait@plt>
  405bfc:	ff c0                	inc    %eax
  405bfe:	83 f8 01             	cmp    $0x1,%eax
  405c01:	0f 87 b4 07 00 00    	ja     4063bb <prj_thread+0xc0b>
  405c07:	48 8b 5c 24 48       	mov    0x48(%rsp),%rbx
  405c0c:	48 89 df             	mov    %rbx,%rdi
  405c0f:	e8 cc b6 ff ff       	callq  4012e0 <pthread_mutex_lock@plt>
  405c14:	48 89 df             	mov    %rbx,%rdi
  405c17:	8b 47 60             	mov    0x60(%rdi),%eax
  405c1a:	85 c0                	test   %eax,%eax
  405c1c:	4c 8b 7c 24 68       	mov    0x68(%rsp),%r15
  405c21:	4c 8b 6c 24 70       	mov    0x70(%rsp),%r13
  405c26:	7e 4d                	jle    405c75 <prj_thread+0x4c5>
  405c28:	0f 1f 84 00 00 00 00 	nopl   0x0(%rax,%rax,1)
  405c2f:	00 
  405c30:	4c 8b 77 50          	mov    0x50(%rdi),%r14
  405c34:	49 8b 4e 40          	mov    0x40(%r14),%rcx
  405c38:	48 89 4f 50          	mov    %rcx,0x50(%rdi)
  405c3c:	ff c8                	dec    %eax
  405c3e:	89 47 60             	mov    %eax,0x60(%rdi)
  405c41:	48 89 fb             	mov    %rdi,%rbx
  405c44:	e8 a7 b5 ff ff       	callq  4011f0 <pthread_mutex_unlock@plt>
  405c49:	4d 85 f6             	test   %r14,%r14
  405c4c:	74 2c                	je     405c7a <prj_thread+0x4ca>
  405c4e:	ba 07 00 00 00       	mov    $0x7,%edx
  405c53:	b9 07 00 00 00       	mov    $0x7,%ecx
  405c58:	4c 89 f7             	mov    %r14,%rdi
  405c5b:	4c 89 ee             	mov    %r13,%rsi
  405c5e:	e8 7d ec ff ff       	callq  4048e0 <serial_radix_partition>
  405c63:	48 89 df             	mov    %rbx,%rdi
  405c66:	e8 75 b6 ff ff       	callq  4012e0 <pthread_mutex_lock@plt>
  405c6b:	8b 43 60             	mov    0x60(%rbx),%eax
  405c6e:	85 c0                	test   %eax,%eax
  405c70:	48 89 df             	mov    %rbx,%rdi
  405c73:	7f bb                	jg     405c30 <prj_thread+0x480>
  405c75:	e8 76 b5 ff ff       	callq  4011f0 <pthread_mutex_unlock@plt>
  405c7a:	c7 84 24 b0 00 00 00 	movl   $0x7,0xb0(%rsp)
  405c81:	07 00 00 00 
  405c85:	c7 84 24 b4 00 00 00 	movl   $0x7,0xb4(%rsp)
  405c8c:	07 00 00 00 
  405c90:	4c 89 e1             	mov    %r12,%rcx
  405c93:	48 89 8c 24 a0 00 00 	mov    %rcx,0xa0(%rsp)
  405c9a:	00 
  405c9b:	c7 84 24 bc 00 00 00 	movl   $0x18,0xbc(%rsp)
  405ca2:	18 00 00 00 
  405ca6:	4c 8b 44 24 38       	mov    0x38(%rsp),%r8
  405cab:	eb 0d                	jmp    405cba <prj_thread+0x50a>
  405cad:	0f 1f 00             	nopl   (%rax)
  405cb0:	4c 8b 7c 24 68       	mov    0x68(%rsp),%r15
  405cb5:	48 8b 4c 24 30       	mov    0x30(%rsp),%rcx
  405cba:	4d 89 c6             	mov    %r8,%r14
  405cbd:	45 85 ff             	test   %r15d,%r15d
  405cc0:	75 3e                	jne    405d00 <prj_thread+0x550>
  405cc2:	48 8b 5c 24 60       	mov    0x60(%rsp),%rbx
  405cc7:	48 89 df             	mov    %rbx,%rdi
  405cca:	e8 11 b6 ff ff       	callq  4012e0 <pthread_mutex_lock@plt>
  405ccf:	48 89 df             	mov    %rbx,%rdi
  405cd2:	8b 47 60             	mov    0x60(%rdi),%eax
  405cd5:	85 c0                	test   %eax,%eax
  405cd7:	bb 00 00 00 00       	mov    $0x0,%ebx
  405cdc:	7e 11                	jle    405cef <prj_thread+0x53f>
  405cde:	48 8b 5f 50          	mov    0x50(%rdi),%rbx
  405ce2:	48 8b 4b 40          	mov    0x40(%rbx),%rcx
  405ce6:	48 89 4f 50          	mov    %rcx,0x50(%rdi)
  405cea:	ff c8                	dec    %eax
  405cec:	89 47 60             	mov    %eax,0x60(%rdi)
  405cef:	e8 fc b4 ff ff       	callq  4011f0 <pthread_mutex_unlock@plt>
  405cf4:	48 8b 4c 24 30       	mov    0x30(%rsp),%rcx
  405cf9:	48 8b 41 58          	mov    0x58(%rcx),%rax
  405cfd:	48 89 18             	mov    %rbx,(%rax)
  405d00:	48 8b 79 60          	mov    0x60(%rcx),%rdi
  405d04:	48 89 cb             	mov    %rcx,%rbx
  405d07:	e8 b4 b5 ff ff       	callq  4012c0 <pthread_barrier_wait@plt>
  405d0c:	ff c0                	inc    %eax
  405d0e:	83 f8 02             	cmp    $0x2,%eax
  405d11:	0f 83 a4 06 00 00    	jae    4063bb <prj_thread+0xc0b>
  405d17:	48 8b 43 58          	mov    0x58(%rbx),%rax
  405d1b:	48 8b 00             	mov    (%rax),%rax
  405d1e:	48 85 c0             	test   %rax,%rax
  405d21:	4c 89 f7             	mov    %r14,%rdi
  405d24:	0f 84 de 04 00 00    	je     406208 <prj_thread+0xa58>
  405d2a:	8b 40 08             	mov    0x8(%rax),%eax
  405d2d:	31 d2                	xor    %edx,%edx
  405d2f:	f7 73 7c             	divl   0x7c(%rbx)
  405d32:	41 89 c6             	mov    %eax,%r14d
  405d35:	49 89 dc             	mov    %rbx,%r12
  405d38:	e8 f3 b2 ff ff       	callq  401030 <free@plt>
  405d3d:	48 8b 7c 24 40       	mov    0x40(%rsp),%rdi
  405d42:	e8 e9 b2 ff ff       	callq  401030 <free@plt>
  405d47:	bf 81 00 00 00       	mov    $0x81,%edi
  405d4c:	be 04 00 00 00       	mov    $0x4,%esi
  405d51:	e8 3a b4 ff ff       	callq  401190 <calloc@plt>
  405d56:	48 89 c3             	mov    %rax,%rbx
  405d59:	bf 81 00 00 00       	mov    $0x81,%edi
  405d5e:	be 04 00 00 00       	mov    $0x4,%esi
  405d63:	e8 28 b4 ff ff       	callq  401190 <calloc@plt>
  405d68:	49 89 c5             	mov    %rax,%r13
  405d6b:	49 8b 04 24          	mov    (%r12),%rax
  405d6f:	4c 8b bc 24 f0 00 00 	mov    0xf0(%rsp),%r15
  405d76:	00 
  405d77:	4a 8b 3c f8          	mov    (%rax,%r15,8),%rdi
  405d7b:	e8 b0 b2 ff ff       	callq  401030 <free@plt>
  405d80:	49 8b 44 24 18       	mov    0x18(%r12),%rax
  405d85:	4a 8b 3c f8          	mov    (%rax,%r15,8),%rdi
  405d89:	e8 a2 b2 ff ff       	callq  401030 <free@plt>
  405d8e:	bf 80 00 00 00       	mov    $0x80,%edi
  405d93:	be 04 00 00 00       	mov    $0x4,%esi
  405d98:	e8 f3 b3 ff ff       	callq  401190 <calloc@plt>
  405d9d:	49 8b 0c 24          	mov    (%r12),%rcx
  405da1:	4a 89 04 f9          	mov    %rax,(%rcx,%r15,8)
  405da5:	bf 80 00 00 00       	mov    $0x80,%edi
  405daa:	be 04 00 00 00       	mov    $0x4,%esi
  405daf:	e8 dc b3 ff ff       	callq  401190 <calloc@plt>
  405db4:	49 8b 4c 24 18       	mov    0x18(%r12),%rcx
  405db9:	4a 89 04 f9          	mov    %rax,(%rcx,%r15,8)
  405dbd:	49 8b 7c 24 60       	mov    0x60(%r12),%rdi
  405dc2:	e8 f9 b4 ff ff       	callq  4012c0 <pthread_barrier_wait@plt>
  405dc7:	ff c0                	inc    %eax
  405dc9:	83 f8 02             	cmp    $0x2,%eax
  405dcc:	0f 83 e9 05 00 00    	jae    4063bb <prj_thread+0xc0b>
  405dd2:	49 8b 44 24 58       	mov    0x58(%r12),%rax
  405dd7:	48 8b 00             	mov    (%rax),%rax
  405dda:	44 89 f1             	mov    %r14d,%ecx
  405ddd:	4c 8b 7c 24 68       	mov    0x68(%rsp),%r15
  405de2:	41 0f af cf          	imul   %r15d,%ecx
  405de6:	48 63 c9             	movslq %ecx,%rcx
  405de9:	48 8d 14 cd 00 00 00 	lea    0x0(,%rcx,8),%rdx
  405df0:	00 
  405df1:	48 03 10             	add    (%rax),%rdx
  405df4:	48 89 94 24 80 00 00 	mov    %rdx,0x80(%rsp)
  405dfb:	00 
  405dfc:	48 8b 50 10          	mov    0x10(%rax),%rdx
  405e00:	48 89 94 24 88 00 00 	mov    %rdx,0x88(%rsp)
  405e07:	00 
  405e08:	49 8b 14 24          	mov    (%r12),%rdx
  405e0c:	48 89 94 24 90 00 00 	mov    %rdx,0x90(%rsp)
  405e13:	00 
  405e14:	48 89 5c 24 38       	mov    %rbx,0x38(%rsp)
  405e19:	48 89 9c 24 98 00 00 	mov    %rbx,0x98(%rsp)
  405e20:	00 
  405e21:	41 8b 54 24 7c       	mov    0x7c(%r12),%edx
  405e26:	ff ca                	dec    %edx
  405e28:	8b 40 08             	mov    0x8(%rax),%eax
  405e2b:	89 c6                	mov    %eax,%esi
  405e2d:	29 ce                	sub    %ecx,%esi
  405e2f:	41 39 d7             	cmp    %edx,%r15d
  405e32:	41 0f 45 f6          	cmovne %r14d,%esi
  405e36:	89 b4 24 a8 00 00 00 	mov    %esi,0xa8(%rsp)
  405e3d:	89 84 24 ac 00 00 00 	mov    %eax,0xac(%rsp)
  405e44:	c7 84 24 b8 00 00 00 	movl   $0x2,0xb8(%rsp)
  405e4b:	02 00 00 00 
  405e4f:	4c 8d b4 24 80 00 00 	lea    0x80(%rsp),%r14
  405e56:	00 
  405e57:	4c 89 f7             	mov    %r14,%rdi
  405e5a:	e8 c1 ec ff ff       	callq  404b20 <parallel_radix_partition>
  405e5f:	49 8b 44 24 58       	mov    0x58(%r12),%rax
  405e64:	48 8b 30             	mov    (%rax),%rsi
  405e67:	8b 4e 28             	mov    0x28(%rsi),%ecx
  405e6a:	41 8b 7c 24 7c       	mov    0x7c(%r12),%edi
  405e6f:	31 d2                	xor    %edx,%edx
  405e71:	89 c8                	mov    %ecx,%eax
  405e73:	f7 f7                	div    %edi
  405e75:	89 c2                	mov    %eax,%edx
  405e77:	41 0f af d7          	imul   %r15d,%edx
  405e7b:	48 63 d2             	movslq %edx,%rdx
  405e7e:	48 8d 1c d5 00 00 00 	lea    0x0(,%rdx,8),%rbx
  405e85:	00 
  405e86:	48 03 5e 20          	add    0x20(%rsi),%rbx
  405e8a:	48 89 9c 24 80 00 00 	mov    %rbx,0x80(%rsp)
  405e91:	00 
  405e92:	48 8b 76 30          	mov    0x30(%rsi),%rsi
  405e96:	48 89 b4 24 88 00 00 	mov    %rsi,0x88(%rsp)
  405e9d:	00 
  405e9e:	49 8b 74 24 18       	mov    0x18(%r12),%rsi
  405ea3:	48 89 b4 24 90 00 00 	mov    %rsi,0x90(%rsp)
  405eaa:	00 
  405eab:	4c 89 6c 24 40       	mov    %r13,0x40(%rsp)
  405eb0:	4c 89 ac 24 98 00 00 	mov    %r13,0x98(%rsp)
  405eb7:	00 
  405eb8:	ff cf                	dec    %edi
  405eba:	89 ce                	mov    %ecx,%esi
  405ebc:	29 d6                	sub    %edx,%esi
  405ebe:	41 39 ff             	cmp    %edi,%r15d
  405ec1:	0f 45 f0             	cmovne %eax,%esi
  405ec4:	89 b4 24 a8 00 00 00 	mov    %esi,0xa8(%rsp)
  405ecb:	89 8c 24 ac 00 00 00 	mov    %ecx,0xac(%rsp)
  405ed2:	c7 84 24 b8 00 00 00 	movl   $0x2,0xb8(%rsp)
  405ed9:	02 00 00 00 
  405edd:	4c 89 f7             	mov    %r14,%rdi
  405ee0:	e8 3b ec ff ff       	callq  404b20 <parallel_radix_partition>
  405ee5:	49 8b 7c 24 60       	mov    0x60(%r12),%rdi
  405eea:	e8 d1 b3 ff ff       	callq  4012c0 <pthread_barrier_wait@plt>
  405eef:	ff c0                	inc    %eax
  405ef1:	83 f8 02             	cmp    $0x2,%eax
  405ef4:	0f 83 c1 04 00 00    	jae    4063bb <prj_thread+0xc0b>
  405efa:	45 85 ff             	test   %r15d,%r15d
  405efd:	4c 8b 44 24 38       	mov    0x38(%rsp),%r8
  405f02:	48 8b 4c 24 30       	mov    0x30(%rsp),%rcx
  405f07:	0f 85 ad fd ff ff    	jne    405cba <prj_thread+0x50a>
  405f0d:	44 8b 51 7c          	mov    0x7c(%rcx),%r10d
  405f11:	44 89 d0             	mov    %r10d,%eax
  405f14:	c1 e0 0c             	shl    $0xc,%eax
  405f17:	41 8d 4a ff          	lea    -0x1(%r10),%ecx
  405f1b:	89 8c 24 e4 00 00 00 	mov    %ecx,0xe4(%rsp)
  405f22:	31 c9                	xor    %ecx,%ecx
  405f24:	4c 8b 4c 24 40       	mov    0x40(%rsp),%r9
  405f29:	48 8b 7c 24 48       	mov    0x48(%rsp),%rdi
  405f2e:	4c 89 94 24 e8 00 00 	mov    %r10,0xe8(%rsp)
  405f35:	00 
  405f36:	89 84 24 e0 00 00 00 	mov    %eax,0xe0(%rsp)
  405f3d:	0f 1f 00             	nopl   (%rax)
  405f40:	49 89 cb             	mov    %rcx,%r11
  405f43:	49 8d 4b 01          	lea    0x1(%r11),%rcx
  405f47:	48 89 8c 24 f8 00 00 	mov    %rcx,0xf8(%rsp)
  405f4e:	00 
  405f4f:	43 8b 54 98 04       	mov    0x4(%r8,%r11,4),%edx
  405f54:	43 2b 14 98          	sub    (%r8,%r11,4),%edx
  405f58:	83 c2 e8             	add    $0xffffffe8,%edx
  405f5b:	43 8b 4c 99 04       	mov    0x4(%r9,%r11,4),%ecx
  405f60:	43 2b 0c 99          	sub    (%r9,%r11,4),%ecx
  405f64:	83 c1 e8             	add    $0xffffffe8,%ecx
  405f67:	89 54 24 50          	mov    %edx,0x50(%rsp)
  405f6b:	39 c2                	cmp    %eax,%edx
  405f6d:	7f 51                	jg     405fc0 <prj_thread+0x810>
  405f6f:	39 c1                	cmp    %eax,%ecx
  405f71:	7f 4d                	jg     405fc0 <prj_thread+0x810>
  405f73:	83 7c 24 50 00       	cmpl   $0x0,0x50(%rsp)
  405f78:	0f 8e 69 02 00 00    	jle    4061e7 <prj_thread+0xa37>
  405f7e:	85 c9                	test   %ecx,%ecx
  405f80:	0f 8e 61 02 00 00    	jle    4061e7 <prj_thread+0xa37>
  405f86:	89 4c 24 58          	mov    %ecx,0x58(%rsp)
  405f8a:	4c 8b 6c 24 70       	mov    0x70(%rsp),%r13
  405f8f:	4d 8b 75 58          	mov    0x58(%r13),%r14
  405f93:	49 63 4e 10          	movslq 0x10(%r14),%rcx
  405f97:	49 63 5d 64          	movslq 0x64(%r13),%rbx
  405f9b:	39 d9                	cmp    %ebx,%ecx
  405f9d:	0f 8d 83 01 00 00    	jge    406126 <prj_thread+0x976>
  405fa3:	48 8d 04 c9          	lea    (%rcx,%rcx,8),%rax
  405fa7:	48 c1 e0 03          	shl    $0x3,%rax
  405fab:	49 03 06             	add    (%r14),%rax
  405fae:	8d 49 01             	lea    0x1(%rcx),%ecx
  405fb1:	41 89 4e 10          	mov    %ecx,0x10(%r14)
  405fb5:	e9 c0 01 00 00       	jmpq   40617a <prj_thread+0x9ca>
  405fba:	66 0f 1f 44 00 00    	nopw   0x0(%rax,%rax,1)
  405fc0:	45 85 d2             	test   %r10d,%r10d
  405fc3:	0f 8e 1e 02 00 00    	jle    4061e7 <prj_thread+0xa37>
  405fc9:	48 8b 77 58          	mov    0x58(%rdi),%rsi
  405fcd:	44 8b 77 64          	mov    0x64(%rdi),%r14d
  405fd1:	89 c8                	mov    %ecx,%eax
  405fd3:	99                   	cltd   
  405fd4:	41 f7 fa             	idiv   %r10d
  405fd7:	41 89 c7             	mov    %eax,%r15d
  405fda:	31 db                	xor    %ebx,%ebx
  405fdc:	45 31 ed             	xor    %r13d,%r13d
  405fdf:	4c 89 9c 24 d8 00 00 	mov    %r11,0xd8(%rsp)
  405fe6:	00 
  405fe7:	44 89 7c 24 78       	mov    %r15d,0x78(%rsp)
  405fec:	0f 1f 40 00          	nopl   0x0(%rax)
  405ff0:	44 39 ac 24 e4 00 00 	cmp    %r13d,0xe4(%rsp)
  405ff7:	00 
  405ff8:	89 4c 24 58          	mov    %ecx,0x58(%rsp)
  405ffc:	44 0f 44 f9          	cmove  %ecx,%r15d
  406000:	48 63 4e 10          	movslq 0x10(%rsi),%rcx
  406004:	44 39 f1             	cmp    %r14d,%ecx
  406007:	7d 17                	jge    406020 <prj_thread+0x870>
  406009:	48 8d 04 c9          	lea    (%rcx,%rcx,8),%rax
  40600d:	48 c1 e0 03          	shl    $0x3,%rax
  406011:	48 03 06             	add    (%rsi),%rax
  406014:	8d 49 01             	lea    0x1(%rcx),%ecx
  406017:	49 89 f4             	mov    %rsi,%r12
  40601a:	89 4e 10             	mov    %ecx,0x10(%rsi)
  40601d:	eb 63                	jmp    406082 <prj_thread+0x8d2>
  40601f:	90                   	nop
  406020:	bf 18 00 00 00       	mov    $0x18,%edi
  406025:	48 89 b4 24 00 01 00 	mov    %rsi,0x100(%rsp)
  40602c:	00 
  40602d:	e8 ce b1 ff ff       	callq  401200 <malloc@plt>
  406032:	49 89 c4             	mov    %rax,%r12
  406035:	49 63 c6             	movslq %r14d,%rax
  406038:	48 c1 e0 03          	shl    $0x3,%rax
  40603c:	48 8d 3c c0          	lea    (%rax,%rax,8),%rdi
  406040:	e8 bb b1 ff ff       	callq  401200 <malloc@plt>
  406045:	4c 8b 9c 24 d8 00 00 	mov    0xd8(%rsp),%r11
  40604c:	00 
  40604d:	4c 8b 94 24 e8 00 00 	mov    0xe8(%rsp),%r10
  406054:	00 
  406055:	48 8b 7c 24 48       	mov    0x48(%rsp),%rdi
  40605a:	4c 8b 4c 24 40       	mov    0x40(%rsp),%r9
  40605f:	4c 8b 44 24 38       	mov    0x38(%rsp),%r8
  406064:	49 89 04 24          	mov    %rax,(%r12)
  406068:	41 c7 44 24 10 01 00 	movl   $0x1,0x10(%r12)
  40606f:	00 00 
  406071:	48 8b 8c 24 00 01 00 	mov    0x100(%rsp),%rcx
  406078:	00 
  406079:	49 89 4c 24 08       	mov    %rcx,0x8(%r12)
  40607e:	4c 89 67 58          	mov    %r12,0x58(%rdi)
  406082:	48 8b 54 24 30       	mov    0x30(%rsp),%rdx
  406087:	8b 4c 24 50          	mov    0x50(%rsp),%ecx
  40608b:	89 48 18             	mov    %ecx,0x18(%rax)
  40608e:	89 48 08             	mov    %ecx,0x8(%rax)
  406091:	48 8b 4a 58          	mov    0x58(%rdx),%rcx
  406095:	48 8b 11             	mov    (%rcx),%rdx
  406098:	4b 63 34 98          	movslq (%r8,%r11,4),%rsi
  40609c:	48 c1 e6 03          	shl    $0x3,%rsi
  4060a0:	48 8b 52 10          	mov    0x10(%rdx),%rdx
  4060a4:	48 01 f2             	add    %rsi,%rdx
  4060a7:	48 89 10             	mov    %rdx,(%rax)
  4060aa:	48 8b 11             	mov    (%rcx),%rdx
  4060ad:	48 03 32             	add    (%rdx),%rsi
  4060b0:	48 89 70 10          	mov    %rsi,0x10(%rax)
  4060b4:	44 89 78 38          	mov    %r15d,0x38(%rax)
  4060b8:	44 89 78 28          	mov    %r15d,0x28(%rax)
  4060bc:	48 8b 11             	mov    (%rcx),%rdx
  4060bf:	4b 63 34 99          	movslq (%r9,%r11,4),%rsi
  4060c3:	48 c1 e6 03          	shl    $0x3,%rsi
  4060c7:	48 8b 52 30          	mov    0x30(%rdx),%rdx
  4060cb:	48 01 f2             	add    %rsi,%rdx
  4060ce:	48 63 db             	movslq %ebx,%rbx
  4060d1:	48 8d 14 da          	lea    (%rdx,%rbx,8),%rdx
  4060d5:	48 89 50 20          	mov    %rdx,0x20(%rax)
  4060d9:	48 8b 09             	mov    (%rcx),%rcx
  4060dc:	48 03 71 20          	add    0x20(%rcx),%rsi
  4060e0:	48 8d 0c de          	lea    (%rsi,%rbx,8),%rcx
  4060e4:	48 89 48 30          	mov    %rcx,0x30(%rax)
  4060e8:	48 8b 4f 50          	mov    0x50(%rdi),%rcx
  4060ec:	48 89 48 40          	mov    %rcx,0x40(%rax)
  4060f0:	48 89 47 50          	mov    %rax,0x50(%rdi)
  4060f4:	4c 8b 77 60          	mov    0x60(%rdi),%r14
  4060f8:	41 8d 46 01          	lea    0x1(%r14),%eax
  4060fc:	89 47 60             	mov    %eax,0x60(%rdi)
  4060ff:	41 ff c5             	inc    %r13d
  406102:	49 c1 ee 20          	shr    $0x20,%r14
  406106:	44 8b 7c 24 78       	mov    0x78(%rsp),%r15d
  40610b:	44 01 fb             	add    %r15d,%ebx
  40610e:	8b 4c 24 58          	mov    0x58(%rsp),%ecx
  406112:	44 29 f9             	sub    %r15d,%ecx
  406115:	45 39 d5             	cmp    %r10d,%r13d
  406118:	4c 89 e6             	mov    %r12,%rsi
  40611b:	0f 8c cf fe ff ff    	jl     405ff0 <prj_thread+0x840>
  406121:	e9 c1 00 00 00       	jmpq   4061e7 <prj_thread+0xa37>
  406126:	bf 18 00 00 00       	mov    $0x18,%edi
  40612b:	4c 89 9c 24 d8 00 00 	mov    %r11,0xd8(%rsp)
  406132:	00 
  406133:	e8 c8 b0 ff ff       	callq  401200 <malloc@plt>
  406138:	49 89 c7             	mov    %rax,%r15
  40613b:	48 c1 e3 03          	shl    $0x3,%rbx
  40613f:	48 8d 3c db          	lea    (%rbx,%rbx,8),%rdi
  406143:	e8 b8 b0 ff ff       	callq  401200 <malloc@plt>
  406148:	4c 8b 9c 24 d8 00 00 	mov    0xd8(%rsp),%r11
  40614f:	00 
  406150:	4c 8b 94 24 e8 00 00 	mov    0xe8(%rsp),%r10
  406157:	00 
  406158:	48 8b 7c 24 48       	mov    0x48(%rsp),%rdi
  40615d:	4c 8b 4c 24 40       	mov    0x40(%rsp),%r9
  406162:	4c 8b 44 24 38       	mov    0x38(%rsp),%r8
  406167:	49 89 07             	mov    %rax,(%r15)
  40616a:	41 c7 47 10 01 00 00 	movl   $0x1,0x10(%r15)
  406171:	00 
  406172:	4d 89 77 08          	mov    %r14,0x8(%r15)
  406176:	4d 89 7d 58          	mov    %r15,0x58(%r13)
  40617a:	48 8b 54 24 30       	mov    0x30(%rsp),%rdx
  40617f:	8b 4c 24 50          	mov    0x50(%rsp),%ecx
  406183:	89 48 18             	mov    %ecx,0x18(%rax)
  406186:	89 48 08             	mov    %ecx,0x8(%rax)
  406189:	48 8b 4a 58          	mov    0x58(%rdx),%rcx
  40618d:	48 8b 11             	mov    (%rcx),%rdx
  406190:	4b 63 34 98          	movslq (%r8,%r11,4),%rsi
  406194:	48 c1 e6 03          	shl    $0x3,%rsi
  406198:	48 8b 52 10          	mov    0x10(%rdx),%rdx
  40619c:	48 01 f2             	add    %rsi,%rdx
  40619f:	48 89 10             	mov    %rdx,(%rax)
  4061a2:	48 8b 11             	mov    (%rcx),%rdx
  4061a5:	48 03 32             	add    (%rdx),%rsi
  4061a8:	48 89 70 10          	mov    %rsi,0x10(%rax)
  4061ac:	8b 54 24 58          	mov    0x58(%rsp),%edx
  4061b0:	89 50 38             	mov    %edx,0x38(%rax)
  4061b3:	89 50 28             	mov    %edx,0x28(%rax)
  4061b6:	48 8b 11             	mov    (%rcx),%rdx
  4061b9:	4b 63 34 99          	movslq (%r9,%r11,4),%rsi
  4061bd:	48 c1 e6 03          	shl    $0x3,%rsi
  4061c1:	48 8b 52 30          	mov    0x30(%rdx),%rdx
  4061c5:	48 01 f2             	add    %rsi,%rdx
  4061c8:	48 89 50 20          	mov    %rdx,0x20(%rax)
  4061cc:	48 8b 09             	mov    (%rcx),%rcx
  4061cf:	48 03 71 20          	add    0x20(%rcx),%rsi
  4061d3:	48 89 70 30          	mov    %rsi,0x30(%rax)
  4061d7:	49 8b 4d 50          	mov    0x50(%r13),%rcx
  4061db:	48 89 48 40          	mov    %rcx,0x40(%rax)
  4061df:	49 89 45 50          	mov    %rax,0x50(%r13)
  4061e3:	41 ff 45 60          	incl   0x60(%r13)
  4061e7:	48 8b 8c 24 f8 00 00 	mov    0xf8(%rsp),%rcx
  4061ee:	00 
  4061ef:	48 81 f9 80 00 00 00 	cmp    $0x80,%rcx
  4061f6:	8b 84 24 e0 00 00 00 	mov    0xe0(%rsp),%eax
  4061fd:	0f 85 3d fd ff ff    	jne    405f40 <prj_thread+0x790>
  406203:	e9 a8 fa ff ff       	jmpq   405cb0 <prj_thread+0x500>
  406208:	45 85 ff             	test   %r15d,%r15d
  40620b:	48 8b 5c 24 48       	mov    0x48(%rsp),%rbx
  406210:	75 68                	jne    40627a <prj_thread+0xaca>
  406212:	48 89 df             	mov    %rbx,%rdi
  406215:	e8 c6 b0 ff ff       	callq  4012e0 <pthread_mutex_lock@plt>
  40621a:	8b 43 60             	mov    0x60(%rbx),%eax
  40621d:	85 c0                	test   %eax,%eax
  40621f:	48 89 df             	mov    %rbx,%rdi
  406222:	7e 51                	jle    406275 <prj_thread+0xac5>
  406224:	66 66 66 2e 0f 1f 84 	data16 data16 nopw %cs:0x0(%rax,%rax,1)
  40622b:	00 00 00 00 00 
  406230:	48 8b 5f 50          	mov    0x50(%rdi),%rbx
  406234:	48 8b 4b 40          	mov    0x40(%rbx),%rcx
  406238:	48 89 4f 50          	mov    %rcx,0x50(%rdi)
  40623c:	ff c8                	dec    %eax
  40623e:	89 47 60             	mov    %eax,0x60(%rdi)
  406241:	49 89 fd             	mov    %rdi,%r13
  406244:	e8 a7 af ff ff       	callq  4011f0 <pthread_mutex_unlock@plt>
  406249:	48 85 db             	test   %rbx,%rbx
  40624c:	74 2c                	je     40627a <prj_thread+0xaca>
  40624e:	48 8b 4c 24 70       	mov    0x70(%rsp),%rcx
  406253:	48 8b 41 50          	mov    0x50(%rcx),%rax
  406257:	48 89 43 40          	mov    %rax,0x40(%rbx)
  40625b:	48 89 59 50          	mov    %rbx,0x50(%rcx)
  40625f:	ff 41 60             	incl   0x60(%rcx)
  406262:	4c 89 ef             	mov    %r13,%rdi
  406265:	e8 76 b0 ff ff       	callq  4012e0 <pthread_mutex_lock@plt>
  40626a:	41 8b 45 60          	mov    0x60(%r13),%eax
  40626e:	85 c0                	test   %eax,%eax
  406270:	4c 89 ef             	mov    %r13,%rdi
  406273:	7f bb                	jg     406230 <prj_thread+0xa80>
  406275:	e8 76 af ff ff       	callq  4011f0 <pthread_mutex_unlock@plt>
  40627a:	4c 89 f7             	mov    %r14,%rdi
  40627d:	e8 ae ad ff ff       	callq  401030 <free@plt>
  406282:	48 8b 7c 24 40       	mov    0x40(%rsp),%rdi
  406287:	e8 a4 ad ff ff       	callq  401030 <free@plt>
  40628c:	48 8b 44 24 30       	mov    0x30(%rsp),%rax
  406291:	48 8b 78 60          	mov    0x60(%rax),%rdi
  406295:	e8 26 b0 ff ff       	callq  4012c0 <pthread_barrier_wait@plt>
  40629a:	ff c0                	inc    %eax
  40629c:	83 f8 02             	cmp    $0x2,%eax
  40629f:	0f 83 16 01 00 00    	jae    4063bb <prj_thread+0xc0b>
  4062a5:	45 85 ff             	test   %r15d,%r15d
  4062a8:	4c 8b 6c 24 70       	mov    0x70(%rsp),%r13
  4062ad:	75 1c                	jne    4062cb <prj_thread+0xb1b>
  4062af:	0f 31                	rdtsc  
  4062b1:	48 c1 e2 20          	shl    $0x20,%rdx
  4062b5:	48 09 c2             	or     %rax,%rdx
  4062b8:	48 8b 44 24 30       	mov    0x30(%rsp),%rax
  4062bd:	48 2b 90 98 00 00 00 	sub    0x98(%rax),%rdx
  4062c4:	48 89 90 98 00 00 00 	mov    %rdx,0x98(%rax)
  4062cb:	4c 89 ef             	mov    %r13,%rdi
  4062ce:	e8 0d b0 ff ff       	callq  4012e0 <pthread_mutex_lock@plt>
  4062d3:	41 8b 45 60          	mov    0x60(%r13),%eax
  4062d7:	31 db                	xor    %ebx,%ebx
  4062d9:	85 c0                	test   %eax,%eax
  4062db:	7e 63                	jle    406340 <prj_thread+0xb90>
  4062dd:	45 31 f6             	xor    %r14d,%r14d
  4062e0:	4c 8b 64 24 30       	mov    0x30(%rsp),%r12
  4062e5:	66 66 2e 0f 1f 84 00 	data16 nopw %cs:0x0(%rax,%rax,1)
  4062ec:	00 00 00 00 
  4062f0:	49 8b 5d 50          	mov    0x50(%r13),%rbx
  4062f4:	48 8b 4b 40          	mov    0x40(%rbx),%rcx
  4062f8:	49 89 4d 50          	mov    %rcx,0x50(%r13)
  4062fc:	ff c8                	dec    %eax
  4062fe:	41 89 45 60          	mov    %eax,0x60(%r13)
  406302:	4c 89 ef             	mov    %r13,%rdi
  406305:	e8 e6 ae ff ff       	callq  4011f0 <pthread_mutex_unlock@plt>
  40630a:	48 85 db             	test   %rbx,%rbx
  40630d:	74 3c                	je     40634b <prj_thread+0xb9b>
  40630f:	48 8d 73 20          	lea    0x20(%rbx),%rsi
  406313:	48 8d 53 10          	lea    0x10(%rbx),%rdx
  406317:	48 89 df             	mov    %rbx,%rdi
  40631a:	41 ff 54 24 68       	callq  *0x68(%r12)
  40631f:	48 89 c3             	mov    %rax,%rbx
  406322:	4c 01 f3             	add    %r14,%rbx
  406325:	41 ff 84 24 80 00 00 	incl   0x80(%r12)
  40632c:	00 
  40632d:	4c 89 ef             	mov    %r13,%rdi
  406330:	e8 ab af ff ff       	callq  4012e0 <pthread_mutex_lock@plt>
  406335:	41 8b 45 60          	mov    0x60(%r13),%eax
  406339:	85 c0                	test   %eax,%eax
  40633b:	49 89 de             	mov    %rbx,%r14
  40633e:	7f b0                	jg     4062f0 <prj_thread+0xb40>
  406340:	4c 89 ef             	mov    %r13,%rdi
  406343:	e8 a8 ae ff ff       	callq  4011f0 <pthread_mutex_unlock@plt>
  406348:	49 89 de             	mov    %rbx,%r14
  40634b:	48 8b 44 24 30       	mov    0x30(%rsp),%rax
  406350:	4c 89 70 70          	mov    %r14,0x70(%rax)
  406354:	48 8b 78 60          	mov    0x60(%rax),%rdi
  406358:	e8 63 af ff ff       	callq  4012c0 <pthread_barrier_wait@plt>
  40635d:	ff c0                	inc    %eax
  40635f:	83 f8 02             	cmp    $0x2,%eax
  406362:	73 57                	jae    4063bb <prj_thread+0xc0b>
  406364:	45 85 ff             	test   %r15d,%r15d
  406367:	75 41                	jne    4063aa <prj_thread+0xbfa>
  406369:	0f 31                	rdtsc  
  40636b:	48 c1 e2 20          	shl    $0x20,%rdx
  40636f:	48 09 c2             	or     %rax,%rdx
  406372:	48 8b 7c 24 30       	mov    0x30(%rsp),%rdi
  406377:	48 2b 97 90 00 00 00 	sub    0x90(%rdi),%rdx
  40637e:	48 89 97 90 00 00 00 	mov    %rdx,0x90(%rdi)
  406385:	0f 31                	rdtsc  
  406387:	48 c1 e2 20          	shl    $0x20,%rdx
  40638b:	48 09 c2             	or     %rax,%rdx
  40638e:	48 2b 97 88 00 00 00 	sub    0x88(%rdi),%rdx
  406395:	48 89 97 88 00 00 00 	mov    %rdx,0x88(%rdi)
  40639c:	48 81 c7 b0 00 00 00 	add    $0xb0,%rdi
  4063a3:	31 f6                	xor    %esi,%esi
  4063a5:	e8 56 ad ff ff       	callq  401100 <gettimeofday@plt>
  4063aa:	31 c0                	xor    %eax,%eax
  4063ac:	48 8d 65 d8          	lea    -0x28(%rbp),%rsp
  4063b0:	5b                   	pop    %rbx
  4063b1:	41 5c                	pop    %r12
  4063b3:	41 5d                	pop    %r13
  4063b5:	41 5e                	pop    %r14
  4063b7:	41 5f                	pop    %r15
  4063b9:	5d                   	pop    %rbp
  4063ba:	c3                   	retq   
  4063bb:	bf 30 72 40 00       	mov    $0x407230,%edi
  4063c0:	e8 ab ac ff ff       	callq  401070 <puts@plt>
  4063c5:	bf 01 00 00 00       	mov    $0x1,%edi
  4063ca:	e8 c1 ae ff ff       	callq  401290 <exit@plt>
  4063cf:	bf 50 82 40 00       	mov    $0x408250,%edi
  4063d4:	be 6f 82 40 00       	mov    $0x40826f,%esi
  4063d9:	ba b1 03 00 00       	mov    $0x3b1,%edx
  4063de:	31 c0                	xor    %eax,%eax
  4063e0:	e8 0b ad ff ff       	callq  4010f0 <printf@plt>
  4063e5:	bf 8c 82 40 00       	mov    $0x40828c,%edi
  4063ea:	e8 61 ae ff ff       	callq  401250 <perror@plt>
  4063ef:	bf 01 00 00 00       	mov    $0x1,%edi
  4063f4:	e8 97 ae ff ff       	callq  401290 <exit@plt>
  4063f9:	0f 1f 80 00 00 00 00 	nopl   0x0(%rax)

0000000000406400 <join_init_run>:
  406400:	55                   	push   %rbp
  406401:	48 89 e5             	mov    %rsp,%rbp
  406404:	41 57                	push   %r15
  406406:	41 56                	push   %r14
  406408:	41 55                	push   %r13
  40640a:	41 54                	push   %r12
  40640c:	53                   	push   %rbx
  40640d:	48 83 e4 c0          	and    $0xffffffffffffffc0,%rsp
  406411:	48 81 ec c0 01 00 00 	sub    $0x1c0,%rsp
  406418:	48 89 e3             	mov    %rsp,%rbx
  40641b:	41 89 cf             	mov    %ecx,%r15d
  40641e:	48 89 93 90 00 00 00 	mov    %rdx,0x90(%rbx)
  406425:	48 89 73 18          	mov    %rsi,0x18(%rbx)
  406429:	49 89 fd             	mov    %rdi,%r13
  40642c:	44 89 f8             	mov    %r15d,%eax
  40642f:	48 8d 0c c5 0f 00 00 	lea    0xf(,%rax,8),%rcx
  406436:	00 
  406437:	48 ba f0 ff ff ff 0f 	movabs $0xffffffff0,%rdx
  40643e:	00 00 00 
  406441:	48 21 ca             	and    %rcx,%rdx
  406444:	48 89 e1             	mov    %rsp,%rcx
  406447:	48 29 d1             	sub    %rdx,%rcx
  40644a:	48 89 4b 68          	mov    %rcx,0x68(%rbx)
  40644e:	48 89 cc             	mov    %rcx,%rsp
  406451:	48 89 e1             	mov    %rsp,%rcx
  406454:	48 c1 e0 06          	shl    $0x6,%rax
  406458:	48 8d 04 40          	lea    (%rax,%rax,2),%rax
  40645c:	48 29 c1             	sub    %rax,%rcx
  40645f:	48 83 e1 c0          	and    $0xffffffffffffffc0,%rcx
  406463:	48 89 4b 28          	mov    %rcx,0x28(%rbx)
  406467:	48 89 cc             	mov    %rcx,%rsp
  40646a:	48 c7 83 98 00 00 00 	movq   $0x0,0x98(%rbx)
  406471:	00 00 00 00 
  406475:	bf 68 00 00 00       	mov    $0x68,%edi
  40647a:	e8 81 ad ff ff       	callq  401200 <malloc@plt>
  40647f:	49 89 c4             	mov    %rax,%r12
  406482:	bf 18 00 00 00       	mov    $0x18,%edi
  406487:	e8 74 ad ff ff       	callq  401200 <malloc@plt>
  40648c:	49 89 c6             	mov    %rax,%r14
  40648f:	4d 89 74 24 58       	mov    %r14,0x58(%r12)
  406494:	bf 00 24 00 00       	mov    $0x2400,%edi
  406499:	e8 62 ad ff ff       	callq  401200 <malloc@plt>
  40649e:	49 89 06             	mov    %rax,(%r14)
  4064a1:	41 c7 46 10 00 00 00 	movl   $0x0,0x10(%r14)
  4064a8:	00 
  4064a9:	49 c7 46 08 00 00 00 	movq   $0x0,0x8(%r14)
  4064b0:	00 
  4064b1:	41 c7 44 24 60 00 00 	movl   $0x0,0x60(%r12)
  4064b8:	00 00 
  4064ba:	41 c7 44 24 64 80 00 	movl   $0x80,0x64(%r12)
  4064c1:	00 00 
  4064c3:	49 c7 44 24 50 00 00 	movq   $0x0,0x50(%r12)
  4064ca:	00 00 
  4064cc:	31 f6                	xor    %esi,%esi
  4064ce:	4c 89 e7             	mov    %r12,%rdi
  4064d1:	e8 fa ad ff ff       	callq  4012d0 <pthread_mutex_init@plt>
  4064d6:	4c 89 63 58          	mov    %r12,0x58(%rbx)
  4064da:	49 8d 7c 24 28       	lea    0x28(%r12),%rdi
  4064df:	31 f6                	xor    %esi,%esi
  4064e1:	e8 ea ad ff ff       	callq  4012d0 <pthread_mutex_init@plt>
  4064e6:	bf 68 00 00 00       	mov    $0x68,%edi
  4064eb:	e8 10 ad ff ff       	callq  401200 <malloc@plt>
  4064f0:	49 89 c4             	mov    %rax,%r12
  4064f3:	bf 18 00 00 00       	mov    $0x18,%edi
  4064f8:	e8 03 ad ff ff       	callq  401200 <malloc@plt>
  4064fd:	49 89 c6             	mov    %rax,%r14
  406500:	4d 89 74 24 58       	mov    %r14,0x58(%r12)
  406505:	bf 00 24 00 00       	mov    $0x2400,%edi
  40650a:	e8 f1 ac ff ff       	callq  401200 <malloc@plt>
  40650f:	49 89 06             	mov    %rax,(%r14)
  406512:	41 c7 46 10 00 00 00 	movl   $0x0,0x10(%r14)
  406519:	00 
  40651a:	49 c7 46 08 00 00 00 	movq   $0x0,0x8(%r14)
  406521:	00 
  406522:	41 c7 44 24 60 00 00 	movl   $0x0,0x60(%r12)
  406529:	00 00 
  40652b:	41 c7 44 24 64 80 00 	movl   $0x80,0x64(%r12)
  406532:	00 00 
  406534:	49 c7 44 24 50 00 00 	movq   $0x0,0x50(%r12)
  40653b:	00 00 
  40653d:	31 f6                	xor    %esi,%esi
  40653f:	4c 89 e7             	mov    %r12,%rdi
  406542:	e8 89 ad ff ff       	callq  4012d0 <pthread_mutex_init@plt>
  406547:	4c 89 63 50          	mov    %r12,0x50(%rbx)
  40654b:	49 8d 7c 24 28       	lea    0x28(%r12),%rdi
  406550:	31 f6                	xor    %esi,%esi
  406552:	e8 79 ad ff ff       	callq  4012d0 <pthread_mutex_init@plt>
  406557:	bf 68 00 00 00       	mov    $0x68,%edi
  40655c:	e8 9f ac ff ff       	callq  401200 <malloc@plt>
  406561:	49 89 c4             	mov    %rax,%r12
  406564:	bf 18 00 00 00       	mov    $0x18,%edi
  406569:	e8 92 ac ff ff       	callq  401200 <malloc@plt>
  40656e:	49 89 c6             	mov    %rax,%r14
  406571:	4d 89 74 24 58       	mov    %r14,0x58(%r12)
  406576:	bf 00 00 12 00       	mov    $0x120000,%edi
  40657b:	e8 80 ac ff ff       	callq  401200 <malloc@plt>
  406580:	49 89 06             	mov    %rax,(%r14)
  406583:	41 c7 46 10 00 00 00 	movl   $0x0,0x10(%r14)
  40658a:	00 
  40658b:	49 c7 46 08 00 00 00 	movq   $0x0,0x8(%r14)
  406592:	00 
  406593:	41 c7 44 24 60 00 00 	movl   $0x0,0x60(%r12)
  40659a:	00 00 
  40659c:	41 c7 44 24 64 00 40 	movl   $0x4000,0x64(%r12)
  4065a3:	00 00 
  4065a5:	49 c7 44 24 50 00 00 	movq   $0x0,0x50(%r12)
  4065ac:	00 00 
  4065ae:	31 f6                	xor    %esi,%esi
  4065b0:	4c 89 e7             	mov    %r12,%rdi
  4065b3:	e8 18 ad ff ff       	callq  4012d0 <pthread_mutex_init@plt>
  4065b8:	4c 89 63 48          	mov    %r12,0x48(%rbx)
  4065bc:	49 8d 7c 24 28       	lea    0x28(%r12),%rdi
  4065c1:	31 f6                	xor    %esi,%esi
  4065c3:	e8 08 ad ff ff       	callq  4012d0 <pthread_mutex_init@plt>
  4065c8:	4c 89 6b 40          	mov    %r13,0x40(%rbx)
  4065cc:	41 8b 45 08          	mov    0x8(%r13),%eax
  4065d0:	48 8d 14 c5 00 60 30 	lea    0x306000(,%rax,8),%rdx
  4065d7:	00 
  4065d8:	48 8d bb a0 00 00 00 	lea    0xa0(%rbx),%rdi
  4065df:	be 40 00 00 00       	mov    $0x40,%esi
  4065e4:	e8 c7 ac ff ff       	callq  4012b0 <posix_memalign@plt>
  4065e9:	85 c0                	test   %eax,%eax
  4065eb:	0f 85 b8 04 00 00    	jne    406aa9 <join_init_run+0x6a9>
  4065f1:	48 8b 83 a0 00 00 00 	mov    0xa0(%rbx),%rax
  4065f8:	48 89 43 10          	mov    %rax,0x10(%rbx)
  4065fc:	48 8b 43 18          	mov    0x18(%rbx),%rax
  406600:	8b 40 08             	mov    0x8(%rax),%eax
  406603:	48 8d 14 c5 00 60 30 	lea    0x306000(,%rax,8),%rdx
  40660a:	00 
  40660b:	48 8d bb a0 00 00 00 	lea    0xa0(%rbx),%rdi
  406612:	be 40 00 00 00       	mov    $0x40,%esi
  406617:	e8 94 ac ff ff       	callq  4012b0 <posix_memalign@plt>
  40661c:	85 c0                	test   %eax,%eax
  40661e:	0f 85 bf 04 00 00    	jne    406ae3 <join_init_run+0x6e3>
  406624:	48 83 7b 10 00       	cmpq   $0x0,0x10(%rbx)
  406629:	0f 84 be 04 00 00    	je     406aed <join_init_run+0x6ed>
  40662f:	48 8b 83 a0 00 00 00 	mov    0xa0(%rbx),%rax
  406636:	48 89 43 38          	mov    %rax,0x38(%rbx)
  40663a:	48 85 c0             	test   %rax,%rax
  40663d:	0f 84 aa 04 00 00    	je     406aed <join_init_run+0x6ed>
  406643:	83 3d a2 49 20 00 00 	cmpl   $0x0,0x2049a2(%rip)        # 60afec <numalocalize>
  40664a:	74 26                	je     406672 <join_init_run+0x272>
  40664c:	48 8b 43 40          	mov    0x40(%rbx),%rax
  406650:	8b 70 08             	mov    0x8(%rax),%esi
  406653:	48 8b 7b 10          	mov    0x10(%rbx),%rdi
  406657:	44 89 fa             	mov    %r15d,%edx
  40665a:	e8 01 c0 ff ff       	callq  402660 <numa_localize>
  40665f:	48 8b 43 18          	mov    0x18(%rbx),%rax
  406663:	8b 70 08             	mov    0x8(%rax),%esi
  406666:	48 8b 7b 38          	mov    0x38(%rbx),%rdi
  40666a:	44 89 fa             	mov    %r15d,%edx
  40666d:	e8 ee bf ff ff       	callq  402660 <numa_localize>
  406672:	49 63 c7             	movslq %r15d,%rax
  406675:	48 89 83 88 00 00 00 	mov    %rax,0x88(%rbx)
  40667c:	4c 8d 34 c5 00 00 00 	lea    0x0(,%rax,8),%r14
  406683:	00 
  406684:	48 8d bb a0 00 00 00 	lea    0xa0(%rbx),%rdi
  40668b:	be 40 00 00 00       	mov    $0x40,%esi
  406690:	4c 89 f2             	mov    %r14,%rdx
  406693:	e8 18 ac ff ff       	callq  4012b0 <posix_memalign@plt>
  406698:	85 c0                	test   %eax,%eax
  40669a:	0f 85 1a 04 00 00    	jne    406aba <join_init_run+0x6ba>
  4066a0:	48 8b 83 a0 00 00 00 	mov    0xa0(%rbx),%rax
  4066a7:	48 89 43 08          	mov    %rax,0x8(%rbx)
  4066ab:	48 8d bb a0 00 00 00 	lea    0xa0(%rbx),%rdi
  4066b2:	be 40 00 00 00       	mov    $0x40,%esi
  4066b7:	4c 89 f2             	mov    %r14,%rdx
  4066ba:	e8 f1 ab ff ff       	callq  4012b0 <posix_memalign@plt>
  4066bf:	85 c0                	test   %eax,%eax
  4066c1:	0f 85 37 04 00 00    	jne    406afe <join_init_run+0x6fe>
  4066c7:	48 83 7b 08 00       	cmpq   $0x0,0x8(%rbx)
  4066cc:	0f 84 36 04 00 00    	je     406b08 <join_init_run+0x708>
  4066d2:	48 8b 83 a0 00 00 00 	mov    0xa0(%rbx),%rax
  4066d9:	48 89 43 30          	mov    %rax,0x30(%rbx)
  4066dd:	48 85 c0             	test   %rax,%rax
  4066e0:	0f 84 22 04 00 00    	je     406b08 <join_init_run+0x708>
  4066e6:	48 8d bb 28 01 00 00 	lea    0x128(%rbx),%rdi
  4066ed:	31 f6                	xor    %esi,%esi
  4066ef:	44 89 fa             	mov    %r15d,%edx
  4066f2:	e8 29 ab ff ff       	callq  401220 <pthread_barrier_init@plt>
  4066f7:	85 c0                	test   %eax,%eax
  4066f9:	0f 85 33 04 00 00    	jne    406b32 <join_init_run+0x732>
  4066ff:	48 8d bb 48 01 00 00 	lea    0x148(%rbx),%rdi
  406706:	e8 75 aa ff ff       	callq  401180 <pthread_attr_init@plt>
  40670b:	48 8b 43 40          	mov    0x40(%rbx),%rax
  40670f:	8b 40 08             	mov    0x8(%rax),%eax
  406712:	31 d2                	xor    %edx,%edx
  406714:	41 f7 f7             	div    %r15d
  406717:	89 c1                	mov    %eax,%ecx
  406719:	48 8b 43 18          	mov    0x18(%rbx),%rax
  40671d:	8b 40 08             	mov    0x8(%rax),%eax
  406720:	31 d2                	xor    %edx,%edx
  406722:	41 f7 f7             	div    %r15d
  406725:	45 31 ed             	xor    %r13d,%r13d
  406728:	4c 89 7b 20          	mov    %r15,0x20(%rbx)
  40672c:	45 85 ff             	test   %r15d,%r15d
  40672f:	4c 8b 63 68          	mov    0x68(%rbx),%r12
  406733:	0f 8e 04 02 00 00    	jle    40693d <join_init_run+0x53d>
  406739:	4c 8b 7b 20          	mov    0x20(%rbx),%r15
  40673d:	41 8d 77 ff          	lea    -0x1(%r15),%esi
  406741:	48 89 b3 80 00 00 00 	mov    %rsi,0x80(%rbx)
  406748:	89 43 60             	mov    %eax,0x60(%rbx)
  40674b:	48 98                	cltq   
  40674d:	48 89 43 78          	mov    %rax,0x78(%rbx)
  406751:	89 4b 64             	mov    %ecx,0x64(%rbx)
  406754:	48 63 c1             	movslq %ecx,%rax
  406757:	48 89 43 70          	mov    %rax,0x70(%rbx)
  40675b:	45 31 ed             	xor    %r13d,%r13d
  40675e:	4c 8b 73 28          	mov    0x28(%rbx),%r14
  406762:	66 66 66 66 66 2e 0f 	data16 data16 data16 data16 nopw %cs:0x0(%rax,%rax,1)
  406769:	1f 84 00 00 00 00 00 
  406770:	44 89 ef             	mov    %r13d,%edi
  406773:	e8 e8 d6 ff ff       	callq  403e60 <get_cpu_id>
  406778:	0f 57 c0             	xorps  %xmm0,%xmm0
  40677b:	0f 29 83 10 01 00 00 	movaps %xmm0,0x110(%rbx)
  406782:	0f 29 83 00 01 00 00 	movaps %xmm0,0x100(%rbx)
  406789:	0f 29 83 f0 00 00 00 	movaps %xmm0,0xf0(%rbx)
  406790:	0f 29 83 e0 00 00 00 	movaps %xmm0,0xe0(%rbx)
  406797:	0f 29 83 d0 00 00 00 	movaps %xmm0,0xd0(%rbx)
  40679e:	0f 29 83 c0 00 00 00 	movaps %xmm0,0xc0(%rbx)
  4067a5:	0f 29 83 b0 00 00 00 	movaps %xmm0,0xb0(%rbx)
  4067ac:	0f 29 83 a0 00 00 00 	movaps %xmm0,0xa0(%rbx)
  4067b3:	3d ff 03 00 00       	cmp    $0x3ff,%eax
  4067b8:	77 17                	ja     4067d1 <join_init_run+0x3d1>
  4067ba:	48 63 c8             	movslq %eax,%rcx
  4067bd:	b8 01 00 00 00       	mov    $0x1,%eax
  4067c2:	48 d3 e0             	shl    %cl,%rax
  4067c5:	48 c1 e9 06          	shr    $0x6,%rcx
  4067c9:	48 09 84 cb a0 00 00 	or     %rax,0xa0(%rbx,%rcx,8)
  4067d0:	00 
  4067d1:	be 80 00 00 00       	mov    $0x80,%esi
  4067d6:	48 8d bb 48 01 00 00 	lea    0x148(%rbx),%rdi
  4067dd:	48 8d 93 a0 00 00 00 	lea    0xa0(%rbx),%rdx
  4067e4:	e8 a7 a8 ff ff       	callq  401090 <pthread_attr_setaffinity_np@plt>
  4067e9:	4c 89 e9             	mov    %r13,%rcx
  4067ec:	48 0f af 4b 70       	imul   0x70(%rbx),%rcx
  4067f1:	48 8d 04 cd 00 00 00 	lea    0x0(,%rcx,8),%rax
  4067f8:	00 
  4067f9:	48 8b 73 40          	mov    0x40(%rbx),%rsi
  4067fd:	48 03 06             	add    (%rsi),%rax
  406800:	49 89 46 08          	mov    %rax,0x8(%r14)
  406804:	48 8b 43 10          	mov    0x10(%rbx),%rax
  406808:	49 89 46 10          	mov    %rax,0x10(%r14)
  40680c:	48 8b 43 08          	mov    0x8(%rbx),%rax
  406810:	49 89 06             	mov    %rax,(%r14)
  406813:	4c 89 ea             	mov    %r13,%rdx
  406816:	48 0f af 53 78       	imul   0x78(%rbx),%rdx
  40681b:	48 8d 04 d5 00 00 00 	lea    0x0(,%rdx,8),%rax
  406822:	00 
  406823:	48 8b 7b 18          	mov    0x18(%rbx),%rdi
  406827:	48 03 07             	add    (%rdi),%rax
  40682a:	49 89 46 20          	mov    %rax,0x20(%r14)
  40682e:	48 8b 43 38          	mov    0x38(%rbx),%rax
  406832:	49 89 46 28          	mov    %rax,0x28(%r14)
  406836:	48 8b 43 30          	mov    0x30(%rbx),%rax
  40683a:	49 89 46 18          	mov    %rax,0x18(%r14)
  40683e:	8b 46 08             	mov    0x8(%rsi),%eax
  406841:	4c 39 ab 80 00 00 00 	cmp    %r13,0x80(%rbx)
  406848:	75 16                	jne    406860 <join_init_run+0x460>
  40684a:	89 c6                	mov    %eax,%esi
  40684c:	29 ce                	sub    %ecx,%esi
  40684e:	8b 4f 08             	mov    0x8(%rdi),%ecx
  406851:	89 cf                	mov    %ecx,%edi
  406853:	29 d7                	sub    %edx,%edi
  406855:	eb 12                	jmp    406869 <join_init_run+0x469>
  406857:	66 0f 1f 84 00 00 00 	nopw   0x0(%rax,%rax,1)
  40685e:	00 00 
  406860:	8b 4f 08             	mov    0x8(%rdi),%ecx
  406863:	8b 73 64             	mov    0x64(%rbx),%esi
  406866:	8b 7b 60             	mov    0x60(%rbx),%edi
  406869:	41 89 76 30          	mov    %esi,0x30(%r14)
  40686d:	41 89 7e 34          	mov    %edi,0x34(%r14)
  406871:	41 89 46 38          	mov    %eax,0x38(%r14)
  406875:	41 89 4e 3c          	mov    %ecx,0x3c(%r14)
  406879:	45 89 6e 78          	mov    %r13d,0x78(%r14)
  40687d:	48 8b 43 50          	mov    0x50(%rbx),%rax
  406881:	49 89 46 48          	mov    %rax,0x48(%r14)
  406885:	48 8b 43 48          	mov    0x48(%rbx),%rax
  406889:	49 89 46 40          	mov    %rax,0x40(%r14)
  40688d:	48 8b 43 58          	mov    0x58(%rbx),%rax
  406891:	49 89 46 50          	mov    %rax,0x50(%r14)
  406895:	48 8d 83 98 00 00 00 	lea    0x98(%rbx),%rax
  40689c:	49 89 46 58          	mov    %rax,0x58(%r14)
  4068a0:	48 8d 83 28 01 00 00 	lea    0x128(%rbx),%rax
  4068a7:	49 89 46 60          	mov    %rax,0x60(%r14)
  4068ab:	48 8b 83 90 00 00 00 	mov    0x90(%rbx),%rax
  4068b2:	49 89 46 68          	mov    %rax,0x68(%r14)
  4068b6:	45 89 7e 7c          	mov    %r15d,0x7c(%r14)
  4068ba:	ba b0 57 40 00       	mov    $0x4057b0,%edx
  4068bf:	4c 89 e7             	mov    %r12,%rdi
  4068c2:	48 8d b3 48 01 00 00 	lea    0x148(%rbx),%rsi
  4068c9:	4c 89 f1             	mov    %r14,%rcx
  4068cc:	e8 7f a7 ff ff       	callq  401050 <pthread_create@plt>
  4068d1:	89 c1                	mov    %eax,%ecx
  4068d3:	85 c9                	test   %ecx,%ecx
  4068d5:	0f 85 f0 01 00 00    	jne    406acb <join_init_run+0x6cb>
  4068db:	49 ff c5             	inc    %r13
  4068de:	49 81 c6 c0 00 00 00 	add    $0xc0,%r14
  4068e5:	49 83 c4 08          	add    $0x8,%r12
  4068e9:	4c 3b ab 88 00 00 00 	cmp    0x88(%rbx),%r13
  4068f0:	0f 8c 7a fe ff ff    	jl     406770 <join_init_run+0x370>
  4068f6:	45 31 ed             	xor    %r13d,%r13d
  4068f9:	45 85 ff             	test   %r15d,%r15d
  4068fc:	4c 8b 7b 68          	mov    0x68(%rbx),%r15
  406900:	7e 3b                	jle    40693d <join_init_run+0x53d>
  406902:	48 8b 43 28          	mov    0x28(%rbx),%rax
  406906:	4c 8d 70 70          	lea    0x70(%rax),%r14
  40690a:	45 31 ed             	xor    %r13d,%r13d
  40690d:	48 8b 43 20          	mov    0x20(%rbx),%rax
  406911:	41 89 c4             	mov    %eax,%r12d
  406914:	66 66 66 2e 0f 1f 84 	data16 data16 nopw %cs:0x0(%rax,%rax,1)
  40691b:	00 00 00 00 00 
  406920:	49 8b 3f             	mov    (%r15),%rdi
  406923:	31 f6                	xor    %esi,%esi
  406925:	e8 46 a9 ff ff       	callq  401270 <pthread_join@plt>
  40692a:	4d 03 2e             	add    (%r14),%r13
  40692d:	49 83 c7 08          	add    $0x8,%r15
  406931:	49 81 c6 c0 00 00 00 	add    $0xc0,%r14
  406938:	41 ff cc             	dec    %r12d
  40693b:	75 e3                	jne    406920 <join_init_run+0x520>
  40693d:	4c 8b 53 28          	mov    0x28(%rbx),%r10
  406941:	49 8b ba 88 00 00 00 	mov    0x88(%r10),%rdi
  406948:	49 8b b2 90 00 00 00 	mov    0x90(%r10),%rsi
  40694f:	49 8b 92 98 00 00 00 	mov    0x98(%r10),%rdx
  406956:	48 8b 43 18          	mov    0x18(%rbx),%rax
  40695a:	8b 48 08             	mov    0x8(%rax),%ecx
  40695d:	4d 8b 8a a0 00 00 00 	mov    0xa0(%r10),%r9
  406964:	48 83 ec 08          	sub    $0x8,%rsp
  406968:	4d 89 e8             	mov    %r13,%r8
  40696b:	41 ff b2 b8 00 00 00 	pushq  0xb8(%r10)
  406972:	41 ff b2 b0 00 00 00 	pushq  0xb0(%r10)
  406979:	41 ff b2 a8 00 00 00 	pushq  0xa8(%r10)
  406980:	e8 cb 01 00 00       	callq  406b50 <print_timing>
  406985:	48 83 c4 20          	add    $0x20,%rsp
  406989:	4c 8b 7b 20          	mov    0x20(%rbx),%r15
  40698d:	45 85 ff             	test   %r15d,%r15d
  406990:	7e 2c                	jle    4069be <join_init_run+0x5be>
  406992:	4c 8b 73 30          	mov    0x30(%rbx),%r14
  406996:	4c 8b 63 08          	mov    0x8(%rbx),%r12
  40699a:	66 0f 1f 44 00 00    	nopw   0x0(%rax,%rax,1)
  4069a0:	49 8b 3c 24          	mov    (%r12),%rdi
  4069a4:	e8 87 a6 ff ff       	callq  401030 <free@plt>
  4069a9:	49 8b 3e             	mov    (%r14),%rdi
  4069ac:	e8 7f a6 ff ff       	callq  401030 <free@plt>
  4069b1:	49 83 c4 08          	add    $0x8,%r12
  4069b5:	49 83 c6 08          	add    $0x8,%r14
  4069b9:	41 ff cf             	dec    %r15d
  4069bc:	75 e2                	jne    4069a0 <join_init_run+0x5a0>
  4069be:	48 8b 7b 08          	mov    0x8(%rbx),%rdi
  4069c2:	e8 69 a6 ff ff       	callq  401030 <free@plt>
  4069c7:	48 8b 7b 30          	mov    0x30(%rbx),%rdi
  4069cb:	e8 60 a6 ff ff       	callq  401030 <free@plt>
  4069d0:	48 8b 43 50          	mov    0x50(%rbx),%rax
  4069d4:	4c 8b 70 58          	mov    0x58(%rax),%r14
  4069d8:	4d 85 f6             	test   %r14,%r14
  4069db:	74 1f                	je     4069fc <join_init_run+0x5fc>
  4069dd:	0f 1f 00             	nopl   (%rax)
  4069e0:	49 8b 3e             	mov    (%r14),%rdi
  4069e3:	e8 48 a6 ff ff       	callq  401030 <free@plt>
  4069e8:	4d 8b 7e 08          	mov    0x8(%r14),%r15
  4069ec:	4c 89 f7             	mov    %r14,%rdi
  4069ef:	e8 3c a6 ff ff       	callq  401030 <free@plt>
  4069f4:	4d 85 ff             	test   %r15,%r15
  4069f7:	4d 89 fe             	mov    %r15,%r14
  4069fa:	75 e4                	jne    4069e0 <join_init_run+0x5e0>
  4069fc:	48 8b 7b 50          	mov    0x50(%rbx),%rdi
  406a00:	e8 2b a6 ff ff       	callq  401030 <free@plt>
  406a05:	48 8b 43 48          	mov    0x48(%rbx),%rax
  406a09:	4c 8b 70 58          	mov    0x58(%rax),%r14
  406a0d:	4d 85 f6             	test   %r14,%r14
  406a10:	74 2a                	je     406a3c <join_init_run+0x63c>
  406a12:	66 66 66 66 66 2e 0f 	data16 data16 data16 data16 nopw %cs:0x0(%rax,%rax,1)
  406a19:	1f 84 00 00 00 00 00 
  406a20:	49 8b 3e             	mov    (%r14),%rdi
  406a23:	e8 08 a6 ff ff       	callq  401030 <free@plt>
  406a28:	4d 8b 7e 08          	mov    0x8(%r14),%r15
  406a2c:	4c 89 f7             	mov    %r14,%rdi
  406a2f:	e8 fc a5 ff ff       	callq  401030 <free@plt>
  406a34:	4d 85 ff             	test   %r15,%r15
  406a37:	4d 89 fe             	mov    %r15,%r14
  406a3a:	75 e4                	jne    406a20 <join_init_run+0x620>
  406a3c:	48 8b 7b 48          	mov    0x48(%rbx),%rdi
  406a40:	e8 eb a5 ff ff       	callq  401030 <free@plt>
  406a45:	48 8b 43 58          	mov    0x58(%rbx),%rax
  406a49:	4c 8b 70 58          	mov    0x58(%rax),%r14
  406a4d:	4d 85 f6             	test   %r14,%r14
  406a50:	74 2a                	je     406a7c <join_init_run+0x67c>
  406a52:	66 66 66 66 66 2e 0f 	data16 data16 data16 data16 nopw %cs:0x0(%rax,%rax,1)
  406a59:	1f 84 00 00 00 00 00 
  406a60:	49 8b 3e             	mov    (%r14),%rdi
  406a63:	e8 c8 a5 ff ff       	callq  401030 <free@plt>
  406a68:	4d 8b 7e 08          	mov    0x8(%r14),%r15
  406a6c:	4c 89 f7             	mov    %r14,%rdi
  406a6f:	e8 bc a5 ff ff       	callq  401030 <free@plt>
  406a74:	4d 85 ff             	test   %r15,%r15
  406a77:	4d 89 fe             	mov    %r15,%r14
  406a7a:	75 e4                	jne    406a60 <join_init_run+0x660>
  406a7c:	48 8b 7b 58          	mov    0x58(%rbx),%rdi
  406a80:	e8 ab a5 ff ff       	callq  401030 <free@plt>
  406a85:	48 8b 7b 10          	mov    0x10(%rbx),%rdi
  406a89:	e8 a2 a5 ff ff       	callq  401030 <free@plt>
  406a8e:	48 8b 7b 38          	mov    0x38(%rbx),%rdi
  406a92:	e8 99 a5 ff ff       	callq  401030 <free@plt>
  406a97:	4c 89 e8             	mov    %r13,%rax
  406a9a:	48 8d 65 d8          	lea    -0x28(%rbp),%rsp
  406a9e:	5b                   	pop    %rbx
  406a9f:	41 5c                	pop    %r12
  406aa1:	41 5d                	pop    %r13
  406aa3:	41 5e                	pop    %r14
  406aa5:	41 5f                	pop    %r15
  406aa7:	5d                   	pop    %rbp
  406aa8:	c3                   	retq   
  406aa9:	bf d0 7f 40 00       	mov    $0x407fd0,%edi
  406aae:	e8 9d a7 ff ff       	callq  401250 <perror@plt>
  406ab3:	31 c0                	xor    %eax,%eax
  406ab5:	e9 3e fb ff ff       	jmpq   4065f8 <join_init_run+0x1f8>
  406aba:	bf d0 7f 40 00       	mov    $0x407fd0,%edi
  406abf:	e8 8c a7 ff ff       	callq  401250 <perror@plt>
  406ac4:	31 c0                	xor    %eax,%eax
  406ac6:	e9 dc fb ff ff       	jmpq   4066a7 <join_init_run+0x2a7>
  406acb:	bf a0 82 40 00       	mov    $0x4082a0,%edi
  406ad0:	31 c0                	xor    %eax,%eax
  406ad2:	89 ce                	mov    %ecx,%esi
  406ad4:	e8 17 a6 ff ff       	callq  4010f0 <printf@plt>
  406ad9:	bf ff ff ff ff       	mov    $0xffffffff,%edi
  406ade:	e8 ad a7 ff ff       	callq  401290 <exit@plt>
  406ae3:	bf d0 7f 40 00       	mov    $0x407fd0,%edi
  406ae8:	e8 63 a7 ff ff       	callq  401250 <perror@plt>
  406aed:	bf 50 82 40 00       	mov    $0x408250,%edi
  406af2:	be 6f 82 40 00       	mov    $0x40826f,%esi
  406af7:	ba 4c 05 00 00       	mov    $0x54c,%edx
  406afc:	eb 19                	jmp    406b17 <join_init_run+0x717>
  406afe:	bf d0 7f 40 00       	mov    $0x407fd0,%edi
  406b03:	e8 48 a7 ff ff       	callq  401250 <perror@plt>
  406b08:	bf 50 82 40 00       	mov    $0x408250,%edi
  406b0d:	be 6f 82 40 00       	mov    $0x40826f,%esi
  406b12:	ba 58 05 00 00       	mov    $0x558,%edx
  406b17:	31 c0                	xor    %eax,%eax
  406b19:	e8 d2 a5 ff ff       	callq  4010f0 <printf@plt>
  406b1e:	bf 8c 82 40 00       	mov    $0x40828c,%edi
  406b23:	e8 28 a7 ff ff       	callq  401250 <perror@plt>
  406b28:	bf 01 00 00 00       	mov    $0x1,%edi
  406b2d:	e8 5e a7 ff ff       	callq  401290 <exit@plt>
  406b32:	bf e0 82 40 00       	mov    $0x4082e0,%edi
  406b37:	e8 34 a5 ff ff       	callq  401070 <puts@plt>
  406b3c:	bf 01 00 00 00       	mov    $0x1,%edi
  406b41:	e8 4a a7 ff ff       	callq  401290 <exit@plt>
  406b46:	66 2e 0f 1f 84 00 00 	nopw   %cs:0x0(%rax,%rax,1)
  406b4d:	00 00 00 

0000000000406b50 <print_timing>:
  406b50:	41 57                	push   %r15
  406b52:	41 56                	push   %r14
  406b54:	41 54                	push   %r12
  406b56:	53                   	push   %rbx
  406b57:	48 83 ec 28          	sub    $0x28,%rsp
  406b5b:	4d 89 c6             	mov    %r8,%r14
  406b5e:	49 89 d7             	mov    %rdx,%r15
  406b61:	49 89 f4             	mov    %rsi,%r12
  406b64:	48 89 fb             	mov    %rdi,%rbx
  406b67:	48 8b 44 24 60       	mov    0x60(%rsp),%rax
  406b6c:	48 8b 54 24 58       	mov    0x58(%rsp),%rdx
  406b71:	4c 29 ca             	sub    %r9,%rdx
  406b74:	48 69 d2 40 42 0f 00 	imul   $0xf4240,%rdx,%rdx
  406b7b:	48 2b 44 24 50       	sub    0x50(%rsp),%rax
  406b80:	48 01 d0             	add    %rdx,%rax
  406b83:	f2 48 0f 2a c0       	cvtsi2sd %rax,%xmm0
  406b88:	f2 0f 11 44 24 08    	movsd  %xmm0,0x8(%rsp)
  406b8e:	66 48 0f 6e c3       	movq   %rbx,%xmm0
  406b93:	66 0f 6f 0d 95 05 00 	movdqa 0x595(%rip),%xmm1        # 407130 <_IO_stdin_used+0x10>
  406b9a:	00 
  406b9b:	66 0f 62 c1          	punpckldq %xmm1,%xmm0
  406b9f:	66 0f 28 15 99 05 00 	movapd 0x599(%rip),%xmm2        # 407140 <_IO_stdin_used+0x20>
  406ba6:	00 
  406ba7:	66 0f 5c c2          	subpd  %xmm2,%xmm0
  406bab:	66 0f 70 d8 4e       	pshufd $0x4e,%xmm0,%xmm3
  406bb0:	66 0f 58 d8          	addpd  %xmm0,%xmm3
  406bb4:	66 48 0f 6e c1       	movq   %rcx,%xmm0
  406bb9:	66 0f 62 c1          	punpckldq %xmm1,%xmm0
  406bbd:	66 0f 5c c2          	subpd  %xmm2,%xmm0
  406bc1:	66 0f 70 c8 4e       	pshufd $0x4e,%xmm0,%xmm1
  406bc6:	66 0f 58 c8          	addpd  %xmm0,%xmm1
  406bca:	f2 0f 5e d9          	divsd  %xmm1,%xmm3
  406bce:	66 0f 29 5c 24 10    	movapd %xmm3,0x10(%rsp)
  406bd4:	48 8b 0d a5 3b 20 00 	mov    0x203ba5(%rip),%rcx        # 60a780 <stdout@@GLIBC_2.2.5>
  406bdb:	bf a7 71 40 00       	mov    $0x4071a7,%edi
  406be0:	be 26 00 00 00       	mov    $0x26,%esi
  406be5:	ba 01 00 00 00       	mov    $0x1,%edx
  406bea:	e8 b1 a6 ff ff       	callq  4012a0 <fwrite@plt>
  406bef:	48 8b 3d aa 3b 20 00 	mov    0x203baa(%rip),%rdi        # 60a7a0 <stderr@@GLIBC_2.2.5>
  406bf6:	be ce 71 40 00       	mov    $0x4071ce,%esi
  406bfb:	31 c0                	xor    %eax,%eax
  406bfd:	48 89 da             	mov    %rbx,%rdx
  406c00:	4c 89 e1             	mov    %r12,%rcx
  406c03:	4d 89 f8             	mov    %r15,%r8
  406c06:	e8 a5 a5 ff ff       	callq  4011b0 <fprintf@plt>
  406c0b:	48 8b 35 6e 3b 20 00 	mov    0x203b6e(%rip),%rsi        # 60a780 <stdout@@GLIBC_2.2.5>
  406c12:	bf 0a 00 00 00       	mov    $0xa,%edi
  406c17:	e8 34 a5 ff ff       	callq  401150 <fputc@plt>
  406c1c:	48 8b 0d 5d 3b 20 00 	mov    0x203b5d(%rip),%rcx        # 60a780 <stdout@@GLIBC_2.2.5>
  406c23:	bf e2 71 40 00       	mov    $0x4071e2,%edi
  406c28:	be 33 00 00 00       	mov    $0x33,%esi
  406c2d:	ba 01 00 00 00       	mov    $0x1,%edx
  406c32:	e8 69 a6 ff ff       	callq  4012a0 <fwrite@plt>
  406c37:	48 8b 3d 42 3b 20 00 	mov    0x203b42(%rip),%rdi        # 60a780 <stdout@@GLIBC_2.2.5>
  406c3e:	be 16 72 40 00       	mov    $0x407216,%esi
  406c43:	b0 01                	mov    $0x1,%al
  406c45:	f2 0f 10 44 24 08    	movsd  0x8(%rsp),%xmm0
  406c4b:	4c 89 f2             	mov    %r14,%rdx
  406c4e:	e8 5d a5 ff ff       	callq  4011b0 <fprintf@plt>
  406c53:	48 8b 3d 26 3b 20 00 	mov    0x203b26(%rip),%rdi        # 60a780 <stdout@@GLIBC_2.2.5>
  406c5a:	e8 b1 a5 ff ff       	callq  401210 <fflush@plt>
  406c5f:	48 8b 3d 3a 3b 20 00 	mov    0x203b3a(%rip),%rdi        # 60a7a0 <stderr@@GLIBC_2.2.5>
  406c66:	be 26 72 40 00       	mov    $0x407226,%esi
  406c6b:	b0 01                	mov    $0x1,%al
  406c6d:	0f 28 44 24 10       	movaps 0x10(%rsp),%xmm0
  406c72:	e8 39 a5 ff ff       	callq  4011b0 <fprintf@plt>
  406c77:	48 8b 3d 22 3b 20 00 	mov    0x203b22(%rip),%rdi        # 60a7a0 <stderr@@GLIBC_2.2.5>
  406c7e:	e8 8d a5 ff ff       	callq  401210 <fflush@plt>
  406c83:	48 8b 35 f6 3a 20 00 	mov    0x203af6(%rip),%rsi        # 60a780 <stdout@@GLIBC_2.2.5>
  406c8a:	bf 0a 00 00 00       	mov    $0xa,%edi
  406c8f:	48 83 c4 28          	add    $0x28,%rsp
  406c93:	5b                   	pop    %rbx
  406c94:	41 5c                	pop    %r12
  406c96:	41 5e                	pop    %r14
  406c98:	41 5f                	pop    %r15
  406c9a:	e9 b1 a4 ff ff       	jmpq   401150 <fputc@plt>
  406c9f:	90                   	nop

0000000000406ca0 <PRO>:
  406ca0:	89 d0                	mov    %edx,%eax
  406ca2:	ba d0 41 40 00       	mov    $0x4041d0,%edx
  406ca7:	89 c1                	mov    %eax,%ecx
  406ca9:	e9 52 f7 ff ff       	jmpq   406400 <join_init_run>
  406cae:	66 90                	xchg   %ax,%ax

0000000000406cb0 <PRH>:
  406cb0:	89 d0                	mov    %edx,%eax
  406cb2:	ba 20 43 40 00       	mov    $0x404320,%edx
  406cb7:	89 c1                	mov    %eax,%ecx
  406cb9:	e9 42 f7 ff ff       	jmpq   406400 <join_init_run>
  406cbe:	66 90                	xchg   %ax,%ax

0000000000406cc0 <PRHO>:
  406cc0:	89 d0                	mov    %edx,%eax
  406cc2:	ba f0 45 40 00       	mov    $0x4045f0,%edx
  406cc7:	89 c1                	mov    %eax,%ecx
  406cc9:	e9 32 f7 ff ff       	jmpq   406400 <join_init_run>
  406cce:	66 90                	xchg   %ax,%ax

0000000000406cd0 <RJ>:
  406cd0:	55                   	push   %rbp
  406cd1:	41 57                	push   %r15
  406cd3:	41 56                	push   %r14
  406cd5:	41 55                	push   %r13
  406cd7:	41 54                	push   %r12
  406cd9:	53                   	push   %rbx
  406cda:	48 83 ec 78          	sub    $0x78,%rsp
  406cde:	49 89 f5             	mov    %rsi,%r13
  406ce1:	49 89 fe             	mov    %rdi,%r14
  406ce4:	bf 10 00 00 00       	mov    $0x10,%edi
  406ce9:	e8 12 a5 ff ff       	callq  401200 <malloc@plt>
  406cee:	49 89 c4             	mov    %rax,%r12
  406cf1:	bf 10 00 00 00       	mov    $0x10,%edi
  406cf6:	e8 05 a5 ff ff       	callq  401200 <malloc@plt>
  406cfb:	48 89 c5             	mov    %rax,%rbp
  406cfe:	41 8b 5e 08          	mov    0x8(%r14),%ebx
  406d02:	48 8d 3c dd 00 60 30 	lea    0x306000(,%rbx,8),%rdi
  406d09:	00 
  406d0a:	e8 f1 a4 ff ff       	callq  401200 <malloc@plt>
  406d0f:	48 89 04 24          	mov    %rax,(%rsp)
  406d13:	49 89 04 24          	mov    %rax,(%r12)
  406d17:	41 89 5c 24 08       	mov    %ebx,0x8(%r12)
  406d1c:	41 8b 5d 08          	mov    0x8(%r13),%ebx
  406d20:	48 8d 3c dd 00 60 30 	lea    0x306000(,%rbx,8),%rdi
  406d27:	00 
  406d28:	e8 d3 a4 ff ff       	callq  401200 <malloc@plt>
  406d2d:	49 89 c7             	mov    %rax,%r15
  406d30:	4c 89 7d 00          	mov    %r15,0x0(%rbp)
  406d34:	89 5d 08             	mov    %ebx,0x8(%rbp)
  406d37:	48 8d 7c 24 68       	lea    0x68(%rsp),%rdi
  406d3c:	31 f6                	xor    %esi,%esi
  406d3e:	e8 bd a3 ff ff       	callq  401100 <gettimeofday@plt>
  406d43:	0f 31                	rdtsc  
  406d45:	48 89 54 24 28       	mov    %rdx,0x28(%rsp)
  406d4a:	48 89 44 24 08       	mov    %rax,0x8(%rsp)
  406d4f:	0f 31                	rdtsc  
  406d51:	48 89 54 24 20       	mov    %rdx,0x20(%rsp)
  406d56:	48 89 44 24 18       	mov    %rax,0x18(%rsp)
  406d5b:	0f 31                	rdtsc  
  406d5d:	48 89 44 24 40       	mov    %rax,0x40(%rsp)
  406d62:	48 c1 e2 20          	shl    $0x20,%rdx
  406d66:	48 89 54 24 48       	mov    %rdx,0x48(%rsp)
  406d6b:	31 d2                	xor    %edx,%edx
  406d6d:	b9 07 00 00 00       	mov    $0x7,%ecx
  406d72:	4c 89 e7             	mov    %r12,%rdi
  406d75:	4c 89 f6             	mov    %r14,%rsi
  406d78:	e8 f3 d9 ff ff       	callq  404770 <radix_cluster_nopadding>
  406d7d:	31 d2                	xor    %edx,%edx
  406d7f:	b9 07 00 00 00       	mov    $0x7,%ecx
  406d84:	48 89 ef             	mov    %rbp,%rdi
  406d87:	4c 89 ee             	mov    %r13,%rsi
  406d8a:	e8 e1 d9 ff ff       	callq  404770 <radix_cluster_nopadding>
  406d8f:	ba 07 00 00 00       	mov    $0x7,%edx
  406d94:	b9 07 00 00 00       	mov    $0x7,%ecx
  406d99:	4c 89 f7             	mov    %r14,%rdi
  406d9c:	4c 89 e6             	mov    %r12,%rsi
  406d9f:	e8 cc d9 ff ff       	callq  404770 <radix_cluster_nopadding>
  406da4:	ba 07 00 00 00       	mov    $0x7,%edx
  406da9:	b9 07 00 00 00       	mov    $0x7,%ecx
  406dae:	4c 89 6c 24 10       	mov    %r13,0x10(%rsp)
  406db3:	4c 89 ef             	mov    %r13,%rdi
  406db6:	48 89 ee             	mov    %rbp,%rsi
  406db9:	e8 b2 d9 ff ff       	callq  404770 <radix_cluster_nopadding>
  406dbe:	48 8b 3c 24          	mov    (%rsp),%rdi
  406dc2:	e8 69 a2 ff ff       	callq  401030 <free@plt>
  406dc7:	4c 89 ff             	mov    %r15,%rdi
  406dca:	e8 61 a2 ff ff       	callq  401030 <free@plt>
  406dcf:	4c 89 e7             	mov    %r12,%rdi
  406dd2:	e8 59 a2 ff ff       	callq  401030 <free@plt>
  406dd7:	48 89 ef             	mov    %rbp,%rdi
  406dda:	e8 51 a2 ff ff       	callq  401030 <free@plt>
  406ddf:	0f 31                	rdtsc  
  406de1:	49 89 c5             	mov    %rax,%r13
  406de4:	49 89 d4             	mov    %rdx,%r12
  406de7:	49 c1 e4 20          	shl    $0x20,%r12
  406deb:	bf 00 40 00 00       	mov    $0x4000,%edi
  406df0:	be 04 00 00 00       	mov    $0x4,%esi
  406df5:	e8 96 a3 ff ff       	callq  401190 <calloc@plt>
  406dfa:	48 89 c5             	mov    %rax,%rbp
  406dfd:	bf 00 40 00 00       	mov    $0x4000,%edi
  406e02:	be 04 00 00 00       	mov    $0x4,%esi
  406e07:	e8 84 a3 ff ff       	callq  401190 <calloc@plt>
  406e0c:	49 89 e8             	mov    %rbp,%r8
  406e0f:	49 89 c7             	mov    %rax,%r15
  406e12:	4c 89 34 24          	mov    %r14,(%rsp)
  406e16:	41 8b 56 08          	mov    0x8(%r14),%edx
  406e1a:	48 85 d2             	test   %rdx,%rdx
  406e1d:	0f 84 82 00 00 00    	je     406ea5 <RJ+0x1d5>
  406e23:	48 8b 04 24          	mov    (%rsp),%rax
  406e27:	48 8b 08             	mov    (%rax),%rcx
  406e2a:	48 8d 7a ff          	lea    -0x1(%rdx),%rdi
  406e2e:	89 d0                	mov    %edx,%eax
  406e30:	83 e0 03             	and    $0x3,%eax
  406e33:	31 f6                	xor    %esi,%esi
  406e35:	48 83 ff 03          	cmp    $0x3,%rdi
  406e39:	72 45                	jb     406e80 <RJ+0x1b0>
  406e3b:	48 29 c2             	sub    %rax,%rdx
  406e3e:	31 f6                	xor    %esi,%esi
  406e40:	8b 3c f1             	mov    (%rcx,%rsi,8),%edi
  406e43:	81 e7 ff 3f 00 00    	and    $0x3fff,%edi
  406e49:	41 ff 04 b8          	incl   (%r8,%rdi,4)
  406e4d:	8b 7c f1 08          	mov    0x8(%rcx,%rsi,8),%edi
  406e51:	81 e7 ff 3f 00 00    	and    $0x3fff,%edi
  406e57:	41 ff 04 b8          	incl   (%r8,%rdi,4)
  406e5b:	8b 7c f1 10          	mov    0x10(%rcx,%rsi,8),%edi
  406e5f:	81 e7 ff 3f 00 00    	and    $0x3fff,%edi
  406e65:	41 ff 04 b8          	incl   (%r8,%rdi,4)
  406e69:	8b 7c f1 18          	mov    0x18(%rcx,%rsi,8),%edi
  406e6d:	81 e7 ff 3f 00 00    	and    $0x3fff,%edi
  406e73:	41 ff 04 b8          	incl   (%r8,%rdi,4)
  406e77:	48 83 c6 04          	add    $0x4,%rsi
  406e7b:	48 39 f2             	cmp    %rsi,%rdx
  406e7e:	75 c0                	jne    406e40 <RJ+0x170>
  406e80:	48 85 c0             	test   %rax,%rax
  406e83:	74 20                	je     406ea5 <RJ+0x1d5>
  406e85:	48 8d 0c f1          	lea    (%rcx,%rsi,8),%rcx
  406e89:	48 f7 d8             	neg    %rax
  406e8c:	0f 1f 40 00          	nopl   0x0(%rax)
  406e90:	8b 11                	mov    (%rcx),%edx
  406e92:	81 e2 ff 3f 00 00    	and    $0x3fff,%edx
  406e98:	41 ff 04 90          	incl   (%r8,%rdx,4)
  406e9c:	48 83 c1 08          	add    $0x8,%rcx
  406ea0:	48 ff c0             	inc    %rax
  406ea3:	75 eb                	jne    406e90 <RJ+0x1c0>
  406ea5:	48 8b 5c 24 28       	mov    0x28(%rsp),%rbx
  406eaa:	48 c1 e3 20          	shl    $0x20,%rbx
  406eae:	48 8b 6c 24 20       	mov    0x20(%rsp),%rbp
  406eb3:	48 c1 e5 20          	shl    $0x20,%rbp
  406eb7:	4c 8b 4c 24 48       	mov    0x48(%rsp),%r9
  406ebc:	4c 0b 4c 24 40       	or     0x40(%rsp),%r9
  406ec1:	4d 09 ec             	or     %r13,%r12
  406ec4:	48 8b 44 24 10       	mov    0x10(%rsp),%rax
  406ec9:	8b 50 08             	mov    0x8(%rax),%edx
  406ecc:	48 85 d2             	test   %rdx,%rdx
  406ecf:	0f 84 90 00 00 00    	je     406f65 <RJ+0x295>
  406ed5:	48 8b 44 24 10       	mov    0x10(%rsp),%rax
  406eda:	48 8b 08             	mov    (%rax),%rcx
  406edd:	48 8d 7a ff          	lea    -0x1(%rdx),%rdi
  406ee1:	89 d0                	mov    %edx,%eax
  406ee3:	83 e0 03             	and    $0x3,%eax
  406ee6:	31 f6                	xor    %esi,%esi
  406ee8:	48 83 ff 03          	cmp    $0x3,%rdi
  406eec:	72 52                	jb     406f40 <RJ+0x270>
  406eee:	48 29 c2             	sub    %rax,%rdx
  406ef1:	31 f6                	xor    %esi,%esi
  406ef3:	66 66 66 66 2e 0f 1f 	data16 data16 data16 nopw %cs:0x0(%rax,%rax,1)
  406efa:	84 00 00 00 00 00 
  406f00:	8b 3c f1             	mov    (%rcx,%rsi,8),%edi
  406f03:	81 e7 ff 3f 00 00    	and    $0x3fff,%edi
  406f09:	41 ff 04 bf          	incl   (%r15,%rdi,4)
  406f0d:	8b 7c f1 08          	mov    0x8(%rcx,%rsi,8),%edi
  406f11:	81 e7 ff 3f 00 00    	and    $0x3fff,%edi
  406f17:	41 ff 04 bf          	incl   (%r15,%rdi,4)
  406f1b:	8b 7c f1 10          	mov    0x10(%rcx,%rsi,8),%edi
  406f1f:	81 e7 ff 3f 00 00    	and    $0x3fff,%edi
  406f25:	41 ff 04 bf          	incl   (%r15,%rdi,4)
  406f29:	8b 7c f1 18          	mov    0x18(%rcx,%rsi,8),%edi
  406f2d:	81 e7 ff 3f 00 00    	and    $0x3fff,%edi
  406f33:	41 ff 04 bf          	incl   (%r15,%rdi,4)
  406f37:	48 83 c6 04          	add    $0x4,%rsi
  406f3b:	48 39 f2             	cmp    %rsi,%rdx
  406f3e:	75 c0                	jne    406f00 <RJ+0x230>
  406f40:	48 85 c0             	test   %rax,%rax
  406f43:	74 20                	je     406f65 <RJ+0x295>
  406f45:	48 8d 0c f1          	lea    (%rcx,%rsi,8),%rcx
  406f49:	48 f7 d8             	neg    %rax
  406f4c:	0f 1f 40 00          	nopl   0x0(%rax)
  406f50:	8b 11                	mov    (%rcx),%edx
  406f52:	81 e2 ff 3f 00 00    	and    $0x3fff,%edx
  406f58:	41 ff 04 97          	incl   (%r15,%rdx,4)
  406f5c:	48 83 c1 08          	add    $0x8,%rcx
  406f60:	48 ff c0             	inc    %rax
  406f63:	75 eb                	jne    406f50 <RJ+0x280>
  406f65:	48 0b 5c 24 08       	or     0x8(%rsp),%rbx
  406f6a:	48 89 5c 24 28       	mov    %rbx,0x28(%rsp)
  406f6f:	48 0b 6c 24 18       	or     0x18(%rsp),%rbp
  406f74:	48 89 6c 24 20       	mov    %rbp,0x20(%rsp)
  406f79:	4d 29 cc             	sub    %r9,%r12
  406f7c:	4c 89 64 24 18       	mov    %r12,0x18(%rsp)
  406f81:	45 31 ed             	xor    %r13d,%r13d
  406f84:	45 31 e4             	xor    %r12d,%r12d
  406f87:	45 31 f6             	xor    %r14d,%r14d
  406f8a:	31 c0                	xor    %eax,%eax
  406f8c:	48 89 44 24 08       	mov    %rax,0x8(%rsp)
  406f91:	4c 89 7c 24 50       	mov    %r15,0x50(%rsp)
  406f96:	66 2e 0f 1f 84 00 00 	nopw   %cs:0x0(%rax,%rax,1)
  406f9d:	00 00 00 
  406fa0:	43 8b 1c a8          	mov    (%r8,%r13,4),%ebx
  406fa4:	43 8b 2c af          	mov    (%r15,%r13,4),%ebp
  406fa8:	85 db                	test   %ebx,%ebx
  406faa:	7e 52                	jle    406ffe <RJ+0x32e>
  406fac:	85 ed                	test   %ebp,%ebp
  406fae:	7e 4e                	jle    406ffe <RJ+0x32e>
  406fb0:	89 5c 24 38          	mov    %ebx,0x38(%rsp)
  406fb4:	49 63 c6             	movslq %r14d,%rax
  406fb7:	48 c1 e0 03          	shl    $0x3,%rax
  406fbb:	48 8b 0c 24          	mov    (%rsp),%rcx
  406fbf:	48 03 01             	add    (%rcx),%rax
  406fc2:	48 89 44 24 30       	mov    %rax,0x30(%rsp)
  406fc7:	89 6c 24 60          	mov    %ebp,0x60(%rsp)
  406fcb:	49 63 c4             	movslq %r12d,%rax
  406fce:	48 c1 e0 03          	shl    $0x3,%rax
  406fd2:	48 8b 4c 24 10       	mov    0x10(%rsp),%rcx
  406fd7:	48 03 01             	add    (%rcx),%rax
  406fda:	48 89 44 24 58       	mov    %rax,0x58(%rsp)
  406fdf:	48 8d 7c 24 30       	lea    0x30(%rsp),%rdi
  406fe4:	48 8d 74 24 58       	lea    0x58(%rsp),%rsi
  406fe9:	4d 89 c7             	mov    %r8,%r15
  406fec:	e8 df d1 ff ff       	callq  4041d0 <bucket_chaining_join>
  406ff1:	4d 89 f8             	mov    %r15,%r8
  406ff4:	4c 8b 7c 24 50       	mov    0x50(%rsp),%r15
  406ff9:	48 01 44 24 08       	add    %rax,0x8(%rsp)
  406ffe:	41 01 ec             	add    %ebp,%r12d
  407001:	41 01 de             	add    %ebx,%r14d
  407004:	49 ff c5             	inc    %r13
  407007:	49 81 fd 00 40 00 00 	cmp    $0x4000,%r13
  40700e:	75 90                	jne    406fa0 <RJ+0x2d0>
  407010:	0f 31                	rdtsc  
  407012:	49 89 d6             	mov    %rdx,%r14
  407015:	49 c1 e6 20          	shl    $0x20,%r14
  407019:	49 09 c6             	or     %rax,%r14
  40701c:	4c 2b 74 24 20       	sub    0x20(%rsp),%r14
  407021:	0f 31                	rdtsc  
  407023:	49 89 d4             	mov    %rdx,%r12
  407026:	49 c1 e4 20          	shl    $0x20,%r12
  40702a:	49 09 c4             	or     %rax,%r12
  40702d:	4c 2b 64 24 28       	sub    0x28(%rsp),%r12
  407032:	48 8d 7c 24 30       	lea    0x30(%rsp),%rdi
  407037:	31 f6                	xor    %esi,%esi
  407039:	4c 89 c3             	mov    %r8,%rbx
  40703c:	e8 bf a0 ff ff       	callq  401100 <gettimeofday@plt>
  407041:	48 8b 44 24 10       	mov    0x10(%rsp),%rax
  407046:	8b 48 08             	mov    0x8(%rax),%ecx
  407049:	4c 8b 4c 24 68       	mov    0x68(%rsp),%r9
  40704e:	48 83 ec 08          	sub    $0x8,%rsp
  407052:	4c 89 e7             	mov    %r12,%rdi
  407055:	4c 89 f6             	mov    %r14,%rsi
  407058:	48 8b 54 24 20       	mov    0x20(%rsp),%rdx
  40705d:	48 8b 6c 24 10       	mov    0x10(%rsp),%rbp
  407062:	49 89 e8             	mov    %rbp,%r8
  407065:	ff 74 24 40          	pushq  0x40(%rsp)
  407069:	ff 74 24 40          	pushq  0x40(%rsp)
  40706d:	ff b4 24 88 00 00 00 	pushq  0x88(%rsp)
  407074:	e8 d7 fa ff ff       	callq  406b50 <print_timing>
  407079:	48 83 c4 20          	add    $0x20,%rsp
  40707d:	4c 89 ff             	mov    %r15,%rdi
  407080:	e8 ab 9f ff ff       	callq  401030 <free@plt>
  407085:	48 89 df             	mov    %rbx,%rdi
  407088:	e8 a3 9f ff ff       	callq  401030 <free@plt>
  40708d:	48 89 e8             	mov    %rbp,%rax
  407090:	48 83 c4 78          	add    $0x78,%rsp
  407094:	5b                   	pop    %rbx
  407095:	41 5c                	pop    %r12
  407097:	41 5d                	pop    %r13
  407099:	41 5e                	pop    %r14
  40709b:	41 5f                	pop    %r15
  40709d:	5d                   	pop    %rbp
  40709e:	c3                   	retq   
  40709f:	90                   	nop

00000000004070a0 <__libc_csu_init>:
  4070a0:	41 57                	push   %r15
  4070a2:	41 56                	push   %r14
  4070a4:	41 89 ff             	mov    %edi,%r15d
  4070a7:	41 55                	push   %r13
  4070a9:	41 54                	push   %r12
  4070ab:	4c 8d 25 3e 2d 20 00 	lea    0x202d3e(%rip),%r12        # 609df0 <__frame_dummy_init_array_entry>
  4070b2:	55                   	push   %rbp
  4070b3:	48 8d 2d 3e 2d 20 00 	lea    0x202d3e(%rip),%rbp        # 609df8 <__init_array_end>
  4070ba:	53                   	push   %rbx
  4070bb:	49 89 f6             	mov    %rsi,%r14
  4070be:	49 89 d5             	mov    %rdx,%r13
  4070c1:	4c 29 e5             	sub    %r12,%rbp
  4070c4:	48 83 ec 08          	sub    $0x8,%rsp
  4070c8:	48 c1 fd 03          	sar    $0x3,%rbp
  4070cc:	e8 2f 9f ff ff       	callq  401000 <_init>
  4070d1:	48 85 ed             	test   %rbp,%rbp
  4070d4:	74 20                	je     4070f6 <__libc_csu_init+0x56>
  4070d6:	31 db                	xor    %ebx,%ebx
  4070d8:	0f 1f 84 00 00 00 00 	nopl   0x0(%rax,%rax,1)
  4070df:	00 
  4070e0:	4c 89 ea             	mov    %r13,%rdx
  4070e3:	4c 89 f6             	mov    %r14,%rsi
  4070e6:	44 89 ff             	mov    %r15d,%edi
  4070e9:	41 ff 14 dc          	callq  *(%r12,%rbx,8)
  4070ed:	48 83 c3 01          	add    $0x1,%rbx
  4070f1:	48 39 eb             	cmp    %rbp,%rbx
  4070f4:	75 ea                	jne    4070e0 <__libc_csu_init+0x40>
  4070f6:	48 83 c4 08          	add    $0x8,%rsp
  4070fa:	5b                   	pop    %rbx
  4070fb:	5d                   	pop    %rbp
  4070fc:	41 5c                	pop    %r12
  4070fe:	41 5d                	pop    %r13
  407100:	41 5e                	pop    %r14
  407102:	41 5f                	pop    %r15
  407104:	c3                   	retq   
  407105:	90                   	nop
  407106:	66 2e 0f 1f 84 00 00 	nopw   %cs:0x0(%rax,%rax,1)
  40710d:	00 00 00 

0000000000407110 <__libc_csu_fini>:
  407110:	f3 c3                	repz retq 

Disassembly of section .fini:

0000000000407114 <_fini>:
  407114:	48 83 ec 08          	sub    $0x8,%rsp
  407118:	48 83 c4 08          	add    $0x8,%rsp
  40711c:	c3                   	retq   
