
a.out:     file format elf64-x86-64


Disassembly of section .init:

0000000000401000 <_init>:
  401000:	48 83 ec 08          	sub    $0x8,%rsp
  401004:	48 8b 05 ed 8f 20 00 	mov    0x208fed(%rip),%rax        # 609ff8 <_DYNAMIC+0x1f0>
  40100b:	48 85 c0             	test   %rax,%rax
  40100e:	74 05                	je     401015 <_init+0x15>
  401010:	e8 eb 02 00 00       	callq  401300 <rand@plt+0x10>
  401015:	48 83 c4 08          	add    $0x8,%rsp
  401019:	c3                   	retq   

Disassembly of section .plt:

0000000000401020 <free@plt-0x10>:
  401020:	ff 35 e2 8f 20 00    	pushq  0x208fe2(%rip)        # 60a008 <_GLOBAL_OFFSET_TABLE_+0x8>
  401026:	ff 25 e4 8f 20 00    	jmpq   *0x208fe4(%rip)        # 60a010 <_GLOBAL_OFFSET_TABLE_+0x10>
  40102c:	0f 1f 40 00          	nopl   0x0(%rax)

0000000000401030 <free@plt>:
  401030:	ff 25 e2 8f 20 00    	jmpq   *0x208fe2(%rip)        # 60a018 <_GLOBAL_OFFSET_TABLE_+0x18>
  401036:	68 00 00 00 00       	pushq  $0x0
  40103b:	e9 e0 ff ff ff       	jmpq   401020 <_init+0x20>

0000000000401040 <putchar@plt>:
  401040:	ff 25 da 8f 20 00    	jmpq   *0x208fda(%rip)        # 60a020 <_GLOBAL_OFFSET_TABLE_+0x20>
  401046:	68 01 00 00 00       	pushq  $0x1
  40104b:	e9 d0 ff ff ff       	jmpq   401020 <_init+0x20>

0000000000401050 <pthread_create@plt>:
  401050:	ff 25 d2 8f 20 00    	jmpq   *0x208fd2(%rip)        # 60a028 <_GLOBAL_OFFSET_TABLE_+0x28>
  401056:	68 02 00 00 00       	pushq  $0x2
  40105b:	e9 c0 ff ff ff       	jmpq   401020 <_init+0x20>

0000000000401060 <__isoc99_fscanf@plt>:
  401060:	ff 25 ca 8f 20 00    	jmpq   *0x208fca(%rip)        # 60a030 <_GLOBAL_OFFSET_TABLE_+0x30>
  401066:	68 03 00 00 00       	pushq  $0x3
  40106b:	e9 b0 ff ff ff       	jmpq   401020 <_init+0x20>

0000000000401070 <puts@plt>:
  401070:	ff 25 c2 8f 20 00    	jmpq   *0x208fc2(%rip)        # 60a038 <_GLOBAL_OFFSET_TABLE_+0x38>
  401076:	68 04 00 00 00       	pushq  $0x4
  40107b:	e9 a0 ff ff ff       	jmpq   401020 <_init+0x20>

0000000000401080 <strtod@plt>:
  401080:	ff 25 ba 8f 20 00    	jmpq   *0x208fba(%rip)        # 60a040 <_GLOBAL_OFFSET_TABLE_+0x40>
  401086:	68 05 00 00 00       	pushq  $0x5
  40108b:	e9 90 ff ff ff       	jmpq   401020 <_init+0x20>

0000000000401090 <pthread_attr_setaffinity_np@plt>:
  401090:	ff 25 b2 8f 20 00    	jmpq   *0x208fb2(%rip)        # 60a048 <_GLOBAL_OFFSET_TABLE_+0x48>
  401096:	68 06 00 00 00       	pushq  $0x6
  40109b:	e9 80 ff ff ff       	jmpq   401020 <_init+0x20>

00000000004010a0 <nrand48@plt>:
  4010a0:	ff 25 aa 8f 20 00    	jmpq   *0x208faa(%rip)        # 60a050 <_GLOBAL_OFFSET_TABLE_+0x50>
  4010a6:	68 07 00 00 00       	pushq  $0x7
  4010ab:	e9 70 ff ff ff       	jmpq   401020 <_init+0x20>

00000000004010b0 <clock@plt>:
  4010b0:	ff 25 a2 8f 20 00    	jmpq   *0x208fa2(%rip)        # 60a058 <_GLOBAL_OFFSET_TABLE_+0x58>
  4010b6:	68 08 00 00 00       	pushq  $0x8
  4010bb:	e9 60 ff ff ff       	jmpq   401020 <_init+0x20>

00000000004010c0 <fclose@plt>:
  4010c0:	ff 25 9a 8f 20 00    	jmpq   *0x208f9a(%rip)        # 60a060 <_GLOBAL_OFFSET_TABLE_+0x60>
  4010c6:	68 09 00 00 00       	pushq  $0x9
  4010cb:	e9 50 ff ff ff       	jmpq   401020 <_init+0x20>

00000000004010d0 <strlen@plt>:
  4010d0:	ff 25 92 8f 20 00    	jmpq   *0x208f92(%rip)        # 60a068 <_GLOBAL_OFFSET_TABLE_+0x68>
  4010d6:	68 0a 00 00 00       	pushq  $0xa
  4010db:	e9 40 ff ff ff       	jmpq   401020 <_init+0x20>

00000000004010e0 <getopt_long@plt>:
  4010e0:	ff 25 8a 8f 20 00    	jmpq   *0x208f8a(%rip)        # 60a070 <_GLOBAL_OFFSET_TABLE_+0x70>
  4010e6:	68 0b 00 00 00       	pushq  $0xb
  4010eb:	e9 30 ff ff ff       	jmpq   401020 <_init+0x20>

00000000004010f0 <printf@plt>:
  4010f0:	ff 25 82 8f 20 00    	jmpq   *0x208f82(%rip)        # 60a078 <_GLOBAL_OFFSET_TABLE_+0x78>
  4010f6:	68 0c 00 00 00       	pushq  $0xc
  4010fb:	e9 20 ff ff ff       	jmpq   401020 <_init+0x20>

0000000000401100 <gettimeofday@plt>:
  401100:	ff 25 7a 8f 20 00    	jmpq   *0x208f7a(%rip)        # 60a080 <_GLOBAL_OFFSET_TABLE_+0x80>
  401106:	68 0d 00 00 00       	pushq  $0xd
  40110b:	e9 10 ff ff ff       	jmpq   401020 <_init+0x20>

0000000000401110 <__assert_fail@plt>:
  401110:	ff 25 72 8f 20 00    	jmpq   *0x208f72(%rip)        # 60a088 <_GLOBAL_OFFSET_TABLE_+0x88>
  401116:	68 0e 00 00 00       	pushq  $0xe
  40111b:	e9 00 ff ff ff       	jmpq   401020 <_init+0x20>

0000000000401120 <memset@plt>:
  401120:	ff 25 6a 8f 20 00    	jmpq   *0x208f6a(%rip)        # 60a090 <_GLOBAL_OFFSET_TABLE_+0x90>
  401126:	68 0f 00 00 00       	pushq  $0xf
  40112b:	e9 f0 fe ff ff       	jmpq   401020 <_init+0x20>

0000000000401130 <pow@plt>:
  401130:	ff 25 62 8f 20 00    	jmpq   *0x208f62(%rip)        # 60a098 <_GLOBAL_OFFSET_TABLE_+0x98>
  401136:	68 10 00 00 00       	pushq  $0x10
  40113b:	e9 e0 fe ff ff       	jmpq   401020 <_init+0x20>

0000000000401140 <fmod@plt>:
  401140:	ff 25 5a 8f 20 00    	jmpq   *0x208f5a(%rip)        # 60a0a0 <_GLOBAL_OFFSET_TABLE_+0xa0>
  401146:	68 11 00 00 00       	pushq  $0x11
  40114b:	e9 d0 fe ff ff       	jmpq   401020 <_init+0x20>

0000000000401150 <fputc@plt>:
  401150:	ff 25 52 8f 20 00    	jmpq   *0x208f52(%rip)        # 60a0a8 <_GLOBAL_OFFSET_TABLE_+0xa8>
  401156:	68 12 00 00 00       	pushq  $0x12
  40115b:	e9 c0 fe ff ff       	jmpq   401020 <_init+0x20>

0000000000401160 <__libc_start_main@plt>:
  401160:	ff 25 4a 8f 20 00    	jmpq   *0x208f4a(%rip)        # 60a0b0 <_GLOBAL_OFFSET_TABLE_+0xb0>
  401166:	68 13 00 00 00       	pushq  $0x13
  40116b:	e9 b0 fe ff ff       	jmpq   401020 <_init+0x20>

0000000000401170 <srand@plt>:
  401170:	ff 25 42 8f 20 00    	jmpq   *0x208f42(%rip)        # 60a0b8 <_GLOBAL_OFFSET_TABLE_+0xb8>
  401176:	68 14 00 00 00       	pushq  $0x14
  40117b:	e9 a0 fe ff ff       	jmpq   401020 <_init+0x20>

0000000000401180 <pthread_attr_init@plt>:
  401180:	ff 25 3a 8f 20 00    	jmpq   *0x208f3a(%rip)        # 60a0c0 <_GLOBAL_OFFSET_TABLE_+0xc0>
  401186:	68 15 00 00 00       	pushq  $0x15
  40118b:	e9 90 fe ff ff       	jmpq   401020 <_init+0x20>

0000000000401190 <calloc@plt>:
  401190:	ff 25 32 8f 20 00    	jmpq   *0x208f32(%rip)        # 60a0c8 <_GLOBAL_OFFSET_TABLE_+0xc8>
  401196:	68 16 00 00 00       	pushq  $0x16
  40119b:	e9 80 fe ff ff       	jmpq   401020 <_init+0x20>

00000000004011a0 <strcmp@plt>:
  4011a0:	ff 25 2a 8f 20 00    	jmpq   *0x208f2a(%rip)        # 60a0d0 <_GLOBAL_OFFSET_TABLE_+0xd0>
  4011a6:	68 17 00 00 00       	pushq  $0x17
  4011ab:	e9 70 fe ff ff       	jmpq   401020 <_init+0x20>

00000000004011b0 <fprintf@plt>:
  4011b0:	ff 25 22 8f 20 00    	jmpq   *0x208f22(%rip)        # 60a0d8 <_GLOBAL_OFFSET_TABLE_+0xd8>
  4011b6:	68 18 00 00 00       	pushq  $0x18
  4011bb:	e9 60 fe ff ff       	jmpq   401020 <_init+0x20>

00000000004011c0 <strtol@plt>:
  4011c0:	ff 25 1a 8f 20 00    	jmpq   *0x208f1a(%rip)        # 60a0e0 <_GLOBAL_OFFSET_TABLE_+0xe0>
  4011c6:	68 19 00 00 00       	pushq  $0x19
  4011cb:	e9 50 fe ff ff       	jmpq   401020 <_init+0x20>

00000000004011d0 <memcpy@plt>:
  4011d0:	ff 25 12 8f 20 00    	jmpq   *0x208f12(%rip)        # 60a0e8 <_GLOBAL_OFFSET_TABLE_+0xe8>
  4011d6:	68 1a 00 00 00       	pushq  $0x1a
  4011db:	e9 40 fe ff ff       	jmpq   401020 <_init+0x20>

00000000004011e0 <time@plt>:
  4011e0:	ff 25 0a 8f 20 00    	jmpq   *0x208f0a(%rip)        # 60a0f0 <_GLOBAL_OFFSET_TABLE_+0xf0>
  4011e6:	68 1b 00 00 00       	pushq  $0x1b
  4011eb:	e9 30 fe ff ff       	jmpq   401020 <_init+0x20>

00000000004011f0 <pthread_mutex_unlock@plt>:
  4011f0:	ff 25 02 8f 20 00    	jmpq   *0x208f02(%rip)        # 60a0f8 <_GLOBAL_OFFSET_TABLE_+0xf8>
  4011f6:	68 1c 00 00 00       	pushq  $0x1c
  4011fb:	e9 20 fe ff ff       	jmpq   401020 <_init+0x20>

0000000000401200 <malloc@plt>:
  401200:	ff 25 fa 8e 20 00    	jmpq   *0x208efa(%rip)        # 60a100 <_GLOBAL_OFFSET_TABLE_+0x100>
  401206:	68 1d 00 00 00       	pushq  $0x1d
  40120b:	e9 10 fe ff ff       	jmpq   401020 <_init+0x20>

0000000000401210 <fflush@plt>:
  401210:	ff 25 f2 8e 20 00    	jmpq   *0x208ef2(%rip)        # 60a108 <_GLOBAL_OFFSET_TABLE_+0x108>
  401216:	68 1e 00 00 00       	pushq  $0x1e
  40121b:	e9 00 fe ff ff       	jmpq   401020 <_init+0x20>

0000000000401220 <pthread_barrier_init@plt>:
  401220:	ff 25 ea 8e 20 00    	jmpq   *0x208eea(%rip)        # 60a110 <_GLOBAL_OFFSET_TABLE_+0x110>
  401226:	68 1f 00 00 00       	pushq  $0x1f
  40122b:	e9 f0 fd ff ff       	jmpq   401020 <_init+0x20>

0000000000401230 <pthread_self@plt>:
  401230:	ff 25 e2 8e 20 00    	jmpq   *0x208ee2(%rip)        # 60a118 <_GLOBAL_OFFSET_TABLE_+0x118>
  401236:	68 20 00 00 00       	pushq  $0x20
  40123b:	e9 e0 fd ff ff       	jmpq   401020 <_init+0x20>

0000000000401240 <fopen@plt>:
  401240:	ff 25 da 8e 20 00    	jmpq   *0x208eda(%rip)        # 60a120 <_GLOBAL_OFFSET_TABLE_+0x120>
  401246:	68 21 00 00 00       	pushq  $0x21
  40124b:	e9 d0 fd ff ff       	jmpq   401020 <_init+0x20>

0000000000401250 <perror@plt>:
  401250:	ff 25 d2 8e 20 00    	jmpq   *0x208ed2(%rip)        # 60a128 <_GLOBAL_OFFSET_TABLE_+0x128>
  401256:	68 22 00 00 00       	pushq  $0x22
  40125b:	e9 c0 fd ff ff       	jmpq   401020 <_init+0x20>

0000000000401260 <sysconf@plt>:
  401260:	ff 25 ca 8e 20 00    	jmpq   *0x208eca(%rip)        # 60a130 <_GLOBAL_OFFSET_TABLE_+0x130>
  401266:	68 23 00 00 00       	pushq  $0x23
  40126b:	e9 b0 fd ff ff       	jmpq   401020 <_init+0x20>

0000000000401270 <pthread_join@plt>:
  401270:	ff 25 c2 8e 20 00    	jmpq   *0x208ec2(%rip)        # 60a138 <_GLOBAL_OFFSET_TABLE_+0x138>
  401276:	68 24 00 00 00       	pushq  $0x24
  40127b:	e9 a0 fd ff ff       	jmpq   401020 <_init+0x20>

0000000000401280 <getpagesize@plt>:
  401280:	ff 25 ba 8e 20 00    	jmpq   *0x208eba(%rip)        # 60a140 <_GLOBAL_OFFSET_TABLE_+0x140>
  401286:	68 25 00 00 00       	pushq  $0x25
  40128b:	e9 90 fd ff ff       	jmpq   401020 <_init+0x20>

0000000000401290 <exit@plt>:
  401290:	ff 25 b2 8e 20 00    	jmpq   *0x208eb2(%rip)        # 60a148 <_GLOBAL_OFFSET_TABLE_+0x148>
  401296:	68 26 00 00 00       	pushq  $0x26
  40129b:	e9 80 fd ff ff       	jmpq   401020 <_init+0x20>

00000000004012a0 <fwrite@plt>:
  4012a0:	ff 25 aa 8e 20 00    	jmpq   *0x208eaa(%rip)        # 60a150 <_GLOBAL_OFFSET_TABLE_+0x150>
  4012a6:	68 27 00 00 00       	pushq  $0x27
  4012ab:	e9 70 fd ff ff       	jmpq   401020 <_init+0x20>

00000000004012b0 <posix_memalign@plt>:
  4012b0:	ff 25 a2 8e 20 00    	jmpq   *0x208ea2(%rip)        # 60a158 <_GLOBAL_OFFSET_TABLE_+0x158>
  4012b6:	68 28 00 00 00       	pushq  $0x28
  4012bb:	e9 60 fd ff ff       	jmpq   401020 <_init+0x20>

00000000004012c0 <pthread_barrier_wait@plt>:
  4012c0:	ff 25 9a 8e 20 00    	jmpq   *0x208e9a(%rip)        # 60a160 <_GLOBAL_OFFSET_TABLE_+0x160>
  4012c6:	68 29 00 00 00       	pushq  $0x29
  4012cb:	e9 50 fd ff ff       	jmpq   401020 <_init+0x20>

00000000004012d0 <pthread_mutex_init@plt>:
  4012d0:	ff 25 92 8e 20 00    	jmpq   *0x208e92(%rip)        # 60a168 <_GLOBAL_OFFSET_TABLE_+0x168>
  4012d6:	68 2a 00 00 00       	pushq  $0x2a
  4012db:	e9 40 fd ff ff       	jmpq   401020 <_init+0x20>

00000000004012e0 <pthread_mutex_lock@plt>:
  4012e0:	ff 25 8a 8e 20 00    	jmpq   *0x208e8a(%rip)        # 60a170 <_GLOBAL_OFFSET_TABLE_+0x170>
  4012e6:	68 2b 00 00 00       	pushq  $0x2b
  4012eb:	e9 30 fd ff ff       	jmpq   401020 <_init+0x20>

00000000004012f0 <rand@plt>:
  4012f0:	ff 25 82 8e 20 00    	jmpq   *0x208e82(%rip)        # 60a178 <_GLOBAL_OFFSET_TABLE_+0x178>
  4012f6:	68 2c 00 00 00       	pushq  $0x2c
  4012fb:	e9 20 fd ff ff       	jmpq   401020 <_init+0x20>

Disassembly of section .plt.got:

0000000000401300 <.plt.got>:
  401300:	ff 25 f2 8c 20 00    	jmpq   *0x208cf2(%rip)        # 609ff8 <_DYNAMIC+0x1f0>
  401306:	66 90                	xchg   %ax,%ax

Disassembly of section .text:

0000000000401310 <_start>:
  401310:	31 ed                	xor    %ebp,%ebp
  401312:	49 89 d1             	mov    %rdx,%r9
  401315:	5e                   	pop    %rsi
  401316:	48 89 e2             	mov    %rsp,%rdx
  401319:	48 83 e4 f0          	and    $0xfffffffffffffff0,%rsp
  40131d:	50                   	push   %rax
  40131e:	54                   	push   %rsp
  40131f:	49 c7 c0 00 71 40 00 	mov    $0x407100,%r8
  401326:	48 c7 c1 90 70 40 00 	mov    $0x407090,%rcx
  40132d:	48 c7 c7 d0 20 40 00 	mov    $0x4020d0,%rdi
  401334:	e8 27 fe ff ff       	callq  401160 <__libc_start_main@plt>
  401339:	f4                   	hlt    
  40133a:	66 0f 1f 44 00 00    	nopw   0x0(%rax,%rax,1)

0000000000401340 <deregister_tm_clones>:
  401340:	b8 77 a7 60 00       	mov    $0x60a777,%eax
  401345:	55                   	push   %rbp
  401346:	48 2d 70 a7 60 00    	sub    $0x60a770,%rax
  40134c:	48 83 f8 0e          	cmp    $0xe,%rax
  401350:	48 89 e5             	mov    %rsp,%rbp
  401353:	76 1b                	jbe    401370 <deregister_tm_clones+0x30>
  401355:	b8 00 00 00 00       	mov    $0x0,%eax
  40135a:	48 85 c0             	test   %rax,%rax
  40135d:	74 11                	je     401370 <deregister_tm_clones+0x30>
  40135f:	5d                   	pop    %rbp
  401360:	bf 70 a7 60 00       	mov    $0x60a770,%edi
  401365:	ff e0                	jmpq   *%rax
  401367:	66 0f 1f 84 00 00 00 	nopw   0x0(%rax,%rax,1)
  40136e:	00 00 
  401370:	5d                   	pop    %rbp
  401371:	c3                   	retq   
  401372:	0f 1f 40 00          	nopl   0x0(%rax)
  401376:	66 2e 0f 1f 84 00 00 	nopw   %cs:0x0(%rax,%rax,1)
  40137d:	00 00 00 

0000000000401380 <register_tm_clones>:
  401380:	be 70 a7 60 00       	mov    $0x60a770,%esi
  401385:	55                   	push   %rbp
  401386:	48 81 ee 70 a7 60 00 	sub    $0x60a770,%rsi
  40138d:	48 c1 fe 03          	sar    $0x3,%rsi
  401391:	48 89 e5             	mov    %rsp,%rbp
  401394:	48 89 f0             	mov    %rsi,%rax
  401397:	48 c1 e8 3f          	shr    $0x3f,%rax
  40139b:	48 01 c6             	add    %rax,%rsi
  40139e:	48 d1 fe             	sar    %rsi
  4013a1:	74 15                	je     4013b8 <register_tm_clones+0x38>
  4013a3:	b8 00 00 00 00       	mov    $0x0,%eax
  4013a8:	48 85 c0             	test   %rax,%rax
  4013ab:	74 0b                	je     4013b8 <register_tm_clones+0x38>
  4013ad:	5d                   	pop    %rbp
  4013ae:	bf 70 a7 60 00       	mov    $0x60a770,%edi
  4013b3:	ff e0                	jmpq   *%rax
  4013b5:	0f 1f 00             	nopl   (%rax)
  4013b8:	5d                   	pop    %rbp
  4013b9:	c3                   	retq   
  4013ba:	66 0f 1f 44 00 00    	nopw   0x0(%rax,%rax,1)

00000000004013c0 <__do_global_dtors_aux>:
  4013c0:	80 3d e1 93 20 00 00 	cmpb   $0x0,0x2093e1(%rip)        # 60a7a8 <completed.7585>
  4013c7:	75 11                	jne    4013da <__do_global_dtors_aux+0x1a>
  4013c9:	55                   	push   %rbp
  4013ca:	48 89 e5             	mov    %rsp,%rbp
  4013cd:	e8 6e ff ff ff       	callq  401340 <deregister_tm_clones>
  4013d2:	5d                   	pop    %rbp
  4013d3:	c6 05 ce 93 20 00 01 	movb   $0x1,0x2093ce(%rip)        # 60a7a8 <completed.7585>
  4013da:	f3 c3                	repz retq 
  4013dc:	0f 1f 40 00          	nopl   0x0(%rax)

00000000004013e0 <frame_dummy>:
  4013e0:	bf 00 9e 60 00       	mov    $0x609e00,%edi
  4013e5:	48 83 3f 00          	cmpq   $0x0,(%rdi)
  4013e9:	75 05                	jne    4013f0 <frame_dummy+0x10>
  4013eb:	eb 93                	jmp    401380 <register_tm_clones>
  4013ed:	0f 1f 00             	nopl   (%rax)
  4013f0:	b8 00 00 00 00       	mov    $0x0,%eax
  4013f5:	48 85 c0             	test   %rax,%rax
  4013f8:	74 f1                	je     4013eb <frame_dummy+0xb>
  4013fa:	55                   	push   %rbp
  4013fb:	48 89 e5             	mov    %rsp,%rbp
  4013fe:	ff d0                	callq  *%rax
  401400:	5d                   	pop    %rbp
  401401:	e9 7a ff ff ff       	jmpq   401380 <register_tm_clones>
  401406:	66 2e 0f 1f 84 00 00 	nopw   %cs:0x0(%rax,%rax,1)
  40140d:	00 00 00 

0000000000401410 <init_bucket_buffer>:
  401410:	53                   	push   %rbx
  401411:	48 89 fb             	mov    %rdi,%rbx
  401414:	bf 10 80 00 00       	mov    $0x8010,%edi
  401419:	e8 e2 fd ff ff       	callq  401200 <malloc@plt>
  40141e:	c7 40 08 00 00 00 00 	movl   $0x0,0x8(%rax)
  401425:	48 c7 00 00 00 00 00 	movq   $0x0,(%rax)
  40142c:	48 89 03             	mov    %rax,(%rbx)
  40142f:	5b                   	pop    %rbx
  401430:	c3                   	retq   
  401431:	66 66 66 66 66 66 2e 	data16 data16 data16 data16 data16 nopw %cs:0x0(%rax,%rax,1)
  401438:	0f 1f 84 00 00 00 00 
  40143f:	00 

0000000000401440 <free_bucket_buffer>:
  401440:	53                   	push   %rbx
  401441:	66 66 66 66 66 66 2e 	data16 data16 data16 data16 data16 nopw %cs:0x0(%rax,%rax,1)
  401448:	0f 1f 84 00 00 00 00 
  40144f:	00 
  401450:	48 8b 1f             	mov    (%rdi),%rbx
  401453:	e8 d8 fb ff ff       	callq  401030 <free@plt>
  401458:	48 85 db             	test   %rbx,%rbx
  40145b:	48 89 df             	mov    %rbx,%rdi
  40145e:	75 f0                	jne    401450 <free_bucket_buffer+0x10>
  401460:	5b                   	pop    %rbx
  401461:	c3                   	retq   
  401462:	66 66 66 66 66 2e 0f 	data16 data16 data16 data16 nopw %cs:0x0(%rax,%rax,1)
  401469:	1f 84 00 00 00 00 00 

0000000000401470 <allocate_hashtable>:
  401470:	55                   	push   %rbp
  401471:	41 56                	push   %r14
  401473:	53                   	push   %rbx
  401474:	89 f5                	mov    %esi,%ebp
  401476:	49 89 fe             	mov    %rdi,%r14
  401479:	bf 18 00 00 00       	mov    $0x18,%edi
  40147e:	e8 7d fd ff ff       	callq  401200 <malloc@plt>
  401483:	48 89 c3             	mov    %rax,%rbx
  401486:	ff cd                	dec    %ebp
  401488:	89 e8                	mov    %ebp,%eax
  40148a:	d1 f8                	sar    %eax
  40148c:	09 e8                	or     %ebp,%eax
  40148e:	89 c1                	mov    %eax,%ecx
  401490:	c1 f9 02             	sar    $0x2,%ecx
  401493:	09 c1                	or     %eax,%ecx
  401495:	89 c8                	mov    %ecx,%eax
  401497:	c1 f8 04             	sar    $0x4,%eax
  40149a:	09 c8                	or     %ecx,%eax
  40149c:	89 c1                	mov    %eax,%ecx
  40149e:	c1 f9 08             	sar    $0x8,%ecx
  4014a1:	09 c1                	or     %eax,%ecx
  4014a3:	89 c8                	mov    %ecx,%eax
  4014a5:	c1 f8 10             	sar    $0x10,%eax
  4014a8:	09 c8                	or     %ecx,%eax
  4014aa:	48 98                	cltq   
  4014ac:	48 89 c2             	mov    %rax,%rdx
  4014af:	48 c1 e2 05          	shl    $0x5,%rdx
  4014b3:	ff c0                	inc    %eax
  4014b5:	89 43 08             	mov    %eax,0x8(%rbx)
  4014b8:	48 83 c2 20          	add    $0x20,%rdx
  4014bc:	be 40 00 00 00       	mov    $0x40,%esi
  4014c1:	48 89 df             	mov    %rbx,%rdi
  4014c4:	e8 e7 fd ff ff       	callq  4012b0 <posix_memalign@plt>
  4014c9:	85 c0                	test   %eax,%eax
  4014cb:	75 46                	jne    401513 <allocate_hashtable+0xa3>
  4014cd:	83 3d 18 9b 20 00 00 	cmpl   $0x0,0x209b18(%rip)        # 60afec <numalocalize>
  4014d4:	74 14                	je     4014ea <allocate_hashtable+0x7a>
  4014d6:	48 8b 3b             	mov    (%rbx),%rdi
  4014d9:	8b 73 08             	mov    0x8(%rbx),%esi
  4014dc:	c1 e6 02             	shl    $0x2,%esi
  4014df:	8b 15 03 9b 20 00    	mov    0x209b03(%rip),%edx        # 60afe8 <nthreads>
  4014e5:	e8 66 11 00 00       	callq  402650 <numa_localize>
  4014ea:	48 8b 3b             	mov    (%rbx),%rdi
  4014ed:	48 63 53 08          	movslq 0x8(%rbx),%rdx
  4014f1:	48 c1 e2 05          	shl    $0x5,%rdx
  4014f5:	31 f6                	xor    %esi,%esi
  4014f7:	e8 24 fc ff ff       	callq  401120 <memset@plt>
  4014fc:	c7 43 10 00 00 00 00 	movl   $0x0,0x10(%rbx)
  401503:	8b 43 08             	mov    0x8(%rbx),%eax
  401506:	ff c8                	dec    %eax
  401508:	89 43 0c             	mov    %eax,0xc(%rbx)
  40150b:	49 89 1e             	mov    %rbx,(%r14)
  40150e:	5b                   	pop    %rbx
  40150f:	41 5e                	pop    %r14
  401511:	5d                   	pop    %rbp
  401512:	c3                   	retq   
  401513:	bf 40 71 40 00       	mov    $0x407140,%edi
  401518:	e8 33 fd ff ff       	callq  401250 <perror@plt>
  40151d:	bf 01 00 00 00       	mov    $0x1,%edi
  401522:	e8 69 fd ff ff       	callq  401290 <exit@plt>
  401527:	66 0f 1f 84 00 00 00 	nopw   0x0(%rax,%rax,1)
  40152e:	00 00 

0000000000401530 <destroy_hashtable>:
  401530:	53                   	push   %rbx
  401531:	48 89 fb             	mov    %rdi,%rbx
  401534:	48 8b 3b             	mov    (%rbx),%rdi
  401537:	e8 f4 fa ff ff       	callq  401030 <free@plt>
  40153c:	48 89 df             	mov    %rbx,%rdi
  40153f:	5b                   	pop    %rbx
  401540:	e9 eb fa ff ff       	jmpq   401030 <free@plt>
  401545:	66 66 2e 0f 1f 84 00 	data16 nopw %cs:0x0(%rax,%rax,1)
  40154c:	00 00 00 00 

0000000000401550 <build_hashtable_st>:
  401550:	55                   	push   %rbp
  401551:	41 57                	push   %r15
  401553:	41 56                	push   %r14
  401555:	41 55                	push   %r13
  401557:	41 54                	push   %r12
  401559:	53                   	push   %rbx
  40155a:	48 83 ec 18          	sub    $0x18,%rsp
  40155e:	49 89 f4             	mov    %rsi,%r12
  401561:	49 89 fd             	mov    %rdi,%r13
  401564:	41 83 7c 24 08 00    	cmpl   $0x0,0x8(%r12)
  40156a:	0f 84 c5 00 00 00    	je     401635 <build_hashtable_st+0xe5>
  401570:	45 8b 75 0c          	mov    0xc(%r13),%r14d
  401574:	41 8b 4d 10          	mov    0x10(%r13),%ecx
  401578:	31 c0                	xor    %eax,%eax
  40157a:	44 89 74 24 0c       	mov    %r14d,0xc(%rsp)
  40157f:	90                   	nop
  401580:	89 c5                	mov    %eax,%ebp
  401582:	49 8b 1c 24          	mov    (%r12),%rbx
  401586:	8b 14 eb             	mov    (%rbx,%rbp,8),%edx
  401589:	44 21 f2             	and    %r14d,%edx
  40158c:	d3 ea                	shr    %cl,%edx
  40158e:	49 8b 45 00          	mov    0x0(%r13),%rax
  401592:	48 63 fa             	movslq %edx,%rdi
  401595:	48 c1 e7 05          	shl    $0x5,%rdi
  401599:	8b 54 38 04          	mov    0x4(%rax,%rdi,1),%edx
  40159d:	48 83 fa 02          	cmp    $0x2,%rdx
  4015a1:	75 5d                	jne    401600 <build_hashtable_st+0xb0>
  4015a3:	4c 8b 7c 38 18       	mov    0x18(%rax,%rdi,1),%r15
  4015a8:	4d 85 ff             	test   %r15,%r15
  4015ab:	74 0a                	je     4015b7 <build_hashtable_st+0x67>
  4015ad:	41 8b 57 04          	mov    0x4(%r15),%edx
  4015b1:	48 83 fa 02          	cmp    $0x2,%rdx
  4015b5:	75 5d                	jne    401614 <build_hashtable_st+0xc4>
  4015b7:	48 8d 44 38 18       	lea    0x18(%rax,%rdi,1),%rax
  4015bc:	48 89 44 24 10       	mov    %rax,0x10(%rsp)
  4015c1:	bf 01 00 00 00       	mov    $0x1,%edi
  4015c6:	be 20 00 00 00       	mov    $0x20,%esi
  4015cb:	41 89 ce             	mov    %ecx,%r14d
  4015ce:	e8 bd fb ff ff       	callq  401190 <calloc@plt>
  4015d3:	44 89 f1             	mov    %r14d,%ecx
  4015d6:	44 8b 74 24 0c       	mov    0xc(%rsp),%r14d
  4015db:	48 8b 54 24 10       	mov    0x10(%rsp),%rdx
  4015e0:	48 89 02             	mov    %rax,(%rdx)
  4015e3:	4c 89 78 18          	mov    %r15,0x18(%rax)
  4015e7:	c7 40 04 01 00 00 00 	movl   $0x1,0x4(%rax)
  4015ee:	48 83 c0 08          	add    $0x8,%rax
  4015f2:	eb 2c                	jmp    401620 <build_hashtable_st+0xd0>
  4015f4:	66 66 66 2e 0f 1f 84 	data16 data16 nopw %cs:0x0(%rax,%rax,1)
  4015fb:	00 00 00 00 00 
  401600:	48 8d 74 38 04       	lea    0x4(%rax,%rdi,1),%rsi
  401605:	48 01 f8             	add    %rdi,%rax
  401608:	48 8d 44 d0 08       	lea    0x8(%rax,%rdx,8),%rax
  40160d:	8d 52 01             	lea    0x1(%rdx),%edx
  401610:	89 16                	mov    %edx,(%rsi)
  401612:	eb 0c                	jmp    401620 <build_hashtable_st+0xd0>
  401614:	49 8d 44 d7 08       	lea    0x8(%r15,%rdx,8),%rax
  401619:	8d 52 01             	lea    0x1(%rdx),%edx
  40161c:	41 89 57 04          	mov    %edx,0x4(%r15)
  401620:	48 8b 14 eb          	mov    (%rbx,%rbp,8),%rdx
  401624:	48 89 10             	mov    %rdx,(%rax)
  401627:	8d 45 01             	lea    0x1(%rbp),%eax
  40162a:	41 3b 44 24 08       	cmp    0x8(%r12),%eax
  40162f:	0f 82 4b ff ff ff    	jb     401580 <build_hashtable_st+0x30>
  401635:	48 83 c4 18          	add    $0x18,%rsp
  401639:	5b                   	pop    %rbx
  40163a:	41 5c                	pop    %r12
  40163c:	41 5d                	pop    %r13
  40163e:	41 5e                	pop    %r14
  401640:	41 5f                	pop    %r15
  401642:	5d                   	pop    %rbp
  401643:	c3                   	retq   
  401644:	66 66 66 2e 0f 1f 84 	data16 data16 nopw %cs:0x0(%rax,%rax,1)
  40164b:	00 00 00 00 00 

0000000000401650 <probe_hashtable>:
  401650:	55                   	push   %rbp
  401651:	41 57                	push   %r15
  401653:	41 56                	push   %r14
  401655:	41 55                	push   %r13
  401657:	41 54                	push   %r12
  401659:	53                   	push   %rbx
  40165a:	50                   	push   %rax
  40165b:	49 89 f5             	mov    %rsi,%r13
  40165e:	49 89 fe             	mov    %rdi,%r14
  401661:	45 8b 66 0c          	mov    0xc(%r14),%r12d
  401665:	45 8b 7e 10          	mov    0x10(%r14),%r15d
  401669:	e8 42 fa ff ff       	callq  4010b0 <clock@plt>
  40166e:	48 89 05 63 99 20 00 	mov    %rax,0x209963(%rip)        # 60afd8 <start>
  401675:	45 31 c9             	xor    %r9d,%r9d
  401678:	41 83 7d 08 00       	cmpl   $0x0,0x8(%r13)
  40167d:	bd 00 00 00 00       	mov    $0x0,%ebp
  401682:	0f 84 05 01 00 00    	je     40178d <probe_hashtable+0x13d>
  401688:	4d 8b 45 00          	mov    0x0(%r13),%r8
  40168c:	31 ed                	xor    %ebp,%ebp
  40168e:	66 90                	xchg   %ax,%ax
  401690:	41 8d 41 40          	lea    0x40(%r9),%eax
  401694:	41 0f 18 0c c0       	prefetcht0 (%r8,%rax,8)
  401699:	41 8d 41 20          	lea    0x20(%r9),%eax
  40169d:	49 8b 4d 00          	mov    0x0(%r13),%rcx
  4016a1:	8b 04 c1             	mov    (%rcx,%rax,8),%eax
  4016a4:	44 21 e0             	and    %r12d,%eax
  4016a7:	44 89 f9             	mov    %r15d,%ecx
  4016aa:	d3 e8                	shr    %cl,%eax
  4016ac:	49 8b 0e             	mov    (%r14),%rcx
  4016af:	48 98                	cltq   
  4016b1:	48 c1 e0 05          	shl    $0x5,%rax
  4016b5:	0f 18 0c 01          	prefetcht0 (%rcx,%rax,1)
  4016b9:	44 89 c8             	mov    %r9d,%eax
  4016bc:	4d 8b 45 00          	mov    0x0(%r13),%r8
  4016c0:	41 8b 34 c0          	mov    (%r8,%rax,8),%esi
  4016c4:	89 f0                	mov    %esi,%eax
  4016c6:	44 21 e0             	and    %r12d,%eax
  4016c9:	44 89 f9             	mov    %r15d,%ecx
  4016cc:	d3 e8                	shr    %cl,%eax
  4016ce:	49 8b 16             	mov    (%r14),%rdx
  4016d1:	48 98                	cltq   
  4016d3:	48 c1 e0 05          	shl    $0x5,%rax
  4016d7:	4c 8d 14 02          	lea    (%rdx,%rax,1),%r10
  4016db:	48 8d 7c 02 20       	lea    0x20(%rdx,%rax,1),%rdi
  4016e0:	41 8b 52 04          	mov    0x4(%r10),%edx
  4016e4:	48 85 d2             	test   %rdx,%rdx
  4016e7:	0f 84 86 00 00 00    	je     401773 <probe_hashtable+0x123>
  4016ed:	48 8d 42 ff          	lea    -0x1(%rdx),%rax
  4016f1:	89 d3                	mov    %edx,%ebx
  4016f3:	83 e3 03             	and    $0x3,%ebx
  4016f6:	48 83 f8 03          	cmp    $0x3,%rax
  4016fa:	73 04                	jae    401700 <probe_hashtable+0xb0>
  4016fc:	31 c0                	xor    %eax,%eax
  4016fe:	eb 4a                	jmp    40174a <probe_hashtable+0xfa>
  401700:	48 29 da             	sub    %rbx,%rdx
  401703:	31 c0                	xor    %eax,%eax
  401705:	66 66 2e 0f 1f 84 00 	data16 nopw %cs:0x0(%rax,%rax,1)
  40170c:	00 00 00 00 
  401710:	31 c9                	xor    %ecx,%ecx
  401712:	3b 74 c7 e8          	cmp    -0x18(%rdi,%rax,8),%esi
  401716:	0f 94 c1             	sete   %cl
  401719:	48 01 e9             	add    %rbp,%rcx
  40171c:	31 ed                	xor    %ebp,%ebp
  40171e:	3b 74 c7 f0          	cmp    -0x10(%rdi,%rax,8),%esi
  401722:	40 0f 94 c5          	sete   %bpl
  401726:	48 01 cd             	add    %rcx,%rbp
  401729:	31 c9                	xor    %ecx,%ecx
  40172b:	3b 74 c7 f8          	cmp    -0x8(%rdi,%rax,8),%esi
  40172f:	0f 94 c1             	sete   %cl
  401732:	48 01 e9             	add    %rbp,%rcx
  401735:	31 ed                	xor    %ebp,%ebp
  401737:	3b 34 c7             	cmp    (%rdi,%rax,8),%esi
  40173a:	40 0f 94 c5          	sete   %bpl
  40173e:	48 01 cd             	add    %rcx,%rbp
  401741:	48 83 c0 04          	add    $0x4,%rax
  401745:	48 39 c2             	cmp    %rax,%rdx
  401748:	75 c6                	jne    401710 <probe_hashtable+0xc0>
  40174a:	48 85 db             	test   %rbx,%rbx
  40174d:	74 24                	je     401773 <probe_hashtable+0x123>
  40174f:	48 8d 44 c7 e8       	lea    -0x18(%rdi,%rax,8),%rax
  401754:	48 f7 db             	neg    %rbx
  401757:	66 0f 1f 84 00 00 00 	nopw   0x0(%rax,%rax,1)
  40175e:	00 00 
  401760:	31 c9                	xor    %ecx,%ecx
  401762:	3b 30                	cmp    (%rax),%esi
  401764:	0f 94 c1             	sete   %cl
  401767:	48 01 cd             	add    %rcx,%rbp
  40176a:	48 83 c0 08          	add    $0x8,%rax
  40176e:	48 ff c3             	inc    %rbx
  401771:	75 ed                	jne    401760 <probe_hashtable+0x110>
  401773:	4d 8b 52 18          	mov    0x18(%r10),%r10
  401777:	4d 85 d2             	test   %r10,%r10
  40177a:	0f 85 60 ff ff ff    	jne    4016e0 <probe_hashtable+0x90>
  401780:	41 ff c1             	inc    %r9d
  401783:	45 3b 4d 08          	cmp    0x8(%r13),%r9d
  401787:	0f 82 03 ff ff ff    	jb     401690 <probe_hashtable+0x40>
  40178d:	e8 1e f9 ff ff       	callq  4010b0 <clock@plt>
  401792:	48 89 05 37 98 20 00 	mov    %rax,0x209837(%rip)        # 60afd0 <end>
  401799:	48 2b 05 38 98 20 00 	sub    0x209838(%rip),%rax        # 60afd8 <start>
  4017a0:	f2 48 0f 2a c0       	cvtsi2sd %rax,%xmm0
  4017a5:	f2 0f 5e 05 6b 59 00 	divsd  0x596b(%rip),%xmm0        # 407118 <_IO_stdin_used+0x8>
  4017ac:	00 
  4017ad:	f2 0f 11 05 2b 98 20 	movsd  %xmm0,0x20982b(%rip)        # 60afe0 <cpu_time_used>
  4017b4:	00 
  4017b5:	bf 5c 71 40 00       	mov    $0x40715c,%edi
  4017ba:	b0 01                	mov    $0x1,%al
  4017bc:	e8 2f f9 ff ff       	callq  4010f0 <printf@plt>
  4017c1:	48 89 e8             	mov    %rbp,%rax
  4017c4:	48 83 c4 08          	add    $0x8,%rsp
  4017c8:	5b                   	pop    %rbx
  4017c9:	41 5c                	pop    %r12
  4017cb:	41 5d                	pop    %r13
  4017cd:	41 5e                	pop    %r14
  4017cf:	41 5f                	pop    %r15
  4017d1:	5d                   	pop    %rbp
  4017d2:	c3                   	retq   
  4017d3:	66 66 66 66 2e 0f 1f 	data16 data16 data16 nopw %cs:0x0(%rax,%rax,1)
  4017da:	84 00 00 00 00 00 

00000000004017e0 <NPO_st>:
  4017e0:	55                   	push   %rbp
  4017e1:	41 57                	push   %r15
  4017e3:	41 56                	push   %r14
  4017e5:	41 55                	push   %r13
  4017e7:	41 54                	push   %r12
  4017e9:	53                   	push   %rbx
  4017ea:	48 83 ec 58          	sub    $0x58,%rsp
  4017ee:	48 89 74 24 18       	mov    %rsi,0x18(%rsp)
  4017f3:	49 89 fe             	mov    %rdi,%r14
  4017f6:	41 8b 76 08          	mov    0x8(%r14),%esi
  4017fa:	d1 ee                	shr    %esi
  4017fc:	48 8d 7c 24 30       	lea    0x30(%rsp),%rdi
  401801:	e8 6a fc ff ff       	callq  401470 <allocate_hashtable>
  401806:	31 ed                	xor    %ebp,%ebp
  401808:	48 8d 7c 24 48       	lea    0x48(%rsp),%rdi
  40180d:	31 f6                	xor    %esi,%esi
  40180f:	e8 ec f8 ff ff       	callq  401100 <gettimeofday@plt>
  401814:	0f 31                	rdtsc  
  401816:	48 c1 e2 20          	shl    $0x20,%rdx
  40181a:	48 09 c2             	or     %rax,%rdx
  40181d:	48 89 54 24 10       	mov    %rdx,0x10(%rsp)
  401822:	0f 31                	rdtsc  
  401824:	48 c1 e2 20          	shl    $0x20,%rdx
  401828:	48 09 c2             	or     %rax,%rdx
  40182b:	48 89 54 24 08       	mov    %rdx,0x8(%rsp)
  401830:	4c 8b 64 24 30       	mov    0x30(%rsp),%r12
  401835:	41 83 7e 08 00       	cmpl   $0x0,0x8(%r14)
  40183a:	0f 84 c6 00 00 00    	je     401906 <NPO_st+0x126>
  401840:	41 8b 5c 24 0c       	mov    0xc(%r12),%ebx
  401845:	41 8b 4c 24 10       	mov    0x10(%r12),%ecx
  40184a:	4c 89 74 24 20       	mov    %r14,0x20(%rsp)
  40184f:	90                   	nop
  401850:	41 89 ef             	mov    %ebp,%r15d
  401853:	4d 8b 2e             	mov    (%r14),%r13
  401856:	43 8b 54 fd 00       	mov    0x0(%r13,%r15,8),%edx
  40185b:	21 da                	and    %ebx,%edx
  40185d:	d3 ea                	shr    %cl,%edx
  40185f:	49 8b 04 24          	mov    (%r12),%rax
  401863:	48 63 fa             	movslq %edx,%rdi
  401866:	48 c1 e7 05          	shl    $0x5,%rdi
  40186a:	8b 54 38 04          	mov    0x4(%rax,%rdi,1),%edx
  40186e:	48 83 fa 02          	cmp    $0x2,%rdx
  401872:	75 5c                	jne    4018d0 <NPO_st+0xf0>
  401874:	48 8b 6c 38 18       	mov    0x18(%rax,%rdi,1),%rbp
  401879:	48 85 ed             	test   %rbp,%rbp
  40187c:	74 09                	je     401887 <NPO_st+0xa7>
  40187e:	8b 55 04             	mov    0x4(%rbp),%edx
  401881:	48 83 fa 02          	cmp    $0x2,%rdx
  401885:	75 5d                	jne    4018e4 <NPO_st+0x104>
  401887:	48 8d 44 38 18       	lea    0x18(%rax,%rdi,1),%rax
  40188c:	48 89 44 24 28       	mov    %rax,0x28(%rsp)
  401891:	bf 01 00 00 00       	mov    $0x1,%edi
  401896:	be 20 00 00 00       	mov    $0x20,%esi
  40189b:	41 89 ce             	mov    %ecx,%r14d
  40189e:	e8 ed f8 ff ff       	callq  401190 <calloc@plt>
  4018a3:	44 89 f1             	mov    %r14d,%ecx
  4018a6:	48 8b 54 24 28       	mov    0x28(%rsp),%rdx
  4018ab:	48 89 02             	mov    %rax,(%rdx)
  4018ae:	4c 8b 74 24 20       	mov    0x20(%rsp),%r14
  4018b3:	48 89 68 18          	mov    %rbp,0x18(%rax)
  4018b7:	c7 40 04 01 00 00 00 	movl   $0x1,0x4(%rax)
  4018be:	48 83 c0 08          	add    $0x8,%rax
  4018c2:	eb 2c                	jmp    4018f0 <NPO_st+0x110>
  4018c4:	66 66 66 2e 0f 1f 84 	data16 data16 nopw %cs:0x0(%rax,%rax,1)
  4018cb:	00 00 00 00 00 
  4018d0:	48 8d 74 38 04       	lea    0x4(%rax,%rdi,1),%rsi
  4018d5:	48 01 f8             	add    %rdi,%rax
  4018d8:	48 8d 44 d0 08       	lea    0x8(%rax,%rdx,8),%rax
  4018dd:	8d 52 01             	lea    0x1(%rdx),%edx
  4018e0:	89 16                	mov    %edx,(%rsi)
  4018e2:	eb 0c                	jmp    4018f0 <NPO_st+0x110>
  4018e4:	48 8d 44 d5 08       	lea    0x8(%rbp,%rdx,8),%rax
  4018e9:	8d 52 01             	lea    0x1(%rdx),%edx
  4018ec:	89 55 04             	mov    %edx,0x4(%rbp)
  4018ef:	90                   	nop
  4018f0:	4b 8b 54 fd 00       	mov    0x0(%r13,%r15,8),%rdx
  4018f5:	48 89 10             	mov    %rdx,(%rax)
  4018f8:	41 8d 6f 01          	lea    0x1(%r15),%ebp
  4018fc:	41 3b 6e 08          	cmp    0x8(%r14),%ebp
  401900:	0f 82 4a ff ff ff    	jb     401850 <NPO_st+0x70>
  401906:	0f 31                	rdtsc  
  401908:	48 89 d5             	mov    %rdx,%rbp
  40190b:	48 c1 e5 20          	shl    $0x20,%rbp
  40190f:	48 09 c5             	or     %rax,%rbp
  401912:	48 2b 6c 24 08       	sub    0x8(%rsp),%rbp
  401917:	4c 89 e7             	mov    %r12,%rdi
  40191a:	4c 8b 74 24 18       	mov    0x18(%rsp),%r14
  40191f:	4c 89 f6             	mov    %r14,%rsi
  401922:	e8 29 fd ff ff       	callq  401650 <probe_hashtable>
  401927:	49 89 c5             	mov    %rax,%r13
  40192a:	0f 31                	rdtsc  
  40192c:	48 89 d3             	mov    %rdx,%rbx
  40192f:	48 c1 e3 20          	shl    $0x20,%rbx
  401933:	48 09 c3             	or     %rax,%rbx
  401936:	48 2b 5c 24 10       	sub    0x10(%rsp),%rbx
  40193b:	48 8d 7c 24 38       	lea    0x38(%rsp),%rdi
  401940:	31 f6                	xor    %esi,%esi
  401942:	e8 b9 f7 ff ff       	callq  401100 <gettimeofday@plt>
  401947:	41 8b 4e 08          	mov    0x8(%r14),%ecx
  40194b:	4c 8b 4c 24 48       	mov    0x48(%rsp),%r9
  401950:	48 83 ec 08          	sub    $0x8,%rsp
  401954:	31 d2                	xor    %edx,%edx
  401956:	48 89 df             	mov    %rbx,%rdi
  401959:	48 89 ee             	mov    %rbp,%rsi
  40195c:	4d 89 e8             	mov    %r13,%r8
  40195f:	ff 74 24 48          	pushq  0x48(%rsp)
  401963:	ff 74 24 48          	pushq  0x48(%rsp)
  401967:	ff 74 24 68          	pushq  0x68(%rsp)
  40196b:	e8 30 00 00 00       	callq  4019a0 <print_timing>
  401970:	48 83 c4 20          	add    $0x20,%rsp
  401974:	49 8b 3c 24          	mov    (%r12),%rdi
  401978:	e8 b3 f6 ff ff       	callq  401030 <free@plt>
  40197d:	4c 89 e7             	mov    %r12,%rdi
  401980:	e8 ab f6 ff ff       	callq  401030 <free@plt>
  401985:	4c 89 e8             	mov    %r13,%rax
  401988:	48 83 c4 58          	add    $0x58,%rsp
  40198c:	5b                   	pop    %rbx
  40198d:	41 5c                	pop    %r12
  40198f:	41 5d                	pop    %r13
  401991:	41 5e                	pop    %r14
  401993:	41 5f                	pop    %r15
  401995:	5d                   	pop    %rbp
  401996:	c3                   	retq   
  401997:	66 0f 1f 84 00 00 00 	nopw   0x0(%rax,%rax,1)
  40199e:	00 00 

00000000004019a0 <print_timing>:
  4019a0:	41 57                	push   %r15
  4019a2:	41 56                	push   %r14
  4019a4:	41 54                	push   %r12
  4019a6:	53                   	push   %rbx
  4019a7:	48 83 ec 28          	sub    $0x28,%rsp
  4019ab:	4d 89 c6             	mov    %r8,%r14
  4019ae:	49 89 d7             	mov    %rdx,%r15
  4019b1:	49 89 f4             	mov    %rsi,%r12
  4019b4:	48 89 fb             	mov    %rdi,%rbx
  4019b7:	48 8b 44 24 60       	mov    0x60(%rsp),%rax
  4019bc:	48 8b 54 24 58       	mov    0x58(%rsp),%rdx
  4019c1:	4c 29 ca             	sub    %r9,%rdx
  4019c4:	48 69 d2 40 42 0f 00 	imul   $0xf4240,%rdx,%rdx
  4019cb:	48 2b 44 24 50       	sub    0x50(%rsp),%rax
  4019d0:	48 01 d0             	add    %rdx,%rax
  4019d3:	f2 48 0f 2a c0       	cvtsi2sd %rax,%xmm0
  4019d8:	f2 0f 11 44 24 08    	movsd  %xmm0,0x8(%rsp)
  4019de:	66 48 0f 6e c3       	movq   %rbx,%xmm0
  4019e3:	66 0f 6f 0d 35 57 00 	movdqa 0x5735(%rip),%xmm1        # 407120 <_IO_stdin_used+0x10>
  4019ea:	00 
  4019eb:	66 0f 62 c1          	punpckldq %xmm1,%xmm0
  4019ef:	66 0f 28 15 39 57 00 	movapd 0x5739(%rip),%xmm2        # 407130 <_IO_stdin_used+0x20>
  4019f6:	00 
  4019f7:	66 0f 5c c2          	subpd  %xmm2,%xmm0
  4019fb:	66 0f 70 d8 4e       	pshufd $0x4e,%xmm0,%xmm3
  401a00:	66 0f 58 d8          	addpd  %xmm0,%xmm3
  401a04:	66 48 0f 6e c1       	movq   %rcx,%xmm0
  401a09:	66 0f 62 c1          	punpckldq %xmm1,%xmm0
  401a0d:	66 0f 5c c2          	subpd  %xmm2,%xmm0
  401a11:	66 0f 70 c8 4e       	pshufd $0x4e,%xmm0,%xmm1
  401a16:	66 0f 58 c8          	addpd  %xmm0,%xmm1
  401a1a:	f2 0f 5e d9          	divsd  %xmm1,%xmm3
  401a1e:	66 0f 29 5c 24 10    	movapd %xmm3,0x10(%rsp)
  401a24:	48 8b 0d 55 8d 20 00 	mov    0x208d55(%rip),%rcx        # 60a780 <stdout@@GLIBC_2.2.5>
  401a2b:	bf 97 71 40 00       	mov    $0x407197,%edi
  401a30:	be 26 00 00 00       	mov    $0x26,%esi
  401a35:	ba 01 00 00 00       	mov    $0x1,%edx
  401a3a:	e8 61 f8 ff ff       	callq  4012a0 <fwrite@plt>
  401a3f:	48 8b 3d 5a 8d 20 00 	mov    0x208d5a(%rip),%rdi        # 60a7a0 <stderr@@GLIBC_2.2.5>
  401a46:	be be 71 40 00       	mov    $0x4071be,%esi
  401a4b:	31 c0                	xor    %eax,%eax
  401a4d:	48 89 da             	mov    %rbx,%rdx
  401a50:	4c 89 e1             	mov    %r12,%rcx
  401a53:	4d 89 f8             	mov    %r15,%r8
  401a56:	e8 55 f7 ff ff       	callq  4011b0 <fprintf@plt>
  401a5b:	48 8b 35 1e 8d 20 00 	mov    0x208d1e(%rip),%rsi        # 60a780 <stdout@@GLIBC_2.2.5>
  401a62:	bf 0a 00 00 00       	mov    $0xa,%edi
  401a67:	e8 e4 f6 ff ff       	callq  401150 <fputc@plt>
  401a6c:	48 8b 0d 0d 8d 20 00 	mov    0x208d0d(%rip),%rcx        # 60a780 <stdout@@GLIBC_2.2.5>
  401a73:	bf d2 71 40 00       	mov    $0x4071d2,%edi
  401a78:	be 33 00 00 00       	mov    $0x33,%esi
  401a7d:	ba 01 00 00 00       	mov    $0x1,%edx
  401a82:	e8 19 f8 ff ff       	callq  4012a0 <fwrite@plt>
  401a87:	48 8b 3d f2 8c 20 00 	mov    0x208cf2(%rip),%rdi        # 60a780 <stdout@@GLIBC_2.2.5>
  401a8e:	be 06 72 40 00       	mov    $0x407206,%esi
  401a93:	b0 01                	mov    $0x1,%al
  401a95:	f2 0f 10 44 24 08    	movsd  0x8(%rsp),%xmm0
  401a9b:	4c 89 f2             	mov    %r14,%rdx
  401a9e:	e8 0d f7 ff ff       	callq  4011b0 <fprintf@plt>
  401aa3:	48 8b 3d d6 8c 20 00 	mov    0x208cd6(%rip),%rdi        # 60a780 <stdout@@GLIBC_2.2.5>
  401aaa:	e8 61 f7 ff ff       	callq  401210 <fflush@plt>
  401aaf:	48 8b 3d ea 8c 20 00 	mov    0x208cea(%rip),%rdi        # 60a7a0 <stderr@@GLIBC_2.2.5>
  401ab6:	be 16 72 40 00       	mov    $0x407216,%esi
  401abb:	b0 01                	mov    $0x1,%al
  401abd:	0f 28 44 24 10       	movaps 0x10(%rsp),%xmm0
  401ac2:	e8 e9 f6 ff ff       	callq  4011b0 <fprintf@plt>
  401ac7:	48 8b 3d d2 8c 20 00 	mov    0x208cd2(%rip),%rdi        # 60a7a0 <stderr@@GLIBC_2.2.5>
  401ace:	e8 3d f7 ff ff       	callq  401210 <fflush@plt>
  401ad3:	48 8b 35 a6 8c 20 00 	mov    0x208ca6(%rip),%rsi        # 60a780 <stdout@@GLIBC_2.2.5>
  401ada:	bf 0a 00 00 00       	mov    $0xa,%edi
  401adf:	48 83 c4 28          	add    $0x28,%rsp
  401ae3:	5b                   	pop    %rbx
  401ae4:	41 5c                	pop    %r12
  401ae6:	41 5e                	pop    %r14
  401ae8:	41 5f                	pop    %r15
  401aea:	e9 61 f6 ff ff       	jmpq   401150 <fputc@plt>
  401aef:	90                   	nop

0000000000401af0 <build_hashtable_mt>:
  401af0:	55                   	push   %rbp
  401af1:	41 57                	push   %r15
  401af3:	41 56                	push   %r14
  401af5:	41 55                	push   %r13
  401af7:	41 54                	push   %r12
  401af9:	53                   	push   %rbx
  401afa:	48 83 ec 28          	sub    $0x28,%rsp
  401afe:	49 89 f8             	mov    %rdi,%r8
  401b01:	83 7e 08 00          	cmpl   $0x0,0x8(%rsi)
  401b05:	0f 84 40 01 00 00    	je     401c4b <build_hashtable_mt+0x15b>
  401b0b:	45 8b 48 0c          	mov    0xc(%r8),%r9d
  401b0f:	41 8b 48 10          	mov    0x10(%r8),%ecx
  401b13:	31 c0                	xor    %eax,%eax
  401b15:	4c 89 44 24 20       	mov    %r8,0x20(%rsp)
  401b1a:	48 89 54 24 18       	mov    %rdx,0x18(%rsp)
  401b1f:	89 4c 24 0c          	mov    %ecx,0xc(%rsp)
  401b23:	48 89 74 24 10       	mov    %rsi,0x10(%rsp)
  401b28:	0f 1f 84 00 00 00 00 	nopl   0x0(%rax,%rax,1)
  401b2f:	00 
  401b30:	41 89 c5             	mov    %eax,%r13d
  401b33:	48 8b 06             	mov    (%rsi),%rax
  401b36:	42 8b 3c e8          	mov    (%rax,%r13,8),%edi
  401b3a:	44 21 cf             	and    %r9d,%edi
  401b3d:	d3 ef                	shr    %cl,%edi
  401b3f:	49 8b 00             	mov    (%r8),%rax
  401b42:	48 63 ef             	movslq %edi,%rbp
  401b45:	48 c1 e5 05          	shl    $0x5,%rbp
  401b49:	4c 8d 34 28          	lea    (%rax,%rbp,1),%r14
  401b4d:	b3 01                	mov    $0x1,%bl
  401b4f:	f0 86 1c 28          	lock xchg %bl,(%rax,%rbp,1)
  401b53:	eb 13                	jmp    401b68 <build_hashtable_mt+0x78>
  401b55:	66 66 2e 0f 1f 84 00 	data16 nopw %cs:0x0(%rax,%rax,1)
  401b5c:	00 00 00 00 
  401b60:	f3 90                	pause  
  401b62:	b3 01                	mov    $0x1,%bl
  401b64:	f0 41 86 1e          	lock xchg %bl,(%r14)
  401b68:	84 db                	test   %bl,%bl
  401b6a:	75 f4                	jne    401b60 <build_hashtable_mt+0x70>
  401b6c:	8b 7c 28 04          	mov    0x4(%rax,%rbp,1),%edi
  401b70:	48 83 ff 02          	cmp    $0x2,%rdi
  401b74:	75 4a                	jne    401bc0 <build_hashtable_mt+0xd0>
  401b76:	4c 8b 64 28 18       	mov    0x18(%rax,%rbp,1),%r12
  401b7b:	4d 85 e4             	test   %r12,%r12
  401b7e:	74 0f                	je     401b8f <build_hashtable_mt+0x9f>
  401b80:	41 8b 7c 24 04       	mov    0x4(%r12),%edi
  401b85:	48 83 ff 02          	cmp    $0x2,%rdi
  401b89:	0f 85 8b 00 00 00    	jne    401c1a <build_hashtable_mt+0x12a>
  401b8f:	48 8d 5c 28 18       	lea    0x18(%rax,%rbp,1),%rbx
  401b94:	4c 8b 3a             	mov    (%rdx),%r15
  401b97:	41 8b 7f 08          	mov    0x8(%r15),%edi
  401b9b:	48 81 ff ff 03 00 00 	cmp    $0x3ff,%rdi
  401ba2:	77 2e                	ja     401bd2 <build_hashtable_mt+0xe2>
  401ba4:	48 89 f8             	mov    %rdi,%rax
  401ba7:	48 c1 e0 05          	shl    $0x5,%rax
  401bab:	49 8d 44 07 10       	lea    0x10(%r15,%rax,1),%rax
  401bb0:	8d 7f 01             	lea    0x1(%rdi),%edi
  401bb3:	41 89 7f 08          	mov    %edi,0x8(%r15)
  401bb7:	eb 4d                	jmp    401c06 <build_hashtable_mt+0x116>
  401bb9:	0f 1f 80 00 00 00 00 	nopl   0x0(%rax)
  401bc0:	48 8d 6c 28 04       	lea    0x4(%rax,%rbp,1),%rbp
  401bc5:	49 8d 44 fe 08       	lea    0x8(%r14,%rdi,8),%rax
  401bca:	8d 7f 01             	lea    0x1(%rdi),%edi
  401bcd:	89 7d 00             	mov    %edi,0x0(%rbp)
  401bd0:	eb 5e                	jmp    401c30 <build_hashtable_mt+0x140>
  401bd2:	bf 10 80 00 00       	mov    $0x8010,%edi
  401bd7:	44 89 cd             	mov    %r9d,%ebp
  401bda:	e8 21 f6 ff ff       	callq  401200 <malloc@plt>
  401bdf:	8b 4c 24 0c          	mov    0xc(%rsp),%ecx
  401be3:	41 89 e9             	mov    %ebp,%r9d
  401be6:	4c 8b 44 24 20       	mov    0x20(%rsp),%r8
  401beb:	48 8b 74 24 10       	mov    0x10(%rsp),%rsi
  401bf0:	48 8b 54 24 18       	mov    0x18(%rsp),%rdx
  401bf5:	c7 40 08 01 00 00 00 	movl   $0x1,0x8(%rax)
  401bfc:	4c 89 38             	mov    %r15,(%rax)
  401bff:	48 89 02             	mov    %rax,(%rdx)
  401c02:	48 83 c0 10          	add    $0x10,%rax
  401c06:	48 89 03             	mov    %rax,(%rbx)
  401c09:	4c 89 60 18          	mov    %r12,0x18(%rax)
  401c0d:	c7 40 04 01 00 00 00 	movl   $0x1,0x4(%rax)
  401c14:	48 83 c0 08          	add    $0x8,%rax
  401c18:	eb 16                	jmp    401c30 <build_hashtable_mt+0x140>
  401c1a:	49 8d 44 fc 08       	lea    0x8(%r12,%rdi,8),%rax
  401c1f:	8d 7f 01             	lea    0x1(%rdi),%edi
  401c22:	41 89 7c 24 04       	mov    %edi,0x4(%r12)
  401c27:	66 0f 1f 84 00 00 00 	nopw   0x0(%rax,%rax,1)
  401c2e:	00 00 
  401c30:	48 8b 3e             	mov    (%rsi),%rdi
  401c33:	4a 8b 3c ef          	mov    (%rdi,%r13,8),%rdi
  401c37:	48 89 38             	mov    %rdi,(%rax)
  401c3a:	41 c6 06 00          	movb   $0x0,(%r14)
  401c3e:	41 8d 45 01          	lea    0x1(%r13),%eax
  401c42:	3b 46 08             	cmp    0x8(%rsi),%eax
  401c45:	0f 82 e5 fe ff ff    	jb     401b30 <build_hashtable_mt+0x40>
  401c4b:	48 83 c4 28          	add    $0x28,%rsp
  401c4f:	5b                   	pop    %rbx
  401c50:	41 5c                	pop    %r12
  401c52:	41 5d                	pop    %r13
  401c54:	41 5e                	pop    %r14
  401c56:	41 5f                	pop    %r15
  401c58:	5d                   	pop    %rbp
  401c59:	c3                   	retq   
  401c5a:	66 0f 1f 44 00 00    	nopw   0x0(%rax,%rax,1)

0000000000401c60 <npo_thread>:
  401c60:	53                   	push   %rbx
  401c61:	48 83 ec 10          	sub    $0x10,%rsp
  401c65:	48 89 fb             	mov    %rdi,%rbx
  401c68:	bf 10 80 00 00       	mov    $0x8010,%edi
  401c6d:	e8 8e f5 ff ff       	callq  401200 <malloc@plt>
  401c72:	c7 40 08 00 00 00 00 	movl   $0x0,0x8(%rax)
  401c79:	48 c7 00 00 00 00 00 	movq   $0x0,(%rax)
  401c80:	48 89 44 24 08       	mov    %rax,0x8(%rsp)
  401c85:	48 8b 7b 30          	mov    0x30(%rbx),%rdi
  401c89:	e8 32 f6 ff ff       	callq  4012c0 <pthread_barrier_wait@plt>
  401c8e:	ff c0                	inc    %eax
  401c90:	83 f8 02             	cmp    $0x2,%eax
  401c93:	0f 83 cf 00 00 00    	jae    401d68 <npo_thread+0x108>
  401c99:	83 3b 00             	cmpl   $0x0,(%rbx)
  401c9c:	75 2d                	jne    401ccb <npo_thread+0x6b>
  401c9e:	48 8d 7b 58          	lea    0x58(%rbx),%rdi
  401ca2:	31 f6                	xor    %esi,%esi
  401ca4:	e8 57 f4 ff ff       	callq  401100 <gettimeofday@plt>
  401ca9:	0f 31                	rdtsc  
  401cab:	48 c1 e2 20          	shl    $0x20,%rdx
  401caf:	48 09 c2             	or     %rax,%rdx
  401cb2:	48 89 53 40          	mov    %rdx,0x40(%rbx)
  401cb6:	0f 31                	rdtsc  
  401cb8:	48 c1 e2 20          	shl    $0x20,%rdx
  401cbc:	48 09 c2             	or     %rax,%rdx
  401cbf:	48 89 53 48          	mov    %rdx,0x48(%rbx)
  401cc3:	48 c7 43 50 00 00 00 	movq   $0x0,0x50(%rbx)
  401cca:	00 
  401ccb:	48 8b 7b 08          	mov    0x8(%rbx),%rdi
  401ccf:	48 8d 73 10          	lea    0x10(%rbx),%rsi
  401cd3:	48 8d 54 24 08       	lea    0x8(%rsp),%rdx
  401cd8:	e8 13 fe ff ff       	callq  401af0 <build_hashtable_mt>
  401cdd:	48 8b 7b 30          	mov    0x30(%rbx),%rdi
  401ce1:	e8 da f5 ff ff       	callq  4012c0 <pthread_barrier_wait@plt>
  401ce6:	ff c0                	inc    %eax
  401ce8:	83 f8 02             	cmp    $0x2,%eax
  401ceb:	73 7b                	jae    401d68 <npo_thread+0x108>
  401ced:	83 3b 00             	cmpl   $0x0,(%rbx)
  401cf0:	75 11                	jne    401d03 <npo_thread+0xa3>
  401cf2:	0f 31                	rdtsc  
  401cf4:	48 c1 e2 20          	shl    $0x20,%rdx
  401cf8:	48 09 c2             	or     %rax,%rdx
  401cfb:	48 2b 53 48          	sub    0x48(%rbx),%rdx
  401cff:	48 89 53 48          	mov    %rdx,0x48(%rbx)
  401d03:	48 8b 7b 08          	mov    0x8(%rbx),%rdi
  401d07:	48 8d 73 20          	lea    0x20(%rbx),%rsi
  401d0b:	e8 40 f9 ff ff       	callq  401650 <probe_hashtable>
  401d10:	48 89 43 38          	mov    %rax,0x38(%rbx)
  401d14:	48 8b 7b 30          	mov    0x30(%rbx),%rdi
  401d18:	e8 a3 f5 ff ff       	callq  4012c0 <pthread_barrier_wait@plt>
  401d1d:	ff c0                	inc    %eax
  401d1f:	83 f8 02             	cmp    $0x2,%eax
  401d22:	73 44                	jae    401d68 <npo_thread+0x108>
  401d24:	83 3b 00             	cmpl   $0x0,(%rbx)
  401d27:	75 1f                	jne    401d48 <npo_thread+0xe8>
  401d29:	0f 31                	rdtsc  
  401d2b:	48 c1 e2 20          	shl    $0x20,%rdx
  401d2f:	48 09 c2             	or     %rax,%rdx
  401d32:	48 2b 53 40          	sub    0x40(%rbx),%rdx
  401d36:	48 89 53 40          	mov    %rdx,0x40(%rbx)
  401d3a:	48 83 c3 68          	add    $0x68,%rbx
  401d3e:	31 f6                	xor    %esi,%esi
  401d40:	48 89 df             	mov    %rbx,%rdi
  401d43:	e8 b8 f3 ff ff       	callq  401100 <gettimeofday@plt>
  401d48:	48 8b 7c 24 08       	mov    0x8(%rsp),%rdi
  401d4d:	0f 1f 00             	nopl   (%rax)
  401d50:	48 8b 1f             	mov    (%rdi),%rbx
  401d53:	e8 d8 f2 ff ff       	callq  401030 <free@plt>
  401d58:	48 85 db             	test   %rbx,%rbx
  401d5b:	48 89 df             	mov    %rbx,%rdi
  401d5e:	75 f0                	jne    401d50 <npo_thread+0xf0>
  401d60:	31 c0                	xor    %eax,%eax
  401d62:	48 83 c4 10          	add    $0x10,%rsp
  401d66:	5b                   	pop    %rbx
  401d67:	c3                   	retq   
  401d68:	bf 20 72 40 00       	mov    $0x407220,%edi
  401d6d:	e8 fe f2 ff ff       	callq  401070 <puts@plt>
  401d72:	bf 01 00 00 00       	mov    $0x1,%edi
  401d77:	e8 14 f5 ff ff       	callq  401290 <exit@plt>
  401d7c:	0f 1f 40 00          	nopl   0x0(%rax)

0000000000401d80 <NPO>:
  401d80:	55                   	push   %rbp
  401d81:	48 89 e5             	mov    %rsp,%rbp
  401d84:	41 57                	push   %r15
  401d86:	41 56                	push   %r14
  401d88:	41 55                	push   %r13
  401d8a:	41 54                	push   %r12
  401d8c:	53                   	push   %rbx
  401d8d:	48 81 ec 68 01 00 00 	sub    $0x168,%rsp
  401d94:	89 d3                	mov    %edx,%ebx
  401d96:	49 89 f7             	mov    %rsi,%r15
  401d99:	49 89 fc             	mov    %rdi,%r12
  401d9c:	48 89 65 90          	mov    %rsp,-0x70(%rbp)
  401da0:	89 d8                	mov    %ebx,%eax
  401da2:	48 6b c8 78          	imul   $0x78,%rax,%rcx
  401da6:	48 83 c1 0f          	add    $0xf,%rcx
  401daa:	48 ba f0 ff ff ff ff 	movabs $0xfffffffff0,%rdx
  401db1:	00 00 00 
  401db4:	48 21 ca             	and    %rcx,%rdx
  401db7:	49 89 e6             	mov    %rsp,%r14
  401dba:	49 29 d6             	sub    %rdx,%r14
  401dbd:	4c 89 f4             	mov    %r14,%rsp
  401dc0:	48 8d 04 c5 0f 00 00 	lea    0xf(,%rax,8),%rax
  401dc7:	00 
  401dc8:	48 b9 f0 ff ff ff 0f 	movabs $0xffffffff0,%rcx
  401dcf:	00 00 00 
  401dd2:	48 21 c1             	and    %rax,%rcx
  401dd5:	48 89 e0             	mov    %rsp,%rax
  401dd8:	48 29 c8             	sub    %rcx,%rax
  401ddb:	48 89 45 c0          	mov    %rax,-0x40(%rbp)
  401ddf:	48 89 c4             	mov    %rax,%rsp
  401de2:	41 8b 74 24 08       	mov    0x8(%r12),%esi
  401de7:	d1 ee                	shr    %esi
  401de9:	48 8d 7d a8          	lea    -0x58(%rbp),%rdi
  401ded:	e8 7e f6 ff ff       	callq  401470 <allocate_hashtable>
  401df2:	4c 89 a5 60 ff ff ff 	mov    %r12,-0xa0(%rbp)
  401df9:	45 8b 64 24 08       	mov    0x8(%r12),%r12d
  401dfe:	4c 89 7d b8          	mov    %r15,-0x48(%rbp)
  401e02:	45 8b 6f 08          	mov    0x8(%r15),%r13d
  401e06:	44 89 e0             	mov    %r12d,%eax
  401e09:	99                   	cltd   
  401e0a:	f7 fb                	idiv   %ebx
  401e0c:	89 45 d0             	mov    %eax,-0x30(%rbp)
  401e0f:	44 89 e8             	mov    %r13d,%eax
  401e12:	99                   	cltd   
  401e13:	f7 fb                	idiv   %ebx
  401e15:	89 45 d4             	mov    %eax,-0x2c(%rbp)
  401e18:	48 8d bd b0 fe ff ff 	lea    -0x150(%rbp),%rdi
  401e1f:	31 f6                	xor    %esi,%esi
  401e21:	89 da                	mov    %ebx,%edx
  401e23:	e8 f8 f3 ff ff       	callq  401220 <pthread_barrier_init@plt>
  401e28:	85 c0                	test   %eax,%eax
  401e2a:	0f 85 80 02 00 00    	jne    4020b0 <NPO+0x330>
  401e30:	48 8d bd 78 fe ff ff 	lea    -0x188(%rbp),%rdi
  401e37:	e8 44 f3 ff ff       	callq  401180 <pthread_attr_init@plt>
  401e3c:	45 31 ff             	xor    %r15d,%r15d
  401e3f:	85 db                	test   %ebx,%ebx
  401e41:	48 8b 4d c0          	mov    -0x40(%rbp),%rcx
  401e45:	0f 8e f0 01 00 00    	jle    40203b <NPO+0x2bb>
  401e4b:	44 89 6d cc          	mov    %r13d,-0x34(%rbp)
  401e4f:	44 89 65 c8          	mov    %r12d,-0x38(%rbp)
  401e53:	48 8b 45 a8          	mov    -0x58(%rbp),%rax
  401e57:	48 89 85 68 ff ff ff 	mov    %rax,-0x98(%rbp)
  401e5e:	8d 43 ff             	lea    -0x1(%rbx),%eax
  401e61:	48 89 85 70 ff ff ff 	mov    %rax,-0x90(%rbp)
  401e68:	48 63 45 d4          	movslq -0x2c(%rbp),%rax
  401e6c:	44 8b 6d d0          	mov    -0x30(%rbp),%r13d
  401e70:	49 63 d5             	movslq %r13d,%rdx
  401e73:	48 89 5d a0          	mov    %rbx,-0x60(%rbp)
  401e77:	48 63 f3             	movslq %ebx,%rsi
  401e7a:	48 89 75 88          	mov    %rsi,-0x78(%rbp)
  401e7e:	48 c1 e2 03          	shl    $0x3,%rdx
  401e82:	48 89 55 80          	mov    %rdx,-0x80(%rbp)
  401e86:	48 c1 e0 03          	shl    $0x3,%rax
  401e8a:	48 89 85 78 ff ff ff 	mov    %rax,-0x88(%rbp)
  401e91:	45 31 e4             	xor    %r12d,%r12d
  401e94:	31 d2                	xor    %edx,%edx
  401e96:	4d 89 f7             	mov    %r14,%r15
  401e99:	49 89 ce             	mov    %rcx,%r14
  401e9c:	4c 89 7d 98          	mov    %r15,-0x68(%rbp)
  401ea0:	31 db                	xor    %ebx,%ebx
  401ea2:	66 66 66 66 66 2e 0f 	data16 data16 data16 data16 nopw %cs:0x0(%rax,%rax,1)
  401ea9:	1f 84 00 00 00 00 00 
  401eb0:	48 89 55 b0          	mov    %rdx,-0x50(%rbp)
  401eb4:	4c 89 a5 50 ff ff ff 	mov    %r12,-0xb0(%rbp)
  401ebb:	89 df                	mov    %ebx,%edi
  401ebd:	e8 8e 1f 00 00       	callq  403e50 <get_cpu_id>
  401ec2:	0f 57 c0             	xorps  %xmm0,%xmm0
  401ec5:	0f 29 85 40 ff ff ff 	movaps %xmm0,-0xc0(%rbp)
  401ecc:	0f 29 85 30 ff ff ff 	movaps %xmm0,-0xd0(%rbp)
  401ed3:	0f 29 85 20 ff ff ff 	movaps %xmm0,-0xe0(%rbp)
  401eda:	0f 29 85 10 ff ff ff 	movaps %xmm0,-0xf0(%rbp)
  401ee1:	0f 29 85 00 ff ff ff 	movaps %xmm0,-0x100(%rbp)
  401ee8:	0f 29 85 f0 fe ff ff 	movaps %xmm0,-0x110(%rbp)
  401eef:	0f 29 85 e0 fe ff ff 	movaps %xmm0,-0x120(%rbp)
  401ef6:	0f 29 85 d0 fe ff ff 	movaps %xmm0,-0x130(%rbp)
  401efd:	3d ff 03 00 00       	cmp    $0x3ff,%eax
  401f02:	77 17                	ja     401f1b <NPO+0x19b>
  401f04:	48 63 c8             	movslq %eax,%rcx
  401f07:	b8 01 00 00 00       	mov    $0x1,%eax
  401f0c:	48 d3 e0             	shl    %cl,%rax
  401f0f:	48 c1 e9 06          	shr    $0x6,%rcx
  401f13:	48 09 84 cd d0 fe ff 	or     %rax,-0x130(%rbp,%rcx,8)
  401f1a:	ff 
  401f1b:	be 80 00 00 00       	mov    $0x80,%esi
  401f20:	48 8d 85 78 fe ff ff 	lea    -0x188(%rbp),%rax
  401f27:	48 89 c7             	mov    %rax,%rdi
  401f2a:	48 8d 95 d0 fe ff ff 	lea    -0x130(%rbp),%rdx
  401f31:	e8 5a f1 ff ff       	callq  401090 <pthread_attr_setaffinity_np@plt>
  401f36:	41 89 1f             	mov    %ebx,(%r15)
  401f39:	48 8b 85 68 ff ff ff 	mov    -0x98(%rbp),%rax
  401f40:	49 89 47 08          	mov    %rax,0x8(%r15)
  401f44:	48 8d 85 b0 fe ff ff 	lea    -0x150(%rbp),%rax
  401f4b:	49 89 47 30          	mov    %rax,0x30(%r15)
  401f4f:	48 39 9d 70 ff ff ff 	cmp    %rbx,-0x90(%rbp)
  401f56:	44 89 e8             	mov    %r13d,%eax
  401f59:	48 89 9d 58 ff ff ff 	mov    %rbx,-0xa8(%rbp)
  401f60:	8b 5d c8             	mov    -0x38(%rbp),%ebx
  401f63:	0f 44 c3             	cmove  %ebx,%eax
  401f66:	41 89 47 18          	mov    %eax,0x18(%r15)
  401f6a:	8b 45 d4             	mov    -0x2c(%rbp),%eax
  401f6d:	44 8b 6d cc          	mov    -0x34(%rbp),%r13d
  401f71:	41 0f 44 c5          	cmove  %r13d,%eax
  401f75:	48 8b 8d 60 ff ff ff 	mov    -0xa0(%rbp),%rcx
  401f7c:	48 8b 09             	mov    (%rcx),%rcx
  401f7f:	48 03 4d b0          	add    -0x50(%rbp),%rcx
  401f83:	49 89 4f 10          	mov    %rcx,0x10(%r15)
  401f87:	41 89 47 28          	mov    %eax,0x28(%r15)
  401f8b:	48 8b 45 b8          	mov    -0x48(%rbp),%rax
  401f8f:	48 8b 00             	mov    (%rax),%rax
  401f92:	4c 8b a5 50 ff ff ff 	mov    -0xb0(%rbp),%r12
  401f99:	4c 01 e0             	add    %r12,%rax
  401f9c:	49 89 47 20          	mov    %rax,0x20(%r15)
  401fa0:	ba 60 1c 40 00       	mov    $0x401c60,%edx
  401fa5:	4c 89 f7             	mov    %r14,%rdi
  401fa8:	48 8d b5 78 fe ff ff 	lea    -0x188(%rbp),%rsi
  401faf:	4c 89 f9             	mov    %r15,%rcx
  401fb2:	e8 99 f0 ff ff       	callq  401050 <pthread_create@plt>
  401fb7:	89 c1                	mov    %eax,%ecx
  401fb9:	85 c9                	test   %ecx,%ecx
  401fbb:	0f 85 d7 00 00 00    	jne    402098 <NPO+0x318>
  401fc1:	44 2b 6d d4          	sub    -0x2c(%rbp),%r13d
  401fc5:	44 89 6d cc          	mov    %r13d,-0x34(%rbp)
  401fc9:	8b 4d d0             	mov    -0x30(%rbp),%ecx
  401fcc:	29 cb                	sub    %ecx,%ebx
  401fce:	89 5d c8             	mov    %ebx,-0x38(%rbp)
  401fd1:	48 8b 85 58 ff ff ff 	mov    -0xa8(%rbp),%rax
  401fd8:	48 ff c0             	inc    %rax
  401fdb:	49 83 c7 78          	add    $0x78,%r15
  401fdf:	49 83 c6 08          	add    $0x8,%r14
  401fe3:	48 8b 55 b0          	mov    -0x50(%rbp),%rdx
  401fe7:	48 03 55 80          	add    -0x80(%rbp),%rdx
  401feb:	4c 03 a5 78 ff ff ff 	add    -0x88(%rbp),%r12
  401ff2:	48 3b 45 88          	cmp    -0x78(%rbp),%rax
  401ff6:	41 89 cd             	mov    %ecx,%r13d
  401ff9:	48 89 c3             	mov    %rax,%rbx
  401ffc:	0f 8c ae fe ff ff    	jl     401eb0 <NPO+0x130>
  402002:	45 31 ff             	xor    %r15d,%r15d
  402005:	4c 8b 6d a0          	mov    -0x60(%rbp),%r13
  402009:	45 85 ed             	test   %r13d,%r13d
  40200c:	4c 8b 75 98          	mov    -0x68(%rbp),%r14
  402010:	4c 8b 65 c0          	mov    -0x40(%rbp),%r12
  402014:	7e 25                	jle    40203b <NPO+0x2bb>
  402016:	49 8d 5e 38          	lea    0x38(%r14),%rbx
  40201a:	45 31 ff             	xor    %r15d,%r15d
  40201d:	0f 1f 00             	nopl   (%rax)
  402020:	49 8b 3c 24          	mov    (%r12),%rdi
  402024:	31 f6                	xor    %esi,%esi
  402026:	e8 45 f2 ff ff       	callq  401270 <pthread_join@plt>
  40202b:	4c 03 3b             	add    (%rbx),%r15
  40202e:	49 83 c4 08          	add    $0x8,%r12
  402032:	48 83 c3 78          	add    $0x78,%rbx
  402036:	41 ff cd             	dec    %r13d
  402039:	75 e5                	jne    402020 <NPO+0x2a0>
  40203b:	49 8b 7e 40          	mov    0x40(%r14),%rdi
  40203f:	49 8b 76 48          	mov    0x48(%r14),%rsi
  402043:	49 8b 56 50          	mov    0x50(%r14),%rdx
  402047:	48 8b 45 b8          	mov    -0x48(%rbp),%rax
  40204b:	8b 48 08             	mov    0x8(%rax),%ecx
  40204e:	4d 8b 4e 58          	mov    0x58(%r14),%r9
  402052:	48 83 ec 08          	sub    $0x8,%rsp
  402056:	4d 89 f8             	mov    %r15,%r8
  402059:	41 ff 76 70          	pushq  0x70(%r14)
  40205d:	41 ff 76 68          	pushq  0x68(%r14)
  402061:	41 ff 76 60          	pushq  0x60(%r14)
  402065:	e8 36 f9 ff ff       	callq  4019a0 <print_timing>
  40206a:	48 83 c4 20          	add    $0x20,%rsp
  40206e:	4c 8b 75 a8          	mov    -0x58(%rbp),%r14
  402072:	49 8b 3e             	mov    (%r14),%rdi
  402075:	e8 b6 ef ff ff       	callq  401030 <free@plt>
  40207a:	4c 89 f7             	mov    %r14,%rdi
  40207d:	e8 ae ef ff ff       	callq  401030 <free@plt>
  402082:	48 8b 65 90          	mov    -0x70(%rbp),%rsp
  402086:	4c 89 f8             	mov    %r15,%rax
  402089:	48 8d 65 d8          	lea    -0x28(%rbp),%rsp
  40208d:	5b                   	pop    %rbx
  40208e:	41 5c                	pop    %r12
  402090:	41 5d                	pop    %r13
  402092:	41 5e                	pop    %r14
  402094:	41 5f                	pop    %r15
  402096:	5d                   	pop    %rbp
  402097:	c3                   	retq   
  402098:	bf 67 71 40 00       	mov    $0x407167,%edi
  40209d:	31 c0                	xor    %eax,%eax
  40209f:	89 ce                	mov    %ecx,%esi
  4020a1:	e8 4a f0 ff ff       	callq  4010f0 <printf@plt>
  4020a6:	bf ff ff ff ff       	mov    $0xffffffff,%edi
  4020ab:	e8 e0 f1 ff ff       	callq  401290 <exit@plt>
  4020b0:	bf 40 72 40 00       	mov    $0x407240,%edi
  4020b5:	e8 b6 ef ff ff       	callq  401070 <puts@plt>
  4020ba:	bf 01 00 00 00       	mov    $0x1,%edi
  4020bf:	e8 cc f1 ff ff       	callq  401290 <exit@plt>
  4020c4:	66 2e 0f 1f 84 00 00 	nopw   %cs:0x0(%rax,%rax,1)
  4020cb:	00 00 00 
  4020ce:	66 90                	xchg   %ax,%ax

00000000004020d0 <main>:
  4020d0:	55                   	push   %rbp
  4020d1:	41 57                	push   %r15
  4020d3:	41 56                	push   %r14
  4020d5:	41 54                	push   %r12
  4020d7:	53                   	push   %rbx
  4020d8:	48 83 ec 70          	sub    $0x70,%rsp
  4020dc:	48 c7 44 24 28 90 a1 	movq   $0x60a190,0x28(%rsp)
  4020e3:	60 00 
  4020e5:	0f 28 05 74 51 00 00 	movaps 0x5174(%rip),%xmm0        # 407260 <_IO_stdin_used+0x150>
  4020ec:	0f 11 44 24 30       	movups %xmm0,0x30(%rsp)
  4020f1:	c7 44 24 40 31 d4 00 	movl   $0xd431,0x40(%rsp)
  4020f8:	00 
  4020f9:	0f 57 c0             	xorps  %xmm0,%xmm0
  4020fc:	0f 11 44 24 58       	movups %xmm0,0x58(%rsp)
  402101:	0f 11 44 24 48       	movups %xmm0,0x48(%rsp)
  402106:	48 c7 44 24 68 00 00 	movq   $0x0,0x68(%rsp)
  40210d:	00 00 
  40210f:	48 8d 54 24 28       	lea    0x28(%rsp),%rdx
  402114:	e8 c7 01 00 00       	callq  4022e0 <parse_args>
  402119:	48 8b 3d 60 86 20 00 	mov    0x208660(%rip),%rdi        # 60a780 <stdout@@GLIBC_2.2.5>
  402120:	8b 54 24 34          	mov    0x34(%rsp),%edx
  402124:	0f 57 c0             	xorps  %xmm0,%xmm0
  402127:	f2 48 0f 2a c2       	cvtsi2sd %rdx,%xmm0
  40212c:	f2 0f 59 05 3c 51 00 	mulsd  0x513c(%rip),%xmm0        # 407270 <_IO_stdin_used+0x160>
  402133:	00 
  402134:	f2 0f 10 0d 3c 51 00 	movsd  0x513c(%rip),%xmm1        # 407278 <_IO_stdin_used+0x168>
  40213b:	00 
  40213c:	f2 0f 59 c1          	mulsd  %xmm1,%xmm0
  402140:	f2 0f 59 c1          	mulsd  %xmm1,%xmm0
  402144:	be 60 76 40 00       	mov    $0x407660,%esi
  402149:	b0 01                	mov    $0x1,%al
  40214b:	e8 60 f0 ff ff       	callq  4011b0 <fprintf@plt>
  402150:	48 8b 3d 29 86 20 00 	mov    0x208629(%rip),%rdi        # 60a780 <stdout@@GLIBC_2.2.5>
  402157:	e8 b4 f0 ff ff       	callq  401210 <fflush@plt>
  40215c:	8b 7c 24 3c          	mov    0x3c(%rsp),%edi
  402160:	e8 eb 06 00 00       	callq  402850 <seed_generator>
  402165:	8b 44 24 5c          	mov    0x5c(%rsp),%eax
  402169:	89 05 7d 8e 20 00    	mov    %eax,0x208e7d(%rip)        # 60afec <numalocalize>
  40216f:	4c 8b 74 24 30       	mov    0x30(%rsp),%r14
  402174:	44 89 35 6d 8e 20 00 	mov    %r14d,0x208e6d(%rip)        # 60afe8 <nthreads>
  40217b:	8b 6c 24 58          	mov    0x58(%rsp),%ebp
  40217f:	4d 89 f7             	mov    %r14,%r15
  402182:	49 c1 ef 20          	shr    $0x20,%r15
  402186:	85 ed                	test   %ebp,%ebp
  402188:	74 14                	je     40219e <main+0xce>
  40218a:	48 8d 7c 24 18       	lea    0x18(%rsp),%rdi
  40218f:	ba ff ff ff 7f       	mov    $0x7fffffff,%edx
  402194:	44 89 fe             	mov    %r15d,%esi
  402197:	e8 44 15 00 00       	callq  4036e0 <create_relation_nonunique>
  40219c:	eb 26                	jmp    4021c4 <main+0xf4>
  40219e:	83 7c 24 50 00       	cmpl   $0x0,0x50(%rsp)
  4021a3:	74 12                	je     4021b7 <main+0xe7>
  4021a5:	48 8d 7c 24 18       	lea    0x18(%rsp),%rdi
  4021aa:	44 89 fe             	mov    %r15d,%esi
  4021ad:	44 89 fa             	mov    %r15d,%edx
  4021b0:	e8 2b 15 00 00       	callq  4036e0 <create_relation_nonunique>
  4021b5:	eb 0d                	jmp    4021c4 <main+0xf4>
  4021b7:	48 8d 7c 24 18       	lea    0x18(%rsp),%rdi
  4021bc:	44 89 fe             	mov    %r15d,%esi
  4021bf:	e8 3c 0b 00 00       	callq  402d00 <create_relation_pk>
  4021c4:	bf 54 78 40 00       	mov    $0x407854,%edi
  4021c9:	e8 a2 ee ff ff       	callq  401070 <puts@plt>
  4021ce:	48 8b 3d ab 85 20 00 	mov    0x2085ab(%rip),%rdi        # 60a780 <stdout@@GLIBC_2.2.5>
  4021d5:	8b 5c 24 38          	mov    0x38(%rsp),%ebx
  4021d9:	0f 57 c0             	xorps  %xmm0,%xmm0
  4021dc:	f2 48 0f 2a c3       	cvtsi2sd %rbx,%xmm0
  4021e1:	f2 0f 59 05 87 50 00 	mulsd  0x5087(%rip),%xmm0        # 407270 <_IO_stdin_used+0x160>
  4021e8:	00 
  4021e9:	f2 0f 10 0d 87 50 00 	movsd  0x5087(%rip),%xmm1        # 407278 <_IO_stdin_used+0x168>
  4021f0:	00 
  4021f1:	f2 0f 59 c1          	mulsd  %xmm1,%xmm0
  4021f5:	f2 0f 59 c1          	mulsd  %xmm1,%xmm0
  4021f9:	be a3 76 40 00       	mov    $0x4076a3,%esi
  4021fe:	b0 01                	mov    $0x1,%al
  402200:	89 da                	mov    %ebx,%edx
  402202:	e8 a9 ef ff ff       	callq  4011b0 <fprintf@plt>
  402207:	48 8b 3d 72 85 20 00 	mov    0x208572(%rip),%rdi        # 60a780 <stdout@@GLIBC_2.2.5>
  40220e:	e8 fd ef ff ff       	callq  401210 <fflush@plt>
  402213:	8b 7c 24 40          	mov    0x40(%rsp),%edi
  402217:	e8 34 06 00 00       	callq  402850 <seed_generator>
  40221c:	85 ed                	test   %ebp,%ebp
  40221e:	74 13                	je     402233 <main+0x163>
  402220:	48 8d 7c 24 08       	lea    0x8(%rsp),%rdi
  402225:	48 8d 74 24 18       	lea    0x18(%rsp),%rsi
  40222a:	89 da                	mov    %ebx,%edx
  40222c:	e8 7f 13 00 00       	callq  4035b0 <create_relation_fk_from_pk>
  402231:	eb 3e                	jmp    402271 <main+0x1a1>
  402233:	83 7c 24 50 00       	cmpl   $0x0,0x50(%rsp)
  402238:	74 11                	je     40224b <main+0x17b>
  40223a:	48 8d 7c 24 08       	lea    0x8(%rsp),%rdi
  40223f:	89 de                	mov    %ebx,%esi
  402241:	44 89 fa             	mov    %r15d,%edx
  402244:	e8 97 14 00 00       	callq  4036e0 <create_relation_nonunique>
  402249:	eb 26                	jmp    402271 <main+0x1a1>
  40224b:	f2 0f 10 44 24 48    	movsd  0x48(%rsp),%xmm0
  402251:	66 0f 57 c9          	xorpd  %xmm1,%xmm1
  402255:	48 8d 7c 24 08       	lea    0x8(%rsp),%rdi
  40225a:	89 de                	mov    %ebx,%esi
  40225c:	44 89 fa             	mov    %r15d,%edx
  40225f:	66 0f 2e c1          	ucomisd %xmm1,%xmm0
  402263:	76 07                	jbe    40226c <main+0x19c>
  402265:	e8 b6 15 00 00       	callq  403820 <create_relation_zipf>
  40226a:	eb 05                	jmp    402271 <main+0x1a1>
  40226c:	e8 3f 0f 00 00       	callq  4031b0 <create_relation_fk>
  402271:	bf 54 78 40 00       	mov    $0x407854,%edi
  402276:	e8 f5 ed ff ff       	callq  401070 <puts@plt>
  40227b:	48 8b 5c 24 28       	mov    0x28(%rsp),%rbx
  402280:	bf e6 76 40 00       	mov    $0x4076e6,%edi
  402285:	31 c0                	xor    %eax,%eax
  402287:	48 89 de             	mov    %rbx,%rsi
  40228a:	e8 61 ee ff ff       	callq  4010f0 <printf@plt>
  40228f:	4c 8d 7c 24 18       	lea    0x18(%rsp),%r15
  402294:	4c 8d 64 24 08       	lea    0x8(%rsp),%r12
  402299:	4c 89 ff             	mov    %r15,%rdi
  40229c:	4c 89 e6             	mov    %r12,%rsi
  40229f:	44 89 f2             	mov    %r14d,%edx
  4022a2:	ff 93 80 00 00 00    	callq  *0x80(%rbx)
  4022a8:	48 89 c1             	mov    %rax,%rcx
  4022ab:	bf 0d 77 40 00       	mov    $0x40770d,%edi
  4022b0:	31 c0                	xor    %eax,%eax
  4022b2:	48 89 ce             	mov    %rcx,%rsi
  4022b5:	e8 36 ee ff ff       	callq  4010f0 <printf@plt>
  4022ba:	4c 89 ff             	mov    %r15,%rdi
  4022bd:	e8 2e 16 00 00       	callq  4038f0 <delete_relation>
  4022c2:	4c 89 e7             	mov    %r12,%rdi
  4022c5:	e8 26 16 00 00       	callq  4038f0 <delete_relation>
  4022ca:	31 c0                	xor    %eax,%eax
  4022cc:	48 83 c4 70          	add    $0x70,%rsp
  4022d0:	5b                   	pop    %rbx
  4022d1:	41 5c                	pop    %r12
  4022d3:	41 5e                	pop    %r14
  4022d5:	41 5f                	pop    %r15
  4022d7:	5d                   	pop    %rbp
  4022d8:	c3                   	retq   
  4022d9:	0f 1f 80 00 00 00 00 	nopl   0x0(%rax)

00000000004022e0 <parse_args>:
  4022e0:	55                   	push   %rbp
  4022e1:	41 57                	push   %r15
  4022e3:	41 56                	push   %r14
  4022e5:	41 55                	push   %r13
  4022e7:	41 54                	push   %r12
  4022e9:	53                   	push   %rbx
  4022ea:	50                   	push   %rax
  4022eb:	49 89 d6             	mov    %rdx,%r14
  4022ee:	49 89 f4             	mov    %rsi,%r12
  4022f1:	41 89 fd             	mov    %edi,%r13d
  4022f4:	4c 8d 7c 24 04       	lea    0x4(%rsp),%r15
  4022f9:	eb 15                	jmp    402310 <parse_args+0x30>
  4022fb:	48 8b 3d 8e 84 20 00 	mov    0x20848e(%rip),%rdi        # 60a790 <optarg@@GLIBC_2.2.5>
  402302:	31 f6                	xor    %esi,%esi
  402304:	e8 77 ed ff ff       	callq  401080 <strtod@plt>
  402309:	f2 41 0f 11 46 20    	movsd  %xmm0,0x20(%r14)
  40230f:	90                   	nop
  402310:	c7 44 24 04 00 00 00 	movl   $0x0,0x4(%rsp)
  402317:	00 
  402318:	ba da 77 40 00       	mov    $0x4077da,%edx
  40231d:	b9 50 a5 60 00       	mov    $0x60a550,%ecx
  402322:	44 89 ef             	mov    %r13d,%edi
  402325:	4c 89 e6             	mov    %r12,%rsi
  402328:	4d 89 f8             	mov    %r15,%r8
  40232b:	e8 b0 ed ff ff       	callq  4010e0 <getopt_long@plt>
  402330:	ff c0                	inc    %eax
  402332:	83 f8 7b             	cmp    $0x7b,%eax
  402335:	77 d9                	ja     402310 <parse_args+0x30>
  402337:	ff 24 c5 80 72 40 00 	jmpq   *0x407280(,%rax,8)
  40233e:	48 63 44 24 04       	movslq 0x4(%rsp),%rax
  402343:	48 c1 e0 05          	shl    $0x5,%rax
  402347:	48 83 b8 60 a5 60 00 	cmpq   $0x0,0x60a560(%rax)
  40234e:	00 
  40234f:	75 bf                	jne    402310 <parse_args+0x30>
  402351:	48 8b b0 50 a5 60 00 	mov    0x60a550(%rax),%rsi
  402358:	bf ef 77 40 00       	mov    $0x4077ef,%edi
  40235d:	31 c0                	xor    %eax,%eax
  40235f:	e8 8c ed ff ff       	callq  4010f0 <printf@plt>
  402364:	48 8b 35 25 84 20 00 	mov    0x208425(%rip),%rsi        # 60a790 <optarg@@GLIBC_2.2.5>
  40236b:	48 85 f6             	test   %rsi,%rsi
  40236e:	74 0c                	je     40237c <parse_args+0x9c>
  402370:	bf f9 77 40 00       	mov    $0x4077f9,%edi
  402375:	31 c0                	xor    %eax,%eax
  402377:	e8 74 ed ff ff       	callq  4010f0 <printf@plt>
  40237c:	bf 0a 00 00 00       	mov    $0xa,%edi
  402381:	e8 ba ec ff ff       	callq  401040 <putchar@plt>
  402386:	eb 88                	jmp    402310 <parse_args+0x30>
  402388:	48 83 3d 80 7e 20 00 	cmpq   $0x0,0x207e80(%rip)        # 60a210 <algos+0x80>
  40238f:	00 
  402390:	48 8b 1d f9 83 20 00 	mov    0x2083f9(%rip),%rbx        # 60a790 <optarg@@GLIBC_2.2.5>
  402397:	0f 84 d2 01 00 00    	je     40256f <parse_args+0x28f>
  40239d:	bd 90 a1 60 00       	mov    $0x60a190,%ebp
  4023a2:	66 66 66 66 66 2e 0f 	data16 data16 data16 data16 nopw %cs:0x0(%rax,%rax,1)
  4023a9:	1f 84 00 00 00 00 00 
  4023b0:	48 89 df             	mov    %rbx,%rdi
  4023b3:	48 89 ee             	mov    %rbp,%rsi
  4023b6:	e8 e5 ed ff ff       	callq  4011a0 <strcmp@plt>
  4023bb:	85 c0                	test   %eax,%eax
  4023bd:	0f 84 22 01 00 00    	je     4024e5 <parse_args+0x205>
  4023c3:	48 83 bd 08 01 00 00 	cmpq   $0x0,0x108(%rbp)
  4023ca:	00 
  4023cb:	48 8d ad 88 00 00 00 	lea    0x88(%rbp),%rbp
  4023d2:	75 dc                	jne    4023b0 <parse_args+0xd0>
  4023d4:	e9 96 01 00 00       	jmpq   40256f <parse_args+0x28f>
  4023d9:	48 8b 3d b0 83 20 00 	mov    0x2083b0(%rip),%rdi        # 60a790 <optarg@@GLIBC_2.2.5>
  4023e0:	31 f6                	xor    %esi,%esi
  4023e2:	ba 0a 00 00 00       	mov    $0xa,%edx
  4023e7:	e8 d4 ed ff ff       	callq  4011c0 <strtol@plt>
  4023ec:	41 89 46 08          	mov    %eax,0x8(%r14)
  4023f0:	e9 1b ff ff ff       	jmpq   402310 <parse_args+0x30>
  4023f5:	48 8b 1d 94 83 20 00 	mov    0x208394(%rip),%rbx        # 60a790 <optarg@@GLIBC_2.2.5>
  4023fc:	48 89 df             	mov    %rbx,%rdi
  4023ff:	e8 cc ec ff ff       	callq  4010d0 <strlen@plt>
  402404:	48 8d 78 01          	lea    0x1(%rax),%rdi
  402408:	e8 f3 ed ff ff       	callq  401200 <malloc@plt>
  40240d:	48 89 c5             	mov    %rax,%rbp
  402410:	48 85 ed             	test   %rbp,%rbp
  402413:	74 17                	je     40242c <parse_args+0x14c>
  402415:	48 89 df             	mov    %rbx,%rdi
  402418:	e8 b3 ec ff ff       	callq  4010d0 <strlen@plt>
  40241d:	48 8d 50 01          	lea    0x1(%rax),%rdx
  402421:	48 89 ef             	mov    %rbp,%rdi
  402424:	48 89 de             	mov    %rbx,%rsi
  402427:	e8 a4 ed ff ff       	callq  4011d0 <memcpy@plt>
  40242c:	49 89 6e 40          	mov    %rbp,0x40(%r14)
  402430:	e9 db fe ff ff       	jmpq   402310 <parse_args+0x30>
  402435:	48 8b 1d 54 83 20 00 	mov    0x208354(%rip),%rbx        # 60a790 <optarg@@GLIBC_2.2.5>
  40243c:	48 89 df             	mov    %rbx,%rdi
  40243f:	e8 8c ec ff ff       	callq  4010d0 <strlen@plt>
  402444:	48 8d 78 01          	lea    0x1(%rax),%rdi
  402448:	e8 b3 ed ff ff       	callq  401200 <malloc@plt>
  40244d:	48 89 c5             	mov    %rax,%rbp
  402450:	48 85 ed             	test   %rbp,%rbp
  402453:	74 17                	je     40246c <parse_args+0x18c>
  402455:	48 89 df             	mov    %rbx,%rdi
  402458:	e8 73 ec ff ff       	callq  4010d0 <strlen@plt>
  40245d:	48 8d 50 01          	lea    0x1(%rax),%rdx
  402461:	48 89 ef             	mov    %rbp,%rdi
  402464:	48 89 de             	mov    %rbx,%rsi
  402467:	e8 64 ed ff ff       	callq  4011d0 <memcpy@plt>
  40246c:	49 89 6e 38          	mov    %rbp,0x38(%r14)
  402470:	e9 9b fe ff ff       	jmpq   402310 <parse_args+0x30>
  402475:	48 8b 3d 14 83 20 00 	mov    0x208314(%rip),%rdi        # 60a790 <optarg@@GLIBC_2.2.5>
  40247c:	31 f6                	xor    %esi,%esi
  40247e:	ba 0a 00 00 00       	mov    $0xa,%edx
  402483:	e8 38 ed ff ff       	callq  4011c0 <strtol@plt>
  402488:	41 89 46 0c          	mov    %eax,0xc(%r14)
  40248c:	e9 7f fe ff ff       	jmpq   402310 <parse_args+0x30>
  402491:	48 8b 3d f8 82 20 00 	mov    0x2082f8(%rip),%rdi        # 60a790 <optarg@@GLIBC_2.2.5>
  402498:	31 f6                	xor    %esi,%esi
  40249a:	ba 0a 00 00 00       	mov    $0xa,%edx
  40249f:	e8 1c ed ff ff       	callq  4011c0 <strtol@plt>
  4024a4:	41 89 46 10          	mov    %eax,0x10(%r14)
  4024a8:	e9 63 fe ff ff       	jmpq   402310 <parse_args+0x30>
  4024ad:	48 8b 3d dc 82 20 00 	mov    0x2082dc(%rip),%rdi        # 60a790 <optarg@@GLIBC_2.2.5>
  4024b4:	31 f6                	xor    %esi,%esi
  4024b6:	ba 0a 00 00 00       	mov    $0xa,%edx
  4024bb:	e8 00 ed ff ff       	callq  4011c0 <strtol@plt>
  4024c0:	41 89 46 14          	mov    %eax,0x14(%r14)
  4024c4:	e9 47 fe ff ff       	jmpq   402310 <parse_args+0x30>
  4024c9:	48 8b 3d c0 82 20 00 	mov    0x2082c0(%rip),%rdi        # 60a790 <optarg@@GLIBC_2.2.5>
  4024d0:	31 f6                	xor    %esi,%esi
  4024d2:	ba 0a 00 00 00       	mov    $0xa,%edx
  4024d7:	e8 e4 ec ff ff       	callq  4011c0 <strtol@plt>
  4024dc:	41 89 46 18          	mov    %eax,0x18(%r14)
  4024e0:	e9 2b fe ff ff       	jmpq   402310 <parse_args+0x30>
  4024e5:	49 89 2e             	mov    %rbp,(%r14)
  4024e8:	e9 23 fe ff ff       	jmpq   402310 <parse_args+0x30>
  4024ed:	8b 05 bd 82 20 00    	mov    0x2082bd(%rip),%eax        # 60a7b0 <parse_args.nonunique_flag>
  4024f3:	41 89 46 28          	mov    %eax,0x28(%r14)
  4024f7:	8b 05 af 82 20 00    	mov    0x2082af(%rip),%eax        # 60a7ac <parse_args.verbose_flag>
  4024fd:	41 89 46 2c          	mov    %eax,0x2c(%r14)
  402501:	8b 05 ad 82 20 00    	mov    0x2082ad(%rip),%eax        # 60a7b4 <parse_args.fullrange_flag>
  402507:	41 89 46 30          	mov    %eax,0x30(%r14)
  40250b:	8b 05 a7 82 20 00    	mov    0x2082a7(%rip),%eax        # 60a7b8 <parse_args.basic_numa>
  402511:	41 89 46 34          	mov    %eax,0x34(%r14)
  402515:	44 39 2d 6c 82 20 00 	cmp    %r13d,0x20826c(%rip)        # 60a788 <optind@@GLIBC_2.2.5>
  40251c:	7d 42                	jge    402560 <parse_args+0x280>
  40251e:	bf 39 78 40 00       	mov    $0x407839,%edi
  402523:	31 c0                	xor    %eax,%eax
  402525:	e8 c6 eb ff ff       	callq  4010f0 <printf@plt>
  40252a:	eb 1f                	jmp    40254b <parse_args+0x26b>
  40252c:	0f 1f 40 00          	nopl   0x0(%rax)
  402530:	8d 48 01             	lea    0x1(%rax),%ecx
  402533:	89 0d 4f 82 20 00    	mov    %ecx,0x20824f(%rip)        # 60a788 <optind@@GLIBC_2.2.5>
  402539:	48 98                	cltq   
  40253b:	49 8b 34 c4          	mov    (%r12,%rax,8),%rsi
  40253f:	bf 50 78 40 00       	mov    $0x407850,%edi
  402544:	31 c0                	xor    %eax,%eax
  402546:	e8 a5 eb ff ff       	callq  4010f0 <printf@plt>
  40254b:	8b 05 37 82 20 00    	mov    0x208237(%rip),%eax        # 60a788 <optind@@GLIBC_2.2.5>
  402551:	44 39 e8             	cmp    %r13d,%eax
  402554:	7c da                	jl     402530 <parse_args+0x250>
  402556:	bf 0a 00 00 00       	mov    $0xa,%edi
  40255b:	e8 e0 ea ff ff       	callq  401040 <putchar@plt>
  402560:	48 83 c4 08          	add    $0x8,%rsp
  402564:	5b                   	pop    %rbx
  402565:	41 5c                	pop    %r12
  402567:	41 5d                	pop    %r13
  402569:	41 5e                	pop    %r14
  40256b:	41 5f                	pop    %r15
  40256d:	5d                   	pop    %rbp
  40256e:	c3                   	retq   
  40256f:	bf 06 78 40 00       	mov    $0x407806,%edi
  402574:	31 c0                	xor    %eax,%eax
  402576:	48 89 de             	mov    %rbx,%rsi
  402579:	e8 72 eb ff ff       	callq  4010f0 <printf@plt>
  40257e:	49 8b 3c 24          	mov    (%r12),%rdi
  402582:	e8 19 00 00 00       	callq  4025a0 <print_help>
  402587:	31 ff                	xor    %edi,%edi
  402589:	e8 02 ed ff ff       	callq  401290 <exit@plt>
  40258e:	e8 2d 00 00 00       	callq  4025c0 <print_version>
  402593:	31 ff                	xor    %edi,%edi
  402595:	e8 f6 ec ff ff       	callq  401290 <exit@plt>
  40259a:	66 0f 1f 44 00 00    	nopw   0x0(%rax,%rax,1)

00000000004025a0 <print_help>:
  4025a0:	50                   	push   %rax
  4025a1:	48 89 f9             	mov    %rdi,%rcx
  4025a4:	bf 2c 77 40 00       	mov    $0x40772c,%edi
  4025a9:	31 c0                	xor    %eax,%eax
  4025ab:	48 89 ce             	mov    %rcx,%rsi
  4025ae:	e8 3d eb ff ff       	callq  4010f0 <printf@plt>
  4025b3:	bf 60 78 40 00       	mov    $0x407860,%edi
  4025b8:	58                   	pop    %rax
  4025b9:	e9 b2 ea ff ff       	jmpq   401070 <puts@plt>
  4025be:	66 90                	xchg   %ax,%ax

00000000004025c0 <print_version>:
  4025c0:	50                   	push   %rax
  4025c1:	bf 41 77 40 00       	mov    $0x407741,%edi
  4025c6:	be 46 77 40 00       	mov    $0x407746,%esi
  4025cb:	31 c0                	xor    %eax,%eax
  4025cd:	e8 1e eb ff ff       	callq  4010f0 <printf@plt>
  4025d2:	bf 30 7f 40 00       	mov    $0x407f30,%edi
  4025d7:	e8 94 ea ff ff       	callq  401070 <puts@plt>
  4025dc:	bf 60 7f 40 00       	mov    $0x407f60,%edi
  4025e1:	58                   	pop    %rax
  4025e2:	e9 89 ea ff ff       	jmpq   401070 <puts@plt>
  4025e7:	66 0f 1f 84 00 00 00 	nopw   0x0(%rax,%rax,1)
  4025ee:	00 00 

00000000004025f0 <alloc_aligned>:
  4025f0:	53                   	push   %rbx
  4025f1:	48 83 ec 10          	sub    $0x10,%rsp
  4025f5:	48 89 fb             	mov    %rdi,%rbx
  4025f8:	48 8d 7c 24 08       	lea    0x8(%rsp),%rdi
  4025fd:	be 40 00 00 00       	mov    $0x40,%esi
  402602:	48 89 da             	mov    %rbx,%rdx
  402605:	e8 a6 ec ff ff       	callq  4012b0 <posix_memalign@plt>
  40260a:	85 c0                	test   %eax,%eax
  40260c:	75 2a                	jne    402638 <alloc_aligned+0x48>
  40260e:	83 3d d7 89 20 00 00 	cmpl   $0x0,0x2089d7(%rip)        # 60afec <numalocalize>
  402615:	74 16                	je     40262d <alloc_aligned+0x3d>
  402617:	48 8b 7c 24 08       	mov    0x8(%rsp),%rdi
  40261c:	48 c1 eb 03          	shr    $0x3,%rbx
  402620:	8b 15 c2 89 20 00    	mov    0x2089c2(%rip),%edx        # 60afe8 <nthreads>
  402626:	89 de                	mov    %ebx,%esi
  402628:	e8 23 00 00 00       	callq  402650 <numa_localize>
  40262d:	48 8b 44 24 08       	mov    0x8(%rsp),%rax
  402632:	48 83 c4 10          	add    $0x10,%rsp
  402636:	5b                   	pop    %rbx
  402637:	c3                   	retq   
  402638:	bf c0 7f 40 00       	mov    $0x407fc0,%edi
  40263d:	e8 0e ec ff ff       	callq  401250 <perror@plt>
  402642:	31 c0                	xor    %eax,%eax
  402644:	eb ec                	jmp    402632 <alloc_aligned+0x42>
  402646:	66 2e 0f 1f 84 00 00 	nopw   %cs:0x0(%rax,%rax,1)
  40264d:	00 00 00 

0000000000402650 <numa_localize>:
  402650:	55                   	push   %rbp
  402651:	48 89 e5             	mov    %rsp,%rbp
  402654:	41 57                	push   %r15
  402656:	41 56                	push   %r14
  402658:	41 55                	push   %r13
  40265a:	41 54                	push   %r12
  40265c:	53                   	push   %rbx
  40265d:	48 81 ec f8 00 00 00 	sub    $0xf8,%rsp
  402664:	41 89 d7             	mov    %edx,%r15d
  402667:	41 89 f4             	mov    %esi,%r12d
  40266a:	48 89 7d a8          	mov    %rdi,-0x58(%rbp)
  40266e:	44 89 fa             	mov    %r15d,%edx
  402671:	48 8d 04 52          	lea    (%rdx,%rdx,2),%rax
  402675:	48 8d 04 c5 0f 00 00 	lea    0xf(,%rax,8),%rax
  40267c:	00 
  40267d:	48 b9 f0 ff ff ff 3f 	movabs $0x3ffffffff0,%rcx
  402684:	00 00 00 
  402687:	48 21 c1             	and    %rax,%rcx
  40268a:	48 89 e3             	mov    %rsp,%rbx
  40268d:	48 29 cb             	sub    %rcx,%rbx
  402690:	48 89 dc             	mov    %rbx,%rsp
  402693:	48 89 55 b0          	mov    %rdx,-0x50(%rbp)
  402697:	48 8d 04 d5 0f 00 00 	lea    0xf(,%rdx,8),%rax
  40269e:	00 
  40269f:	48 b9 f0 ff ff ff 0f 	movabs $0xffffffff0,%rcx
  4026a6:	00 00 00 
  4026a9:	48 21 c1             	and    %rax,%rcx
  4026ac:	49 89 e5             	mov    %rsp,%r13
  4026af:	49 29 cd             	sub    %rcx,%r13
  4026b2:	4c 89 ec             	mov    %r13,%rsp
  4026b5:	e8 c6 eb ff ff       	callq  401280 <getpagesize@plt>
  4026ba:	41 89 c6             	mov    %eax,%r14d
  4026bd:	44 89 65 d4          	mov    %r12d,-0x2c(%rbp)
  4026c1:	49 63 c4             	movslq %r12d,%rax
  4026c4:	48 c1 e0 03          	shl    $0x3,%rax
  4026c8:	44 89 f1             	mov    %r14d,%ecx
  4026cb:	31 d2                	xor    %edx,%edx
  4026cd:	48 f7 f1             	div    %rcx
  4026d0:	ff c0                	inc    %eax
  4026d2:	45 31 e4             	xor    %r12d,%r12d
  4026d5:	31 d2                	xor    %edx,%edx
  4026d7:	41 f7 f7             	div    %r15d
  4026da:	89 45 c8             	mov    %eax,-0x38(%rbp)
  4026dd:	48 8d bd e8 fe ff ff 	lea    -0x118(%rbp),%rdi
  4026e4:	e8 97 ea ff ff       	callq  401180 <pthread_attr_init@plt>
  4026e9:	45 85 ff             	test   %r15d,%r15d
  4026ec:	0f 84 21 01 00 00    	je     402813 <numa_localize+0x1c3>
  4026f2:	41 c1 ee 03          	shr    $0x3,%r14d
  4026f6:	8b 55 c8             	mov    -0x38(%rbp),%edx
  4026f9:	41 0f af d6          	imul   %r14d,%edx
  4026fd:	4c 89 7d b8          	mov    %r15,-0x48(%rbp)
  402701:	41 8d 47 ff          	lea    -0x1(%r15),%eax
  402705:	89 d1                	mov    %edx,%ecx
  402707:	0f af c8             	imul   %eax,%ecx
  40270a:	29 4d d4             	sub    %ecx,-0x2c(%rbp)
  40270d:	89 c0                	mov    %eax,%eax
  40270f:	48 89 45 c8          	mov    %rax,-0x38(%rbp)
  402713:	4c 89 6d c0          	mov    %r13,-0x40(%rbp)
  402717:	4d 89 ee             	mov    %r13,%r14
  40271a:	45 31 ff             	xor    %r15d,%r15d
  40271d:	41 89 d5             	mov    %edx,%r13d
  402720:	44 89 ff             	mov    %r15d,%edi
  402723:	e8 28 17 00 00       	callq  403e50 <get_cpu_id>
  402728:	0f 57 c0             	xorps  %xmm0,%xmm0
  40272b:	0f 29 45 90          	movaps %xmm0,-0x70(%rbp)
  40272f:	0f 29 45 80          	movaps %xmm0,-0x80(%rbp)
  402733:	0f 29 85 70 ff ff ff 	movaps %xmm0,-0x90(%rbp)
  40273a:	0f 29 85 60 ff ff ff 	movaps %xmm0,-0xa0(%rbp)
  402741:	0f 29 85 50 ff ff ff 	movaps %xmm0,-0xb0(%rbp)
  402748:	0f 29 85 40 ff ff ff 	movaps %xmm0,-0xc0(%rbp)
  40274f:	0f 29 85 30 ff ff ff 	movaps %xmm0,-0xd0(%rbp)
  402756:	0f 29 85 20 ff ff ff 	movaps %xmm0,-0xe0(%rbp)
  40275d:	3d ff 03 00 00       	cmp    $0x3ff,%eax
  402762:	77 17                	ja     40277b <numa_localize+0x12b>
  402764:	48 63 c8             	movslq %eax,%rcx
  402767:	b8 01 00 00 00       	mov    $0x1,%eax
  40276c:	48 d3 e0             	shl    %cl,%rax
  40276f:	48 c1 e9 06          	shr    $0x6,%rcx
  402773:	48 09 84 cd 20 ff ff 	or     %rax,-0xe0(%rbp,%rcx,8)
  40277a:	ff 
  40277b:	be 80 00 00 00       	mov    $0x80,%esi
  402780:	48 8d 85 e8 fe ff ff 	lea    -0x118(%rbp),%rax
  402787:	48 89 c7             	mov    %rax,%rdi
  40278a:	48 8d 95 20 ff ff ff 	lea    -0xe0(%rbp),%rdx
  402791:	e8 fa e8 ff ff       	callq  401090 <pthread_attr_setaffinity_np@plt>
  402796:	41 8d 44 24 01       	lea    0x1(%r12),%eax
  40279b:	89 43 10             	mov    %eax,0x10(%rbx)
  40279e:	44 89 e0             	mov    %r12d,%eax
  4027a1:	48 8b 4d a8          	mov    -0x58(%rbp),%rcx
  4027a5:	48 8d 04 c1          	lea    (%rcx,%rax,8),%rax
  4027a9:	48 89 03             	mov    %rax,(%rbx)
  4027ac:	4c 39 7d c8          	cmp    %r15,-0x38(%rbp)
  4027b0:	44 89 e8             	mov    %r13d,%eax
  4027b3:	0f 44 45 d4          	cmove  -0x2c(%rbp),%eax
  4027b7:	89 43 08             	mov    %eax,0x8(%rbx)
  4027ba:	ba 80 2b 40 00       	mov    $0x402b80,%edx
  4027bf:	4c 89 f7             	mov    %r14,%rdi
  4027c2:	48 8d b5 e8 fe ff ff 	lea    -0x118(%rbp),%rsi
  4027c9:	48 89 d9             	mov    %rbx,%rcx
  4027cc:	e8 7f e8 ff ff       	callq  401050 <pthread_create@plt>
  4027d1:	89 c1                	mov    %eax,%ecx
  4027d3:	85 c9                	test   %ecx,%ecx
  4027d5:	75 4d                	jne    402824 <numa_localize+0x1d4>
  4027d7:	45 01 ec             	add    %r13d,%r12d
  4027da:	49 ff c7             	inc    %r15
  4027dd:	48 83 c3 18          	add    $0x18,%rbx
  4027e1:	49 83 c6 08          	add    $0x8,%r14
  4027e5:	4c 3b 7d b0          	cmp    -0x50(%rbp),%r15
  4027e9:	0f 82 31 ff ff ff    	jb     402720 <numa_localize+0xd0>
  4027ef:	4c 8b 75 b8          	mov    -0x48(%rbp),%r14
  4027f3:	45 85 f6             	test   %r14d,%r14d
  4027f6:	48 8b 5d c0          	mov    -0x40(%rbp),%rbx
  4027fa:	74 17                	je     402813 <numa_localize+0x1c3>
  4027fc:	0f 1f 40 00          	nopl   0x0(%rax)
  402800:	48 8b 3b             	mov    (%rbx),%rdi
  402803:	31 f6                	xor    %esi,%esi
  402805:	e8 66 ea ff ff       	callq  401270 <pthread_join@plt>
  40280a:	48 83 c3 08          	add    $0x8,%rbx
  40280e:	41 ff ce             	dec    %r14d
  402811:	75 ed                	jne    402800 <numa_localize+0x1b0>
  402813:	31 c0                	xor    %eax,%eax
  402815:	48 8d 65 d8          	lea    -0x28(%rbp),%rsp
  402819:	5b                   	pop    %rbx
  40281a:	41 5c                	pop    %r12
  40281c:	41 5d                	pop    %r13
  40281e:	41 5e                	pop    %r14
  402820:	41 5f                	pop    %r15
  402822:	5d                   	pop    %rbp
  402823:	c3                   	retq   
  402824:	48 8b 3d 75 7f 20 00 	mov    0x207f75(%rip),%rdi        # 60a7a0 <stderr@@GLIBC_2.2.5>
  40282b:	be f8 7f 40 00       	mov    $0x407ff8,%esi
  402830:	31 c0                	xor    %eax,%eax
  402832:	89 ca                	mov    %ecx,%edx
  402834:	e8 77 e9 ff ff       	callq  4011b0 <fprintf@plt>
  402839:	bf ff ff ff ff       	mov    $0xffffffff,%edi
  40283e:	e8 4d ea ff ff       	callq  401290 <exit@plt>
  402843:	66 66 66 66 2e 0f 1f 	data16 data16 data16 nopw %cs:0x0(%rax,%rax,1)
  40284a:	84 00 00 00 00 00 

0000000000402850 <seed_generator>:
  402850:	50                   	push   %rax
  402851:	e8 1a e9 ff ff       	callq  401170 <srand@plt>
  402856:	c6 05 5f 7f 20 00 01 	movb   $0x1,0x207f5f(%rip)        # 60a7bc <seeded>
  40285d:	58                   	pop    %rax
  40285e:	c3                   	retq   
  40285f:	90                   	nop

0000000000402860 <knuth_shuffle>:
  402860:	55                   	push   %rbp
  402861:	41 56                	push   %r14
  402863:	53                   	push   %rbx
  402864:	49 89 fe             	mov    %rdi,%r14
  402867:	41 8b 6e 08          	mov    0x8(%r14),%ebp
  40286b:	ff cd                	dec    %ebp
  40286d:	85 ed                	test   %ebp,%ebp
  40286f:	7e 4d                	jle    4028be <knuth_shuffle+0x5e>
  402871:	48 63 dd             	movslq %ebp,%rbx
  402874:	48 c1 e3 03          	shl    $0x3,%rbx
  402878:	0f 1f 84 00 00 00 00 	nopl   0x0(%rax,%rax,1)
  40287f:	00 
  402880:	e8 6b ea ff ff       	callq  4012f0 <rand@plt>
  402885:	0f 57 c0             	xorps  %xmm0,%xmm0
  402888:	f2 0f 2a c0          	cvtsi2sd %eax,%xmm0
  40288c:	f2 0f 59 05 04 57 00 	mulsd  0x5704(%rip),%xmm0        # 407f98 <_IO_stdin_used+0xe88>
  402893:	00 
  402894:	0f 57 c9             	xorps  %xmm1,%xmm1
  402897:	f2 0f 2a cd          	cvtsi2sd %ebp,%xmm1
  40289b:	f2 0f 59 c8          	mulsd  %xmm0,%xmm1
  40289f:	f2 0f 2c c1          	cvttsd2si %xmm1,%eax
  4028a3:	49 8b 0e             	mov    (%r14),%rcx
  4028a6:	8b 14 19             	mov    (%rcx,%rbx,1),%edx
  4028a9:	48 98                	cltq   
  4028ab:	8b 34 c1             	mov    (%rcx,%rax,8),%esi
  4028ae:	89 34 19             	mov    %esi,(%rcx,%rbx,1)
  4028b1:	89 14 c1             	mov    %edx,(%rcx,%rax,8)
  4028b4:	ff cd                	dec    %ebp
  4028b6:	48 83 c3 f8          	add    $0xfffffffffffffff8,%rbx
  4028ba:	85 ed                	test   %ebp,%ebp
  4028bc:	7f c2                	jg     402880 <knuth_shuffle+0x20>
  4028be:	5b                   	pop    %rbx
  4028bf:	41 5e                	pop    %r14
  4028c1:	5d                   	pop    %rbp
  4028c2:	c3                   	retq   
  4028c3:	66 66 66 66 2e 0f 1f 	data16 data16 data16 nopw %cs:0x0(%rax,%rax,1)
  4028ca:	84 00 00 00 00 00 

00000000004028d0 <knuth_shuffle48>:
  4028d0:	55                   	push   %rbp
  4028d1:	41 57                	push   %r15
  4028d3:	41 56                	push   %r14
  4028d5:	53                   	push   %rbx
  4028d6:	50                   	push   %rax
  4028d7:	49 89 f6             	mov    %rsi,%r14
  4028da:	49 89 ff             	mov    %rdi,%r15
  4028dd:	41 8b 6f 08          	mov    0x8(%r15),%ebp
  4028e1:	ff cd                	dec    %ebp
  4028e3:	85 ed                	test   %ebp,%ebp
  4028e5:	7e 4b                	jle    402932 <knuth_shuffle48+0x62>
  4028e7:	48 63 dd             	movslq %ebp,%rbx
  4028ea:	48 c1 e3 03          	shl    $0x3,%rbx
  4028ee:	66 90                	xchg   %ax,%ax
  4028f0:	4c 89 f7             	mov    %r14,%rdi
  4028f3:	e8 a8 e7 ff ff       	callq  4010a0 <nrand48@plt>
  4028f8:	0f 57 c0             	xorps  %xmm0,%xmm0
  4028fb:	f2 48 0f 2a c0       	cvtsi2sd %rax,%xmm0
  402900:	f2 0f 59 05 90 56 00 	mulsd  0x5690(%rip),%xmm0        # 407f98 <_IO_stdin_used+0xe88>
  402907:	00 
  402908:	0f 57 c9             	xorps  %xmm1,%xmm1
  40290b:	f2 0f 2a cd          	cvtsi2sd %ebp,%xmm1
  40290f:	f2 0f 59 c8          	mulsd  %xmm0,%xmm1
  402913:	f2 0f 2c c1          	cvttsd2si %xmm1,%eax
  402917:	49 8b 0f             	mov    (%r15),%rcx
  40291a:	8b 14 19             	mov    (%rcx,%rbx,1),%edx
  40291d:	48 98                	cltq   
  40291f:	8b 34 c1             	mov    (%rcx,%rax,8),%esi
  402922:	89 34 19             	mov    %esi,(%rcx,%rbx,1)
  402925:	89 14 c1             	mov    %edx,(%rcx,%rax,8)
  402928:	ff cd                	dec    %ebp
  40292a:	48 83 c3 f8          	add    $0xfffffffffffffff8,%rbx
  40292e:	85 ed                	test   %ebp,%ebp
  402930:	7f be                	jg     4028f0 <knuth_shuffle48+0x20>
  402932:	48 83 c4 08          	add    $0x8,%rsp
  402936:	5b                   	pop    %rbx
  402937:	41 5e                	pop    %r14
  402939:	41 5f                	pop    %r15
  40293b:	5d                   	pop    %rbp
  40293c:	c3                   	retq   
  40293d:	0f 1f 00             	nopl   (%rax)

0000000000402940 <random_unique_gen>:
  402940:	41 57                	push   %r15
  402942:	41 56                	push   %r14
  402944:	53                   	push   %rbx
  402945:	49 89 fe             	mov    %rdi,%r14
  402948:	45 8b 7e 08          	mov    0x8(%r14),%r15d
  40294c:	4d 85 ff             	test   %r15,%r15
  40294f:	0f 84 dc 00 00 00    	je     402a31 <random_unique_gen+0xf1>
  402955:	49 8b 0e             	mov    (%r14),%rcx
  402958:	49 8d 77 ff          	lea    -0x1(%r15),%rsi
  40295c:	44 89 f8             	mov    %r15d,%eax
  40295f:	83 e0 07             	and    $0x7,%eax
  402962:	31 d2                	xor    %edx,%edx
  402964:	48 83 fe 07          	cmp    $0x7,%rsi
  402968:	72 56                	jb     4029c0 <random_unique_gen+0x80>
  40296a:	4c 89 fe             	mov    %r15,%rsi
  40296d:	48 29 c6             	sub    %rax,%rsi
  402970:	31 ff                	xor    %edi,%edi
  402972:	66 66 66 66 66 2e 0f 	data16 data16 data16 data16 nopw %cs:0x0(%rax,%rax,1)
  402979:	1f 84 00 00 00 00 00 
  402980:	8d 57 01             	lea    0x1(%rdi),%edx
  402983:	89 14 f9             	mov    %edx,(%rcx,%rdi,8)
  402986:	8d 57 02             	lea    0x2(%rdi),%edx
  402989:	89 54 f9 08          	mov    %edx,0x8(%rcx,%rdi,8)
  40298d:	8d 57 03             	lea    0x3(%rdi),%edx
  402990:	89 54 f9 10          	mov    %edx,0x10(%rcx,%rdi,8)
  402994:	8d 57 04             	lea    0x4(%rdi),%edx
  402997:	89 54 f9 18          	mov    %edx,0x18(%rcx,%rdi,8)
  40299b:	8d 57 05             	lea    0x5(%rdi),%edx
  40299e:	89 54 f9 20          	mov    %edx,0x20(%rcx,%rdi,8)
  4029a2:	8d 57 06             	lea    0x6(%rdi),%edx
  4029a5:	89 54 f9 28          	mov    %edx,0x28(%rcx,%rdi,8)
  4029a9:	8d 57 07             	lea    0x7(%rdi),%edx
  4029ac:	89 54 f9 30          	mov    %edx,0x30(%rcx,%rdi,8)
  4029b0:	48 8d 57 08          	lea    0x8(%rdi),%rdx
  4029b4:	89 54 f9 38          	mov    %edx,0x38(%rcx,%rdi,8)
  4029b8:	48 39 d6             	cmp    %rdx,%rsi
  4029bb:	48 89 d7             	mov    %rdx,%rdi
  4029be:	75 c0                	jne    402980 <random_unique_gen+0x40>
  4029c0:	48 85 c0             	test   %rax,%rax
  4029c3:	74 18                	je     4029dd <random_unique_gen+0x9d>
  4029c5:	48 8d 0c d1          	lea    (%rcx,%rdx,8),%rcx
  4029c9:	ff c2                	inc    %edx
  4029cb:	48 f7 d8             	neg    %rax
  4029ce:	66 90                	xchg   %ax,%ax
  4029d0:	89 11                	mov    %edx,(%rcx)
  4029d2:	48 83 c1 08          	add    $0x8,%rcx
  4029d6:	ff c2                	inc    %edx
  4029d8:	48 ff c0             	inc    %rax
  4029db:	75 f3                	jne    4029d0 <random_unique_gen+0x90>
  4029dd:	41 ff cf             	dec    %r15d
  4029e0:	45 85 ff             	test   %r15d,%r15d
  4029e3:	7e 4c                	jle    402a31 <random_unique_gen+0xf1>
  4029e5:	49 63 df             	movslq %r15d,%rbx
  4029e8:	48 c1 e3 03          	shl    $0x3,%rbx
  4029ec:	0f 1f 40 00          	nopl   0x0(%rax)
  4029f0:	e8 fb e8 ff ff       	callq  4012f0 <rand@plt>
  4029f5:	0f 57 c0             	xorps  %xmm0,%xmm0
  4029f8:	f2 0f 2a c0          	cvtsi2sd %eax,%xmm0
  4029fc:	f2 0f 59 05 94 55 00 	mulsd  0x5594(%rip),%xmm0        # 407f98 <_IO_stdin_used+0xe88>
  402a03:	00 
  402a04:	0f 57 c9             	xorps  %xmm1,%xmm1
  402a07:	f2 41 0f 2a cf       	cvtsi2sd %r15d,%xmm1
  402a0c:	f2 0f 59 c8          	mulsd  %xmm0,%xmm1
  402a10:	f2 0f 2c c1          	cvttsd2si %xmm1,%eax
  402a14:	49 8b 0e             	mov    (%r14),%rcx
  402a17:	8b 14 19             	mov    (%rcx,%rbx,1),%edx
  402a1a:	48 98                	cltq   
  402a1c:	8b 34 c1             	mov    (%rcx,%rax,8),%esi
  402a1f:	89 34 19             	mov    %esi,(%rcx,%rbx,1)
  402a22:	89 14 c1             	mov    %edx,(%rcx,%rax,8)
  402a25:	41 ff cf             	dec    %r15d
  402a28:	48 83 c3 f8          	add    $0xfffffffffffffff8,%rbx
  402a2c:	45 85 ff             	test   %r15d,%r15d
  402a2f:	7f bf                	jg     4029f0 <random_unique_gen+0xb0>
  402a31:	5b                   	pop    %rbx
  402a32:	41 5e                	pop    %r14
  402a34:	41 5f                	pop    %r15
  402a36:	c3                   	retq   
  402a37:	66 0f 1f 84 00 00 00 	nopw   0x0(%rax,%rax,1)
  402a3e:	00 00 

0000000000402a40 <random_unique_gen_thread>:
  402a40:	41 57                	push   %r15
  402a42:	41 56                	push   %r14
  402a44:	41 54                	push   %r12
  402a46:	53                   	push   %rbx
  402a47:	50                   	push   %rax
  402a48:	49 89 fe             	mov    %rdi,%r14
  402a4b:	41 8b 5e 10          	mov    0x10(%r14),%ebx
  402a4f:	66 c7 44 24 04 00 00 	movw   $0x0,0x4(%rsp)
  402a56:	c7 04 24 00 00 00 00 	movl   $0x0,(%rsp)
  402a5d:	31 ff                	xor    %edi,%edi
  402a5f:	e8 7c e7 ff ff       	callq  4011e0 <time@plt>
  402a64:	49 89 c7             	mov    %rax,%r15
  402a67:	e8 c4 e7 ff ff       	callq  401230 <pthread_self@plt>
  402a6c:	44 03 38             	add    (%rax),%r15d
  402a6f:	44 89 3c 24          	mov    %r15d,(%rsp)
  402a73:	45 8b 66 08          	mov    0x8(%r14),%r12d
  402a77:	4d 85 e4             	test   %r12,%r12
  402a7a:	0f 84 e5 00 00 00    	je     402b65 <random_unique_gen_thread+0x125>
  402a80:	49 8b 0e             	mov    (%r14),%rcx
  402a83:	49 8d 74 24 ff       	lea    -0x1(%r12),%rsi
  402a88:	44 89 e0             	mov    %r12d,%eax
  402a8b:	83 e0 07             	and    $0x7,%eax
  402a8e:	31 d2                	xor    %edx,%edx
  402a90:	48 83 fe 07          	cmp    $0x7,%rsi
  402a94:	72 54                	jb     402aea <random_unique_gen_thread+0xaa>
  402a96:	4c 89 e6             	mov    %r12,%rsi
  402a99:	48 29 c6             	sub    %rax,%rsi
  402a9c:	31 d2                	xor    %edx,%edx
  402a9e:	66 90                	xchg   %ax,%ax
  402aa0:	8d 3c 13             	lea    (%rbx,%rdx,1),%edi
  402aa3:	89 3c d1             	mov    %edi,(%rcx,%rdx,8)
  402aa6:	8d 7c 13 01          	lea    0x1(%rbx,%rdx,1),%edi
  402aaa:	89 7c d1 08          	mov    %edi,0x8(%rcx,%rdx,8)
  402aae:	8d 7c 13 02          	lea    0x2(%rbx,%rdx,1),%edi
  402ab2:	89 7c d1 10          	mov    %edi,0x10(%rcx,%rdx,8)
  402ab6:	8d 7c 13 03          	lea    0x3(%rbx,%rdx,1),%edi
  402aba:	89 7c d1 18          	mov    %edi,0x18(%rcx,%rdx,8)
  402abe:	8d 7c 13 04          	lea    0x4(%rbx,%rdx,1),%edi
  402ac2:	89 7c d1 20          	mov    %edi,0x20(%rcx,%rdx,8)
  402ac6:	8d 7c 13 05          	lea    0x5(%rbx,%rdx,1),%edi
  402aca:	89 7c d1 28          	mov    %edi,0x28(%rcx,%rdx,8)
  402ace:	8d 7c 13 06          	lea    0x6(%rbx,%rdx,1),%edi
  402ad2:	89 7c d1 30          	mov    %edi,0x30(%rcx,%rdx,8)
  402ad6:	8d 7c 13 07          	lea    0x7(%rbx,%rdx,1),%edi
  402ada:	89 7c d1 38          	mov    %edi,0x38(%rcx,%rdx,8)
  402ade:	48 83 c2 08          	add    $0x8,%rdx
  402ae2:	48 39 d6             	cmp    %rdx,%rsi
  402ae5:	75 b9                	jne    402aa0 <random_unique_gen_thread+0x60>
  402ae7:	8d 1c 13             	lea    (%rbx,%rdx,1),%ebx
  402aea:	48 85 c0             	test   %rax,%rax
  402aed:	74 1e                	je     402b0d <random_unique_gen_thread+0xcd>
  402aef:	48 8d 0c d1          	lea    (%rcx,%rdx,8),%rcx
  402af3:	48 f7 d8             	neg    %rax
  402af6:	66 2e 0f 1f 84 00 00 	nopw   %cs:0x0(%rax,%rax,1)
  402afd:	00 00 00 
  402b00:	89 19                	mov    %ebx,(%rcx)
  402b02:	ff c3                	inc    %ebx
  402b04:	48 83 c1 08          	add    $0x8,%rcx
  402b08:	48 ff c0             	inc    %rax
  402b0b:	75 f3                	jne    402b00 <random_unique_gen_thread+0xc0>
  402b0d:	41 ff cc             	dec    %r12d
  402b10:	45 85 e4             	test   %r12d,%r12d
  402b13:	7e 50                	jle    402b65 <random_unique_gen_thread+0x125>
  402b15:	49 63 dc             	movslq %r12d,%rbx
  402b18:	48 c1 e3 03          	shl    $0x3,%rbx
  402b1c:	4c 8d 3c 24          	lea    (%rsp),%r15
  402b20:	4c 89 ff             	mov    %r15,%rdi
  402b23:	e8 78 e5 ff ff       	callq  4010a0 <nrand48@plt>
  402b28:	0f 57 c0             	xorps  %xmm0,%xmm0
  402b2b:	f2 48 0f 2a c0       	cvtsi2sd %rax,%xmm0
  402b30:	f2 0f 59 05 60 54 00 	mulsd  0x5460(%rip),%xmm0        # 407f98 <_IO_stdin_used+0xe88>
  402b37:	00 
  402b38:	0f 57 c9             	xorps  %xmm1,%xmm1
  402b3b:	f2 41 0f 2a cc       	cvtsi2sd %r12d,%xmm1
  402b40:	f2 0f 59 c8          	mulsd  %xmm0,%xmm1
  402b44:	f2 0f 2c c1          	cvttsd2si %xmm1,%eax
  402b48:	49 8b 0e             	mov    (%r14),%rcx
  402b4b:	8b 14 19             	mov    (%rcx,%rbx,1),%edx
  402b4e:	48 98                	cltq   
  402b50:	8b 34 c1             	mov    (%rcx,%rax,8),%esi
  402b53:	89 34 19             	mov    %esi,(%rcx,%rbx,1)
  402b56:	89 14 c1             	mov    %edx,(%rcx,%rax,8)
  402b59:	41 ff cc             	dec    %r12d
  402b5c:	48 83 c3 f8          	add    $0xfffffffffffffff8,%rbx
  402b60:	45 85 e4             	test   %r12d,%r12d
  402b63:	7f bb                	jg     402b20 <random_unique_gen_thread+0xe0>
  402b65:	31 c0                	xor    %eax,%eax
  402b67:	48 83 c4 08          	add    $0x8,%rsp
  402b6b:	5b                   	pop    %rbx
  402b6c:	41 5c                	pop    %r12
  402b6e:	41 5e                	pop    %r14
  402b70:	41 5f                	pop    %r15
  402b72:	c3                   	retq   
  402b73:	66 66 66 66 2e 0f 1f 	data16 data16 data16 nopw %cs:0x0(%rax,%rax,1)
  402b7a:	84 00 00 00 00 00 

0000000000402b80 <numa_localize_thread>:
  402b80:	8b 57 08             	mov    0x8(%rdi),%edx
  402b83:	48 85 d2             	test   %rdx,%rdx
  402b86:	0f 84 93 00 00 00    	je     402c1f <numa_localize_thread+0x9f>
  402b8c:	48 8b 0f             	mov    (%rdi),%rcx
  402b8f:	48 8d 7a ff          	lea    -0x1(%rdx),%rdi
  402b93:	89 d0                	mov    %edx,%eax
  402b95:	83 e0 07             	and    $0x7,%eax
  402b98:	31 f6                	xor    %esi,%esi
  402b9a:	48 83 ff 07          	cmp    $0x7,%rdi
  402b9e:	72 58                	jb     402bf8 <numa_localize_thread+0x78>
  402ba0:	48 29 c2             	sub    %rax,%rdx
  402ba3:	31 f6                	xor    %esi,%esi
  402ba5:	66 66 2e 0f 1f 84 00 	data16 nopw %cs:0x0(%rax,%rax,1)
  402bac:	00 00 00 00 
  402bb0:	c7 04 f1 00 00 00 00 	movl   $0x0,(%rcx,%rsi,8)
  402bb7:	c7 44 f1 08 00 00 00 	movl   $0x0,0x8(%rcx,%rsi,8)
  402bbe:	00 
  402bbf:	c7 44 f1 10 00 00 00 	movl   $0x0,0x10(%rcx,%rsi,8)
  402bc6:	00 
  402bc7:	c7 44 f1 18 00 00 00 	movl   $0x0,0x18(%rcx,%rsi,8)
  402bce:	00 
  402bcf:	c7 44 f1 20 00 00 00 	movl   $0x0,0x20(%rcx,%rsi,8)
  402bd6:	00 
  402bd7:	c7 44 f1 28 00 00 00 	movl   $0x0,0x28(%rcx,%rsi,8)
  402bde:	00 
  402bdf:	c7 44 f1 30 00 00 00 	movl   $0x0,0x30(%rcx,%rsi,8)
  402be6:	00 
  402be7:	c7 44 f1 38 00 00 00 	movl   $0x0,0x38(%rcx,%rsi,8)
  402bee:	00 
  402bef:	48 83 c6 08          	add    $0x8,%rsi
  402bf3:	48 39 f2             	cmp    %rsi,%rdx
  402bf6:	75 b8                	jne    402bb0 <numa_localize_thread+0x30>
  402bf8:	48 85 c0             	test   %rax,%rax
  402bfb:	74 22                	je     402c1f <numa_localize_thread+0x9f>
  402bfd:	48 8d 0c f1          	lea    (%rcx,%rsi,8),%rcx
  402c01:	48 f7 d8             	neg    %rax
  402c04:	66 66 66 2e 0f 1f 84 	data16 data16 nopw %cs:0x0(%rax,%rax,1)
  402c0b:	00 00 00 00 00 
  402c10:	c7 01 00 00 00 00    	movl   $0x0,(%rcx)
  402c16:	48 83 c1 08          	add    $0x8,%rcx
  402c1a:	48 ff c0             	inc    %rax
  402c1d:	75 f1                	jne    402c10 <numa_localize_thread+0x90>
  402c1f:	31 c0                	xor    %eax,%eax
  402c21:	c3                   	retq   
  402c22:	66 66 66 66 66 2e 0f 	data16 data16 data16 data16 nopw %cs:0x0(%rax,%rax,1)
  402c29:	1f 84 00 00 00 00 00 

0000000000402c30 <write_relation>:
  402c30:	55                   	push   %rbp
  402c31:	41 56                	push   %r14
  402c33:	53                   	push   %rbx
  402c34:	48 89 f0             	mov    %rsi,%rax
  402c37:	48 89 fb             	mov    %rdi,%rbx
  402c3a:	be d8 77 40 00       	mov    $0x4077d8,%esi
  402c3f:	48 89 c7             	mov    %rax,%rdi
  402c42:	e8 f9 e5 ff ff       	callq  401240 <fopen@plt>
  402c47:	49 89 c6             	mov    %rax,%r14
  402c4a:	bf e6 7f 40 00       	mov    $0x407fe6,%edi
  402c4f:	be 0a 00 00 00       	mov    $0xa,%esi
  402c54:	ba 01 00 00 00       	mov    $0x1,%edx
  402c59:	4c 89 f1             	mov    %r14,%rcx
  402c5c:	e8 3f e6 ff ff       	callq  4012a0 <fwrite@plt>
  402c61:	83 7b 08 00          	cmpl   $0x0,0x8(%rbx)
  402c65:	74 2b                	je     402c92 <write_relation+0x62>
  402c67:	31 ed                	xor    %ebp,%ebp
  402c69:	0f 1f 80 00 00 00 00 	nopl   0x0(%rax)
  402c70:	89 e8                	mov    %ebp,%eax
  402c72:	48 8b 0b             	mov    (%rbx),%rcx
  402c75:	8b 14 c1             	mov    (%rcx,%rax,8),%edx
  402c78:	8b 4c c1 04          	mov    0x4(%rcx,%rax,8),%ecx
  402c7c:	be f1 7f 40 00       	mov    $0x407ff1,%esi
  402c81:	31 c0                	xor    %eax,%eax
  402c83:	4c 89 f7             	mov    %r14,%rdi
  402c86:	e8 25 e5 ff ff       	callq  4011b0 <fprintf@plt>
  402c8b:	ff c5                	inc    %ebp
  402c8d:	3b 6b 08             	cmp    0x8(%rbx),%ebp
  402c90:	72 de                	jb     402c70 <write_relation+0x40>
  402c92:	4c 89 f7             	mov    %r14,%rdi
  402c95:	5b                   	pop    %rbx
  402c96:	41 5e                	pop    %r14
  402c98:	5d                   	pop    %rbp
  402c99:	e9 22 e4 ff ff       	jmpq   4010c0 <fclose@plt>
  402c9e:	66 90                	xchg   %ax,%ax

0000000000402ca0 <random_gen>:
  402ca0:	55                   	push   %rbp
  402ca1:	53                   	push   %rbx
  402ca2:	50                   	push   %rax
  402ca3:	48 89 fb             	mov    %rdi,%rbx
  402ca6:	83 7b 08 00          	cmpl   $0x0,0x8(%rbx)
  402caa:	74 40                	je     402cec <random_gen+0x4c>
  402cac:	f2 0f 2a c6          	cvtsi2sd %esi,%xmm0
  402cb0:	f2 0f 11 04 24       	movsd  %xmm0,(%rsp)
  402cb5:	31 ed                	xor    %ebp,%ebp
  402cb7:	66 0f 1f 84 00 00 00 	nopw   0x0(%rax,%rax,1)
  402cbe:	00 00 
  402cc0:	e8 2b e6 ff ff       	callq  4012f0 <rand@plt>
  402cc5:	0f 57 c0             	xorps  %xmm0,%xmm0
  402cc8:	f2 0f 2a c0          	cvtsi2sd %eax,%xmm0
  402ccc:	f2 0f 59 05 c4 52 00 	mulsd  0x52c4(%rip),%xmm0        # 407f98 <_IO_stdin_used+0xe88>
  402cd3:	00 
  402cd4:	f2 0f 59 04 24       	mulsd  (%rsp),%xmm0
  402cd9:	f2 0f 2c c0          	cvttsd2si %xmm0,%eax
  402cdd:	89 e9                	mov    %ebp,%ecx
  402cdf:	48 8b 13             	mov    (%rbx),%rdx
  402ce2:	89 04 ca             	mov    %eax,(%rdx,%rcx,8)
  402ce5:	ff c5                	inc    %ebp
  402ce7:	3b 6b 08             	cmp    0x8(%rbx),%ebp
  402cea:	72 d4                	jb     402cc0 <random_gen+0x20>
  402cec:	48 83 c4 08          	add    $0x8,%rsp
  402cf0:	5b                   	pop    %rbx
  402cf1:	5d                   	pop    %rbp
  402cf2:	c3                   	retq   
  402cf3:	66 66 66 66 2e 0f 1f 	data16 data16 data16 nopw %cs:0x0(%rax,%rax,1)
  402cfa:	84 00 00 00 00 00 

0000000000402d00 <create_relation_pk>:
  402d00:	55                   	push   %rbp
  402d01:	41 57                	push   %r15
  402d03:	41 56                	push   %r14
  402d05:	53                   	push   %rbx
  402d06:	50                   	push   %rax
  402d07:	89 f5                	mov    %esi,%ebp
  402d09:	49 89 ff             	mov    %rdi,%r15
  402d0c:	8a 05 aa 7a 20 00    	mov    0x207aaa(%rip),%al        # 60a7bc <seeded>
  402d12:	84 c0                	test   %al,%al
  402d14:	75 15                	jne    402d2b <create_relation_pk+0x2b>
  402d16:	31 ff                	xor    %edi,%edi
  402d18:	e8 c3 e4 ff ff       	callq  4011e0 <time@plt>
  402d1d:	89 c7                	mov    %eax,%edi
  402d1f:	e8 4c e4 ff ff       	callq  401170 <srand@plt>
  402d24:	c6 05 91 7a 20 00 01 	movb   $0x1,0x207a91(%rip)        # 60a7bc <seeded>
  402d2b:	41 89 6f 08          	mov    %ebp,0x8(%r15)
  402d2f:	89 e8                	mov    %ebp,%eax
  402d31:	48 8d 2c c5 00 60 30 	lea    0x306000(,%rax,8),%rbp
  402d38:	00 
  402d39:	48 8d 3c 24          	lea    (%rsp),%rdi
  402d3d:	be 40 00 00 00       	mov    $0x40,%esi
  402d42:	48 89 ea             	mov    %rbp,%rdx
  402d45:	e8 66 e5 ff ff       	callq  4012b0 <posix_memalign@plt>
  402d4a:	85 c0                	test   %eax,%eax
  402d4c:	0f 85 0e 01 00 00    	jne    402e60 <create_relation_pk+0x160>
  402d52:	83 3d 93 82 20 00 00 	cmpl   $0x0,0x208293(%rip)        # 60afec <numalocalize>
  402d59:	74 15                	je     402d70 <create_relation_pk+0x70>
  402d5b:	48 8b 3c 24          	mov    (%rsp),%rdi
  402d5f:	48 c1 ed 03          	shr    $0x3,%rbp
  402d63:	8b 15 7f 82 20 00    	mov    0x20827f(%rip),%edx        # 60afe8 <nthreads>
  402d69:	89 ee                	mov    %ebp,%esi
  402d6b:	e8 e0 f8 ff ff       	callq  402650 <numa_localize>
  402d70:	48 8b 0c 24          	mov    (%rsp),%rcx
  402d74:	49 89 0f             	mov    %rcx,(%r15)
  402d77:	48 85 c9             	test   %rcx,%rcx
  402d7a:	0f 84 f1 00 00 00    	je     402e71 <create_relation_pk+0x171>
  402d80:	41 8b 6f 08          	mov    0x8(%r15),%ebp
  402d84:	45 31 f6             	xor    %r14d,%r14d
  402d87:	48 85 ed             	test   %rbp,%rbp
  402d8a:	0f 84 f1 00 00 00    	je     402e81 <create_relation_pk+0x181>
  402d90:	48 8d 75 ff          	lea    -0x1(%rbp),%rsi
  402d94:	89 e8                	mov    %ebp,%eax
  402d96:	83 e0 07             	and    $0x7,%eax
  402d99:	31 d2                	xor    %edx,%edx
  402d9b:	48 83 fe 07          	cmp    $0x7,%rsi
  402d9f:	72 4f                	jb     402df0 <create_relation_pk+0xf0>
  402da1:	48 89 ee             	mov    %rbp,%rsi
  402da4:	48 29 c6             	sub    %rax,%rsi
  402da7:	31 ff                	xor    %edi,%edi
  402da9:	0f 1f 80 00 00 00 00 	nopl   0x0(%rax)
  402db0:	8d 57 01             	lea    0x1(%rdi),%edx
  402db3:	89 14 f9             	mov    %edx,(%rcx,%rdi,8)
  402db6:	8d 57 02             	lea    0x2(%rdi),%edx
  402db9:	89 54 f9 08          	mov    %edx,0x8(%rcx,%rdi,8)
  402dbd:	8d 57 03             	lea    0x3(%rdi),%edx
  402dc0:	89 54 f9 10          	mov    %edx,0x10(%rcx,%rdi,8)
  402dc4:	8d 57 04             	lea    0x4(%rdi),%edx
  402dc7:	89 54 f9 18          	mov    %edx,0x18(%rcx,%rdi,8)
  402dcb:	8d 57 05             	lea    0x5(%rdi),%edx
  402dce:	89 54 f9 20          	mov    %edx,0x20(%rcx,%rdi,8)
  402dd2:	8d 57 06             	lea    0x6(%rdi),%edx
  402dd5:	89 54 f9 28          	mov    %edx,0x28(%rcx,%rdi,8)
  402dd9:	8d 57 07             	lea    0x7(%rdi),%edx
  402ddc:	89 54 f9 30          	mov    %edx,0x30(%rcx,%rdi,8)
  402de0:	48 8d 57 08          	lea    0x8(%rdi),%rdx
  402de4:	89 54 f9 38          	mov    %edx,0x38(%rcx,%rdi,8)
  402de8:	48 39 d6             	cmp    %rdx,%rsi
  402deb:	48 89 d7             	mov    %rdx,%rdi
  402dee:	75 c0                	jne    402db0 <create_relation_pk+0xb0>
  402df0:	48 85 c0             	test   %rax,%rax
  402df3:	74 18                	je     402e0d <create_relation_pk+0x10d>
  402df5:	48 8d 0c d1          	lea    (%rcx,%rdx,8),%rcx
  402df9:	ff c2                	inc    %edx
  402dfb:	48 f7 d8             	neg    %rax
  402dfe:	66 90                	xchg   %ax,%ax
  402e00:	89 11                	mov    %edx,(%rcx)
  402e02:	48 83 c1 08          	add    $0x8,%rcx
  402e06:	ff c2                	inc    %edx
  402e08:	48 ff c0             	inc    %rax
  402e0b:	75 f3                	jne    402e00 <create_relation_pk+0x100>
  402e0d:	ff cd                	dec    %ebp
  402e0f:	45 31 f6             	xor    %r14d,%r14d
  402e12:	85 ed                	test   %ebp,%ebp
  402e14:	7e 6b                	jle    402e81 <create_relation_pk+0x181>
  402e16:	48 63 dd             	movslq %ebp,%rbx
  402e19:	48 c1 e3 03          	shl    $0x3,%rbx
  402e1d:	0f 1f 00             	nopl   (%rax)
  402e20:	e8 cb e4 ff ff       	callq  4012f0 <rand@plt>
  402e25:	0f 57 c0             	xorps  %xmm0,%xmm0
  402e28:	f2 0f 2a c0          	cvtsi2sd %eax,%xmm0
  402e2c:	f2 0f 59 05 64 51 00 	mulsd  0x5164(%rip),%xmm0        # 407f98 <_IO_stdin_used+0xe88>
  402e33:	00 
  402e34:	0f 57 c9             	xorps  %xmm1,%xmm1
  402e37:	f2 0f 2a cd          	cvtsi2sd %ebp,%xmm1
  402e3b:	f2 0f 59 c8          	mulsd  %xmm0,%xmm1
  402e3f:	f2 0f 2c c1          	cvttsd2si %xmm1,%eax
  402e43:	49 8b 0f             	mov    (%r15),%rcx
  402e46:	8b 14 19             	mov    (%rcx,%rbx,1),%edx
  402e49:	48 98                	cltq   
  402e4b:	8b 34 c1             	mov    (%rcx,%rax,8),%esi
  402e4e:	89 34 19             	mov    %esi,(%rcx,%rbx,1)
  402e51:	89 14 c1             	mov    %edx,(%rcx,%rax,8)
  402e54:	ff cd                	dec    %ebp
  402e56:	48 83 c3 f8          	add    $0xfffffffffffffff8,%rbx
  402e5a:	85 ed                	test   %ebp,%ebp
  402e5c:	7f c2                	jg     402e20 <create_relation_pk+0x120>
  402e5e:	eb 21                	jmp    402e81 <create_relation_pk+0x181>
  402e60:	bf c0 7f 40 00       	mov    $0x407fc0,%edi
  402e65:	e8 e6 e3 ff ff       	callq  401250 <perror@plt>
  402e6a:	49 c7 07 00 00 00 00 	movq   $0x0,(%r15)
  402e71:	bf d8 7f 40 00       	mov    $0x407fd8,%edi
  402e76:	e8 d5 e3 ff ff       	callq  401250 <perror@plt>
  402e7b:	41 be ff ff ff ff    	mov    $0xffffffff,%r14d
  402e81:	44 89 f0             	mov    %r14d,%eax
  402e84:	48 83 c4 08          	add    $0x8,%rsp
  402e88:	5b                   	pop    %rbx
  402e89:	41 5e                	pop    %r14
  402e8b:	41 5f                	pop    %r15
  402e8d:	5d                   	pop    %rbp
  402e8e:	c3                   	retq   
  402e8f:	90                   	nop

0000000000402e90 <parallel_create_relation_pk>:
  402e90:	55                   	push   %rbp
  402e91:	48 89 e5             	mov    %rsp,%rbp
  402e94:	41 57                	push   %r15
  402e96:	41 56                	push   %r14
  402e98:	41 55                	push   %r13
  402e9a:	41 54                	push   %r12
  402e9c:	53                   	push   %rbx
  402e9d:	48 81 ec f8 00 00 00 	sub    $0xf8,%rsp
  402ea4:	48 89 55 c0          	mov    %rdx,-0x40(%rbp)
  402ea8:	89 75 d4             	mov    %esi,-0x2c(%rbp)
  402eab:	49 89 ff             	mov    %rdi,%r15
  402eae:	8a 05 08 79 20 00    	mov    0x207908(%rip),%al        # 60a7bc <seeded>
  402eb4:	84 c0                	test   %al,%al
  402eb6:	75 15                	jne    402ecd <parallel_create_relation_pk+0x3d>
  402eb8:	31 ff                	xor    %edi,%edi
  402eba:	e8 21 e3 ff ff       	callq  4011e0 <time@plt>
  402ebf:	89 c7                	mov    %eax,%edi
  402ec1:	e8 aa e2 ff ff       	callq  401170 <srand@plt>
  402ec6:	c6 05 ef 78 20 00 01 	movb   $0x1,0x2078ef(%rip)        # 60a7bc <seeded>
  402ecd:	8b 45 d4             	mov    -0x2c(%rbp),%eax
  402ed0:	41 89 47 08          	mov    %eax,0x8(%r15)
  402ed4:	4c 63 f0             	movslq %eax,%r14
  402ed7:	4a 8d 1c f5 00 60 30 	lea    0x306000(,%r14,8),%rbx
  402ede:	00 
  402edf:	48 8d bd 20 ff ff ff 	lea    -0xe0(%rbp),%rdi
  402ee6:	be 40 00 00 00       	mov    $0x40,%esi
  402eeb:	48 89 da             	mov    %rbx,%rdx
  402eee:	e8 bd e3 ff ff       	callq  4012b0 <posix_memalign@plt>
  402ef3:	85 c0                	test   %eax,%eax
  402ef5:	0f 85 6b 02 00 00    	jne    403166 <parallel_create_relation_pk+0x2d6>
  402efb:	83 3d ea 80 20 00 00 	cmpl   $0x0,0x2080ea(%rip)        # 60afec <numalocalize>
  402f02:	74 18                	je     402f1c <parallel_create_relation_pk+0x8c>
  402f04:	48 8b bd 20 ff ff ff 	mov    -0xe0(%rbp),%rdi
  402f0b:	48 c1 eb 03          	shr    $0x3,%rbx
  402f0f:	8b 15 d3 80 20 00    	mov    0x2080d3(%rip),%edx        # 60afe8 <nthreads>
  402f15:	89 de                	mov    %ebx,%esi
  402f17:	e8 34 f7 ff ff       	callq  402650 <numa_localize>
  402f1c:	48 8b 85 20 ff ff ff 	mov    -0xe0(%rbp),%rax
  402f23:	49 89 07             	mov    %rax,(%r15)
  402f26:	48 85 c0             	test   %rax,%rax
  402f29:	0f 84 48 02 00 00    	je     403177 <parallel_create_relation_pk+0x2e7>
  402f2f:	4c 89 7d b8          	mov    %r15,-0x48(%rbp)
  402f33:	48 89 65 a8          	mov    %rsp,-0x58(%rbp)
  402f37:	49 c1 e6 03          	shl    $0x3,%r14
  402f3b:	4c 8b 6d c0          	mov    -0x40(%rbp),%r13
  402f3f:	44 89 ea             	mov    %r13d,%edx
  402f42:	48 8d 04 52          	lea    (%rdx,%rdx,2),%rax
  402f46:	48 8d 04 c5 0f 00 00 	lea    0xf(,%rax,8),%rax
  402f4d:	00 
  402f4e:	48 b9 f0 ff ff ff 3f 	movabs $0x3ffffffff0,%rcx
  402f55:	00 00 00 
  402f58:	48 21 c1             	and    %rax,%rcx
  402f5b:	48 89 e3             	mov    %rsp,%rbx
  402f5e:	48 29 cb             	sub    %rcx,%rbx
  402f61:	48 89 dc             	mov    %rbx,%rsp
  402f64:	48 89 55 a0          	mov    %rdx,-0x60(%rbp)
  402f68:	48 8d 04 d5 0f 00 00 	lea    0xf(,%rdx,8),%rax
  402f6f:	00 
  402f70:	48 b9 f0 ff ff ff 0f 	movabs $0xffffffff0,%rcx
  402f77:	00 00 00 
  402f7a:	48 21 c1             	and    %rax,%rcx
  402f7d:	49 89 e4             	mov    %rsp,%r12
  402f80:	49 29 cc             	sub    %rcx,%r12
  402f83:	4c 89 e4             	mov    %r12,%rsp
  402f86:	e8 f5 e2 ff ff       	callq  401280 <getpagesize@plt>
  402f8b:	41 89 c7             	mov    %eax,%r15d
  402f8e:	44 89 f9             	mov    %r15d,%ecx
  402f91:	31 d2                	xor    %edx,%edx
  402f93:	4c 89 f0             	mov    %r14,%rax
  402f96:	4d 89 ee             	mov    %r13,%r14
  402f99:	48 f7 f1             	div    %rcx
  402f9c:	ff c0                	inc    %eax
  402f9e:	45 31 ed             	xor    %r13d,%r13d
  402fa1:	31 d2                	xor    %edx,%edx
  402fa3:	41 f7 f6             	div    %r14d
  402fa6:	89 45 c8             	mov    %eax,-0x38(%rbp)
  402fa9:	48 8d bd e8 fe ff ff 	lea    -0x118(%rbp),%rdi
  402fb0:	e8 cb e1 ff ff       	callq  401180 <pthread_attr_init@plt>
  402fb5:	45 85 f6             	test   %r14d,%r14d
  402fb8:	0f 84 35 01 00 00    	je     4030f3 <parallel_create_relation_pk+0x263>
  402fbe:	41 c1 ef 03          	shr    $0x3,%r15d
  402fc2:	8b 55 c8             	mov    -0x38(%rbp),%edx
  402fc5:	41 0f af d7          	imul   %r15d,%edx
  402fc9:	41 8d 46 ff          	lea    -0x1(%r14),%eax
  402fcd:	89 d1                	mov    %edx,%ecx
  402fcf:	0f af c8             	imul   %eax,%ecx
  402fd2:	29 4d d4             	sub    %ecx,-0x2c(%rbp)
  402fd5:	89 c0                	mov    %eax,%eax
  402fd7:	48 89 45 c8          	mov    %rax,-0x38(%rbp)
  402fdb:	4c 89 65 b0          	mov    %r12,-0x50(%rbp)
  402fdf:	4d 89 e6             	mov    %r12,%r14
  402fe2:	45 31 ff             	xor    %r15d,%r15d
  402fe5:	41 89 d4             	mov    %edx,%r12d
  402fe8:	0f 1f 84 00 00 00 00 	nopl   0x0(%rax,%rax,1)
  402fef:	00 
  402ff0:	44 89 ff             	mov    %r15d,%edi
  402ff3:	e8 58 0e 00 00       	callq  403e50 <get_cpu_id>
  402ff8:	66 0f 57 c0          	xorpd  %xmm0,%xmm0
  402ffc:	66 0f 29 45 90       	movapd %xmm0,-0x70(%rbp)
  403001:	66 0f 29 45 80       	movapd %xmm0,-0x80(%rbp)
  403006:	66 0f 29 85 70 ff ff 	movapd %xmm0,-0x90(%rbp)
  40300d:	ff 
  40300e:	66 0f 29 85 60 ff ff 	movapd %xmm0,-0xa0(%rbp)
  403015:	ff 
  403016:	66 0f 29 85 50 ff ff 	movapd %xmm0,-0xb0(%rbp)
  40301d:	ff 
  40301e:	66 0f 29 85 40 ff ff 	movapd %xmm0,-0xc0(%rbp)
  403025:	ff 
  403026:	66 0f 29 85 30 ff ff 	movapd %xmm0,-0xd0(%rbp)
  40302d:	ff 
  40302e:	66 0f 29 85 20 ff ff 	movapd %xmm0,-0xe0(%rbp)
  403035:	ff 
  403036:	3d ff 03 00 00       	cmp    $0x3ff,%eax
  40303b:	77 17                	ja     403054 <parallel_create_relation_pk+0x1c4>
  40303d:	48 63 c8             	movslq %eax,%rcx
  403040:	b8 01 00 00 00       	mov    $0x1,%eax
  403045:	48 d3 e0             	shl    %cl,%rax
  403048:	48 c1 e9 06          	shr    $0x6,%rcx
  40304c:	48 09 84 cd 20 ff ff 	or     %rax,-0xe0(%rbp,%rcx,8)
  403053:	ff 
  403054:	be 80 00 00 00       	mov    $0x80,%esi
  403059:	48 8d 85 e8 fe ff ff 	lea    -0x118(%rbp),%rax
  403060:	48 89 c7             	mov    %rax,%rdi
  403063:	48 8d 95 20 ff ff ff 	lea    -0xe0(%rbp),%rdx
  40306a:	e8 21 e0 ff ff       	callq  401090 <pthread_attr_setaffinity_np@plt>
  40306f:	41 8d 45 01          	lea    0x1(%r13),%eax
  403073:	89 43 10             	mov    %eax,0x10(%rbx)
  403076:	44 89 e8             	mov    %r13d,%eax
  403079:	48 c1 e0 03          	shl    $0x3,%rax
  40307d:	48 8b 4d b8          	mov    -0x48(%rbp),%rcx
  403081:	48 03 01             	add    (%rcx),%rax
  403084:	48 89 03             	mov    %rax,(%rbx)
  403087:	4c 39 7d c8          	cmp    %r15,-0x38(%rbp)
  40308b:	44 89 e0             	mov    %r12d,%eax
  40308e:	0f 44 45 d4          	cmove  -0x2c(%rbp),%eax
  403092:	89 43 08             	mov    %eax,0x8(%rbx)
  403095:	ba 40 2a 40 00       	mov    $0x402a40,%edx
  40309a:	4c 89 f7             	mov    %r14,%rdi
  40309d:	48 8d b5 e8 fe ff ff 	lea    -0x118(%rbp),%rsi
  4030a4:	48 89 d9             	mov    %rbx,%rcx
  4030a7:	e8 a4 df ff ff       	callq  401050 <pthread_create@plt>
  4030ac:	89 c1                	mov    %eax,%ecx
  4030ae:	85 c9                	test   %ecx,%ecx
  4030b0:	0f 85 d2 00 00 00    	jne    403188 <parallel_create_relation_pk+0x2f8>
  4030b6:	45 01 e5             	add    %r12d,%r13d
  4030b9:	49 ff c7             	inc    %r15
  4030bc:	48 83 c3 18          	add    $0x18,%rbx
  4030c0:	49 83 c6 08          	add    $0x8,%r14
  4030c4:	4c 3b 7d a0          	cmp    -0x60(%rbp),%r15
  4030c8:	0f 82 22 ff ff ff    	jb     402ff0 <parallel_create_relation_pk+0x160>
  4030ce:	4c 8b 75 c0          	mov    -0x40(%rbp),%r14
  4030d2:	45 85 f6             	test   %r14d,%r14d
  4030d5:	48 8b 5d b0          	mov    -0x50(%rbp),%rbx
  4030d9:	74 18                	je     4030f3 <parallel_create_relation_pk+0x263>
  4030db:	0f 1f 44 00 00       	nopl   0x0(%rax,%rax,1)
  4030e0:	48 8b 3b             	mov    (%rbx),%rdi
  4030e3:	31 f6                	xor    %esi,%esi
  4030e5:	e8 86 e1 ff ff       	callq  401270 <pthread_join@plt>
  4030ea:	48 83 c3 08          	add    $0x8,%rbx
  4030ee:	41 ff ce             	dec    %r14d
  4030f1:	75 ed                	jne    4030e0 <parallel_create_relation_pk+0x250>
  4030f3:	4c 8b 7d b8          	mov    -0x48(%rbp),%r15
  4030f7:	45 8b 77 08          	mov    0x8(%r15),%r14d
  4030fb:	41 ff ce             	dec    %r14d
  4030fe:	45 85 f6             	test   %r14d,%r14d
  403101:	7e 4e                	jle    403151 <parallel_create_relation_pk+0x2c1>
  403103:	49 63 de             	movslq %r14d,%rbx
  403106:	48 c1 e3 03          	shl    $0x3,%rbx
  40310a:	66 0f 1f 44 00 00    	nopw   0x0(%rax,%rax,1)
  403110:	e8 db e1 ff ff       	callq  4012f0 <rand@plt>
  403115:	0f 57 c0             	xorps  %xmm0,%xmm0
  403118:	f2 0f 2a c0          	cvtsi2sd %eax,%xmm0
  40311c:	f2 0f 59 05 74 4e 00 	mulsd  0x4e74(%rip),%xmm0        # 407f98 <_IO_stdin_used+0xe88>
  403123:	00 
  403124:	0f 57 c9             	xorps  %xmm1,%xmm1
  403127:	f2 41 0f 2a ce       	cvtsi2sd %r14d,%xmm1
  40312c:	f2 0f 59 c8          	mulsd  %xmm0,%xmm1
  403130:	f2 0f 2c c1          	cvttsd2si %xmm1,%eax
  403134:	49 8b 0f             	mov    (%r15),%rcx
  403137:	8b 14 19             	mov    (%rcx,%rbx,1),%edx
  40313a:	48 98                	cltq   
  40313c:	8b 34 c1             	mov    (%rcx,%rax,8),%esi
  40313f:	89 34 19             	mov    %esi,(%rcx,%rbx,1)
  403142:	89 14 c1             	mov    %edx,(%rcx,%rax,8)
  403145:	41 ff ce             	dec    %r14d
  403148:	48 83 c3 f8          	add    $0xfffffffffffffff8,%rbx
  40314c:	45 85 f6             	test   %r14d,%r14d
  40314f:	7f bf                	jg     403110 <parallel_create_relation_pk+0x280>
  403151:	31 c0                	xor    %eax,%eax
  403153:	48 8b 65 a8          	mov    -0x58(%rbp),%rsp
  403157:	48 8d 65 d8          	lea    -0x28(%rbp),%rsp
  40315b:	5b                   	pop    %rbx
  40315c:	41 5c                	pop    %r12
  40315e:	41 5d                	pop    %r13
  403160:	41 5e                	pop    %r14
  403162:	41 5f                	pop    %r15
  403164:	5d                   	pop    %rbp
  403165:	c3                   	retq   
  403166:	bf c0 7f 40 00       	mov    $0x407fc0,%edi
  40316b:	e8 e0 e0 ff ff       	callq  401250 <perror@plt>
  403170:	49 c7 07 00 00 00 00 	movq   $0x0,(%r15)
  403177:	bf d8 7f 40 00       	mov    $0x407fd8,%edi
  40317c:	e8 cf e0 ff ff       	callq  401250 <perror@plt>
  403181:	b8 ff ff ff ff       	mov    $0xffffffff,%eax
  403186:	eb cf                	jmp    403157 <parallel_create_relation_pk+0x2c7>
  403188:	48 8b 3d 11 76 20 00 	mov    0x207611(%rip),%rdi        # 60a7a0 <stderr@@GLIBC_2.2.5>
  40318f:	be f8 7f 40 00       	mov    $0x407ff8,%esi
  403194:	31 c0                	xor    %eax,%eax
  403196:	89 ca                	mov    %ecx,%edx
  403198:	e8 13 e0 ff ff       	callq  4011b0 <fprintf@plt>
  40319d:	bf ff ff ff ff       	mov    $0xffffffff,%edi
  4031a2:	e8 e9 e0 ff ff       	callq  401290 <exit@plt>
  4031a7:	66 0f 1f 84 00 00 00 	nopw   0x0(%rax,%rax,1)
  4031ae:	00 00 

00000000004031b0 <create_relation_fk>:
  4031b0:	55                   	push   %rbp
  4031b1:	41 57                	push   %r15
  4031b3:	41 56                	push   %r14
  4031b5:	41 55                	push   %r13
  4031b7:	41 54                	push   %r12
  4031b9:	53                   	push   %rbx
  4031ba:	48 83 ec 58          	sub    $0x58,%rsp
  4031be:	41 89 d6             	mov    %edx,%r14d
  4031c1:	41 89 f7             	mov    %esi,%r15d
  4031c4:	48 89 fd             	mov    %rdi,%rbp
  4031c7:	8a 05 ef 75 20 00    	mov    0x2075ef(%rip),%al        # 60a7bc <seeded>
  4031cd:	84 c0                	test   %al,%al
  4031cf:	75 15                	jne    4031e6 <create_relation_fk+0x36>
  4031d1:	31 ff                	xor    %edi,%edi
  4031d3:	e8 08 e0 ff ff       	callq  4011e0 <time@plt>
  4031d8:	89 c7                	mov    %eax,%edi
  4031da:	e8 91 df ff ff       	callq  401170 <srand@plt>
  4031df:	c6 05 d6 75 20 00 01 	movb   $0x1,0x2075d6(%rip)        # 60a7bc <seeded>
  4031e6:	44 89 7d 08          	mov    %r15d,0x8(%rbp)
  4031ea:	44 89 f8             	mov    %r15d,%eax
  4031ed:	48 8d 1c c5 00 60 30 	lea    0x306000(,%rax,8),%rbx
  4031f4:	00 
  4031f5:	48 8d 7c 24 18       	lea    0x18(%rsp),%rdi
  4031fa:	be 40 00 00 00       	mov    $0x40,%esi
  4031ff:	48 89 da             	mov    %rbx,%rdx
  403202:	e8 a9 e0 ff ff       	callq  4012b0 <posix_memalign@plt>
  403207:	85 c0                	test   %eax,%eax
  403209:	0f 85 60 03 00 00    	jne    40356f <create_relation_fk+0x3bf>
  40320f:	83 3d d6 7d 20 00 00 	cmpl   $0x0,0x207dd6(%rip)        # 60afec <numalocalize>
  403216:	74 16                	je     40322e <create_relation_fk+0x7e>
  403218:	48 8b 7c 24 18       	mov    0x18(%rsp),%rdi
  40321d:	48 c1 eb 03          	shr    $0x3,%rbx
  403221:	8b 15 c1 7d 20 00    	mov    0x207dc1(%rip),%edx        # 60afe8 <nthreads>
  403227:	89 de                	mov    %ebx,%esi
  403229:	e8 22 f4 ff ff       	callq  402650 <numa_localize>
  40322e:	4c 8b 6c 24 18       	mov    0x18(%rsp),%r13
  403233:	4c 89 6d 00          	mov    %r13,0x0(%rbp)
  403237:	4d 85 ed             	test   %r13,%r13
  40323a:	0f 84 41 03 00 00    	je     403581 <create_relation_fk+0x3d1>
  403240:	44 89 7c 24 10       	mov    %r15d,0x10(%rsp)
  403245:	44 89 f8             	mov    %r15d,%eax
  403248:	99                   	cltd   
  403249:	4c 89 74 24 08       	mov    %r14,0x8(%rsp)
  40324e:	41 f7 fe             	idiv   %r14d
  403251:	89 44 24 04          	mov    %eax,0x4(%rsp)
  403255:	85 c0                	test   %eax,%eax
  403257:	0f 8e 66 02 00 00    	jle    4034c3 <create_relation_fk+0x313>
  40325d:	48 8b 44 24 08       	mov    0x8(%rsp),%rax
  403262:	85 c0                	test   %eax,%eax
  403264:	89 c3                	mov    %eax,%ebx
  403266:	0f 84 57 02 00 00    	je     4034c3 <create_relation_fk+0x313>
  40326c:	48 8b 44 24 08       	mov    0x8(%rsp),%rax
  403271:	44 8d 70 ff          	lea    -0x1(%rax),%r14d
  403275:	45 85 f6             	test   %r14d,%r14d
  403278:	48 63 c8             	movslq %eax,%rcx
  40327b:	0f 8e 84 01 00 00    	jle    403405 <create_relation_fk+0x255>
  403281:	4d 63 ce             	movslq %r14d,%r9
  403284:	89 d8                	mov    %ebx,%eax
  403286:	83 e0 07             	and    $0x7,%eax
  403289:	48 8d 53 ff          	lea    -0x1(%rbx),%rdx
  40328d:	48 89 54 24 28       	mov    %rdx,0x28(%rsp)
  403292:	48 29 c3             	sub    %rax,%rbx
  403295:	48 89 44 24 30       	mov    %rax,0x30(%rsp)
  40329a:	48 f7 d8             	neg    %rax
  40329d:	48 89 44 24 20       	mov    %rax,0x20(%rsp)
  4032a2:	bf 07 00 00 00       	mov    $0x7,%edi
  4032a7:	45 31 d2             	xor    %r10d,%r10d
  4032aa:	45 31 e4             	xor    %r12d,%r12d
  4032ad:	48 89 6c 24 38       	mov    %rbp,0x38(%rsp)
  4032b2:	44 89 74 24 14       	mov    %r14d,0x14(%rsp)
  4032b7:	eb 28                	jmp    4032e1 <create_relation_fk+0x131>
  4032b9:	0f 1f 80 00 00 00 00 	nopl   0x0(%rax)
  4032c0:	4c 8b 6d 00          	mov    0x0(%rbp),%r13
  4032c4:	48 8b 7c 24 48       	mov    0x48(%rsp),%rdi
  4032c9:	48 01 cf             	add    %rcx,%rdi
  4032cc:	4c 8b 54 24 40       	mov    0x40(%rsp),%r10
  4032d1:	49 01 ca             	add    %rcx,%r10
  4032d4:	4c 8b 4c 24 50       	mov    0x50(%rsp),%r9
  4032d9:	49 01 c9             	add    %rcx,%r9
  4032dc:	44 8b 74 24 14       	mov    0x14(%rsp),%r14d
  4032e1:	48 83 7c 24 28 07    	cmpq   $0x7,0x28(%rsp)
  4032e7:	b8 00 00 00 00       	mov    $0x0,%eax
  4032ec:	72 52                	jb     403340 <create_relation_fk+0x190>
  4032ee:	49 8d 54 fd 00       	lea    0x0(%r13,%rdi,8),%rdx
  4032f3:	31 f6                	xor    %esi,%esi
  4032f5:	66 66 2e 0f 1f 84 00 	data16 nopw %cs:0x0(%rax,%rax,1)
  4032fc:	00 00 00 00 
  403300:	8d 46 01             	lea    0x1(%rsi),%eax
  403303:	89 44 f2 c8          	mov    %eax,-0x38(%rdx,%rsi,8)
  403307:	8d 46 02             	lea    0x2(%rsi),%eax
  40330a:	89 44 f2 d0          	mov    %eax,-0x30(%rdx,%rsi,8)
  40330e:	8d 46 03             	lea    0x3(%rsi),%eax
  403311:	89 44 f2 d8          	mov    %eax,-0x28(%rdx,%rsi,8)
  403315:	8d 46 04             	lea    0x4(%rsi),%eax
  403318:	89 44 f2 e0          	mov    %eax,-0x20(%rdx,%rsi,8)
  40331c:	8d 46 05             	lea    0x5(%rsi),%eax
  40331f:	89 44 f2 e8          	mov    %eax,-0x18(%rdx,%rsi,8)
  403323:	8d 46 06             	lea    0x6(%rsi),%eax
  403326:	89 44 f2 f0          	mov    %eax,-0x10(%rdx,%rsi,8)
  40332a:	8d 46 07             	lea    0x7(%rsi),%eax
  40332d:	89 44 f2 f8          	mov    %eax,-0x8(%rdx,%rsi,8)
  403331:	48 8d 46 08          	lea    0x8(%rsi),%rax
  403335:	89 04 f2             	mov    %eax,(%rdx,%rsi,8)
  403338:	48 39 c3             	cmp    %rax,%rbx
  40333b:	48 89 c6             	mov    %rax,%rsi
  40333e:	75 c0                	jne    403300 <create_relation_fk+0x150>
  403340:	48 89 7c 24 48       	mov    %rdi,0x48(%rsp)
  403345:	4c 89 e2             	mov    %r12,%rdx
  403348:	48 89 cd             	mov    %rcx,%rbp
  40334b:	48 0f af d1          	imul   %rcx,%rdx
  40334f:	48 83 7c 24 30 00    	cmpq   $0x0,0x30(%rsp)
  403355:	74 26                	je     40337d <create_relation_fk+0x1cd>
  403357:	4a 8d 34 10          	lea    (%rax,%r10,1),%rsi
  40335b:	49 8d 74 f5 00       	lea    0x0(%r13,%rsi,8),%rsi
  403360:	ff c0                	inc    %eax
  403362:	48 8b 7c 24 20       	mov    0x20(%rsp),%rdi
  403367:	66 0f 1f 84 00 00 00 	nopw   0x0(%rax,%rax,1)
  40336e:	00 00 
  403370:	89 06                	mov    %eax,(%rsi)
  403372:	48 83 c6 08          	add    $0x8,%rsi
  403376:	ff c0                	inc    %eax
  403378:	48 ff c7             	inc    %rdi
  40337b:	75 f3                	jne    403370 <create_relation_fk+0x1c0>
  40337d:	4c 89 54 24 40       	mov    %r10,0x40(%rsp)
  403382:	4d 8d 7c d5 00       	lea    0x0(%r13,%rdx,8),%r15
  403387:	4c 89 4c 24 50       	mov    %r9,0x50(%rsp)
  40338c:	4f 8d 6c cd 00       	lea    0x0(%r13,%r9,8),%r13
  403391:	66 66 66 66 66 66 2e 	data16 data16 data16 data16 data16 nopw %cs:0x0(%rax,%rax,1)
  403398:	0f 1f 84 00 00 00 00 
  40339f:	00 
  4033a0:	e8 4b df ff ff       	callq  4012f0 <rand@plt>
  4033a5:	f2 0f 10 05 eb 4b 00 	movsd  0x4beb(%rip),%xmm0        # 407f98 <_IO_stdin_used+0xe88>
  4033ac:	00 
  4033ad:	66 0f 28 c8          	movapd %xmm0,%xmm1
  4033b1:	0f 57 c0             	xorps  %xmm0,%xmm0
  4033b4:	f2 0f 2a c0          	cvtsi2sd %eax,%xmm0
  4033b8:	f2 0f 59 c1          	mulsd  %xmm1,%xmm0
  4033bc:	0f 57 c9             	xorps  %xmm1,%xmm1
  4033bf:	f2 41 0f 2a ce       	cvtsi2sd %r14d,%xmm1
  4033c4:	f2 0f 59 c8          	mulsd  %xmm0,%xmm1
  4033c8:	f2 0f 2c c1          	cvttsd2si %xmm1,%eax
  4033cc:	41 8b 4d 00          	mov    0x0(%r13),%ecx
  4033d0:	48 98                	cltq   
  4033d2:	41 8b 14 c7          	mov    (%r15,%rax,8),%edx
  4033d6:	41 89 55 00          	mov    %edx,0x0(%r13)
  4033da:	41 89 0c c7          	mov    %ecx,(%r15,%rax,8)
  4033de:	41 ff ce             	dec    %r14d
  4033e1:	49 83 c5 f8          	add    $0xfffffffffffffff8,%r13
  4033e5:	45 85 f6             	test   %r14d,%r14d
  4033e8:	7f b6                	jg     4033a0 <create_relation_fk+0x1f0>
  4033ea:	49 ff c4             	inc    %r12
  4033ed:	44 3b 64 24 04       	cmp    0x4(%rsp),%r12d
  4033f2:	48 89 e9             	mov    %rbp,%rcx
  4033f5:	48 8b 6c 24 38       	mov    0x38(%rsp),%rbp
  4033fa:	0f 85 c0 fe ff ff    	jne    4032c0 <create_relation_fk+0x110>
  403400:	e9 be 00 00 00       	jmpq   4034c3 <create_relation_fk+0x313>
  403405:	41 89 da             	mov    %ebx,%r10d
  403408:	41 83 e2 07          	and    $0x7,%r10d
  40340c:	4c 8d 4b ff          	lea    -0x1(%rbx),%r9
  403410:	4c 29 d3             	sub    %r10,%rbx
  403413:	49 8d 45 38          	lea    0x38(%r13),%rax
  403417:	48 c1 e1 03          	shl    $0x3,%rcx
  40341b:	4d 89 d0             	mov    %r10,%r8
  40341e:	49 f7 d8             	neg    %r8
  403421:	31 ff                	xor    %edi,%edi
  403423:	66 66 66 66 2e 0f 1f 	data16 data16 data16 nopw %cs:0x0(%rax,%rax,1)
  40342a:	84 00 00 00 00 00 
  403430:	49 89 eb             	mov    %rbp,%r11
  403433:	49 83 f9 07          	cmp    $0x7,%r9
  403437:	ba 00 00 00 00       	mov    $0x0,%edx
  40343c:	72 4b                	jb     403489 <create_relation_fk+0x2d9>
  40343e:	48 89 c6             	mov    %rax,%rsi
  403441:	31 d2                	xor    %edx,%edx
  403443:	66 66 66 66 2e 0f 1f 	data16 data16 data16 nopw %cs:0x0(%rax,%rax,1)
  40344a:	84 00 00 00 00 00 
  403450:	8d 6a 01             	lea    0x1(%rdx),%ebp
  403453:	89 6e c8             	mov    %ebp,-0x38(%rsi)
  403456:	8d 6a 02             	lea    0x2(%rdx),%ebp
  403459:	89 6e d0             	mov    %ebp,-0x30(%rsi)
  40345c:	8d 6a 03             	lea    0x3(%rdx),%ebp
  40345f:	89 6e d8             	mov    %ebp,-0x28(%rsi)
  403462:	8d 6a 04             	lea    0x4(%rdx),%ebp
  403465:	89 6e e0             	mov    %ebp,-0x20(%rsi)
  403468:	8d 6a 05             	lea    0x5(%rdx),%ebp
  40346b:	89 6e e8             	mov    %ebp,-0x18(%rsi)
  40346e:	8d 6a 06             	lea    0x6(%rdx),%ebp
  403471:	89 6e f0             	mov    %ebp,-0x10(%rsi)
  403474:	8d 6a 07             	lea    0x7(%rdx),%ebp
  403477:	89 6e f8             	mov    %ebp,-0x8(%rsi)
  40347a:	48 83 c2 08          	add    $0x8,%rdx
  40347e:	89 16                	mov    %edx,(%rsi)
  403480:	48 83 c6 40          	add    $0x40,%rsi
  403484:	48 39 d3             	cmp    %rdx,%rbx
  403487:	75 c7                	jne    403450 <create_relation_fk+0x2a0>
  403489:	4d 85 d2             	test   %r10,%r10
  40348c:	74 1f                	je     4034ad <create_relation_fk+0x2fd>
  40348e:	49 8d 74 d5 00       	lea    0x0(%r13,%rdx,8),%rsi
  403493:	ff c2                	inc    %edx
  403495:	4c 89 c5             	mov    %r8,%rbp
  403498:	0f 1f 84 00 00 00 00 	nopl   0x0(%rax,%rax,1)
  40349f:	00 
  4034a0:	89 16                	mov    %edx,(%rsi)
  4034a2:	48 83 c6 08          	add    $0x8,%rsi
  4034a6:	ff c2                	inc    %edx
  4034a8:	48 ff c5             	inc    %rbp
  4034ab:	75 f3                	jne    4034a0 <create_relation_fk+0x2f0>
  4034ad:	48 ff c7             	inc    %rdi
  4034b0:	48 01 c8             	add    %rcx,%rax
  4034b3:	49 01 cd             	add    %rcx,%r13
  4034b6:	3b 7c 24 04          	cmp    0x4(%rsp),%edi
  4034ba:	4c 89 dd             	mov    %r11,%rbp
  4034bd:	0f 85 6d ff ff ff    	jne    403430 <create_relation_fk+0x280>
  4034c3:	8b 44 24 10          	mov    0x10(%rsp),%eax
  4034c7:	99                   	cltd   
  4034c8:	48 8b 4c 24 08       	mov    0x8(%rsp),%rcx
  4034cd:	f7 f9                	idiv   %ecx
  4034cf:	89 d3                	mov    %edx,%ebx
  4034d1:	45 31 ff             	xor    %r15d,%r15d
  4034d4:	85 db                	test   %ebx,%ebx
  4034d6:	0f 8e b5 00 00 00    	jle    403591 <create_relation_fk+0x3e1>
  4034dc:	48 8b 45 00          	mov    0x0(%rbp),%rax
  4034e0:	8b 54 24 04          	mov    0x4(%rsp),%edx
  4034e4:	0f af d1             	imul   %ecx,%edx
  4034e7:	48 63 ca             	movslq %edx,%rcx
  4034ea:	4c 8d 34 c8          	lea    (%rax,%rcx,8),%r14
  4034ee:	89 da                	mov    %ebx,%edx
  4034f0:	31 f6                	xor    %esi,%esi
  4034f2:	66 66 66 66 66 2e 0f 	data16 data16 data16 data16 nopw %cs:0x0(%rax,%rax,1)
  4034f9:	1f 84 00 00 00 00 00 
  403500:	48 8d 7e 01          	lea    0x1(%rsi),%rdi
  403504:	41 89 3c f6          	mov    %edi,(%r14,%rsi,8)
  403508:	48 39 d7             	cmp    %rdx,%rdi
  40350b:	48 89 fe             	mov    %rdi,%rsi
  40350e:	72 f0                	jb     403500 <create_relation_fk+0x350>
  403510:	ff cb                	dec    %ebx
  403512:	45 31 ff             	xor    %r15d,%r15d
  403515:	85 db                	test   %ebx,%ebx
  403517:	7e 78                	jle    403591 <create_relation_fk+0x3e1>
  403519:	48 63 d3             	movslq %ebx,%rdx
  40351c:	48 01 d1             	add    %rdx,%rcx
  40351f:	48 8d 2c c8          	lea    (%rax,%rcx,8),%rbp
  403523:	66 66 66 66 2e 0f 1f 	data16 data16 data16 nopw %cs:0x0(%rax,%rax,1)
  40352a:	84 00 00 00 00 00 
  403530:	e8 bb dd ff ff       	callq  4012f0 <rand@plt>
  403535:	0f 57 c0             	xorps  %xmm0,%xmm0
  403538:	f2 0f 2a c0          	cvtsi2sd %eax,%xmm0
  40353c:	f2 0f 59 05 54 4a 00 	mulsd  0x4a54(%rip),%xmm0        # 407f98 <_IO_stdin_used+0xe88>
  403543:	00 
  403544:	0f 57 c9             	xorps  %xmm1,%xmm1
  403547:	f2 0f 2a cb          	cvtsi2sd %ebx,%xmm1
  40354b:	f2 0f 59 c8          	mulsd  %xmm0,%xmm1
  40354f:	f2 0f 2c c1          	cvttsd2si %xmm1,%eax
  403553:	8b 4d 00             	mov    0x0(%rbp),%ecx
  403556:	48 98                	cltq   
  403558:	41 8b 14 c6          	mov    (%r14,%rax,8),%edx
  40355c:	89 55 00             	mov    %edx,0x0(%rbp)
  40355f:	41 89 0c c6          	mov    %ecx,(%r14,%rax,8)
  403563:	ff cb                	dec    %ebx
  403565:	48 83 c5 f8          	add    $0xfffffffffffffff8,%rbp
  403569:	85 db                	test   %ebx,%ebx
  40356b:	7f c3                	jg     403530 <create_relation_fk+0x380>
  40356d:	eb 22                	jmp    403591 <create_relation_fk+0x3e1>
  40356f:	bf c0 7f 40 00       	mov    $0x407fc0,%edi
  403574:	e8 d7 dc ff ff       	callq  401250 <perror@plt>
  403579:	48 c7 45 00 00 00 00 	movq   $0x0,0x0(%rbp)
  403580:	00 
  403581:	bf d8 7f 40 00       	mov    $0x407fd8,%edi
  403586:	e8 c5 dc ff ff       	callq  401250 <perror@plt>
  40358b:	41 bf ff ff ff ff    	mov    $0xffffffff,%r15d
  403591:	44 89 f8             	mov    %r15d,%eax
  403594:	48 83 c4 58          	add    $0x58,%rsp
  403598:	5b                   	pop    %rbx
  403599:	41 5c                	pop    %r12
  40359b:	41 5d                	pop    %r13
  40359d:	41 5e                	pop    %r14
  40359f:	41 5f                	pop    %r15
  4035a1:	5d                   	pop    %rbp
  4035a2:	c3                   	retq   
  4035a3:	66 66 66 66 2e 0f 1f 	data16 data16 data16 nopw %cs:0x0(%rax,%rax,1)
  4035aa:	84 00 00 00 00 00 

00000000004035b0 <create_relation_fk_from_pk>:
  4035b0:	55                   	push   %rbp
  4035b1:	41 57                	push   %r15
  4035b3:	41 56                	push   %r14
  4035b5:	41 55                	push   %r13
  4035b7:	41 54                	push   %r12
  4035b9:	53                   	push   %rbx
  4035ba:	50                   	push   %rax
  4035bb:	41 89 d7             	mov    %edx,%r15d
  4035be:	49 89 f6             	mov    %rsi,%r14
  4035c1:	49 89 fd             	mov    %rdi,%r13
  4035c4:	49 63 c7             	movslq %r15d,%rax
  4035c7:	48 8d 14 c5 00 60 30 	lea    0x306000(,%rax,8),%rdx
  4035ce:	00 
  4035cf:	be 40 00 00 00       	mov    $0x40,%esi
  4035d4:	e8 d7 dc ff ff       	callq  4012b0 <posix_memalign@plt>
  4035d9:	85 c0                	test   %eax,%eax
  4035db:	0f 85 ef 00 00 00    	jne    4036d0 <create_relation_fk_from_pk+0x120>
  4035e1:	45 89 7d 08          	mov    %r15d,0x8(%r13)
  4035e5:	41 8b 4e 08          	mov    0x8(%r14),%ecx
  4035e9:	31 ed                	xor    %ebp,%ebp
  4035eb:	31 d2                	xor    %edx,%edx
  4035ed:	44 89 f8             	mov    %r15d,%eax
  4035f0:	f7 f1                	div    %ecx
  4035f2:	41 89 c4             	mov    %eax,%r12d
  4035f5:	45 85 e4             	test   %r12d,%r12d
  4035f8:	7e 4e                	jle    403648 <create_relation_fk_from_pk+0x98>
  4035fa:	49 8b 7d 00          	mov    0x0(%r13),%rdi
  4035fe:	49 8b 36             	mov    (%r14),%rsi
  403601:	48 8d 14 cd 00 00 00 	lea    0x0(,%rcx,8),%rdx
  403608:	00 
  403609:	e8 c2 db ff ff       	callq  4011d0 <memcpy@plt>
  40360e:	bd 01 00 00 00       	mov    $0x1,%ebp
  403613:	41 83 fc 01          	cmp    $0x1,%r12d
  403617:	74 2b                	je     403644 <create_relation_fk_from_pk+0x94>
  403619:	bd 01 00 00 00       	mov    $0x1,%ebp
  40361e:	66 90                	xchg   %ax,%ax
  403620:	41 8b 56 08          	mov    0x8(%r14),%edx
  403624:	49 8b 45 00          	mov    0x0(%r13),%rax
  403628:	89 d1                	mov    %edx,%ecx
  40362a:	0f af cd             	imul   %ebp,%ecx
  40362d:	48 8d 3c c8          	lea    (%rax,%rcx,8),%rdi
  403631:	49 8b 36             	mov    (%r14),%rsi
  403634:	48 c1 e2 03          	shl    $0x3,%rdx
  403638:	e8 93 db ff ff       	callq  4011d0 <memcpy@plt>
  40363d:	ff c5                	inc    %ebp
  40363f:	44 39 e5             	cmp    %r12d,%ebp
  403642:	7c dc                	jl     403620 <create_relation_fk_from_pk+0x70>
  403644:	41 8b 4e 08          	mov    0x8(%r14),%ecx
  403648:	31 d2                	xor    %edx,%edx
  40364a:	44 89 f8             	mov    %r15d,%eax
  40364d:	f7 f1                	div    %ecx
  40364f:	85 d2                	test   %edx,%edx
  403651:	7e 1a                	jle    40366d <create_relation_fk_from_pk+0xbd>
  403653:	49 8b 45 00          	mov    0x0(%r13),%rax
  403657:	0f af cd             	imul   %ebp,%ecx
  40365a:	48 8d 3c c8          	lea    (%rax,%rcx,8),%rdi
  40365e:	49 8b 36             	mov    (%r14),%rsi
  403661:	48 63 d2             	movslq %edx,%rdx
  403664:	48 c1 e2 03          	shl    $0x3,%rdx
  403668:	e8 63 db ff ff       	callq  4011d0 <memcpy@plt>
  40366d:	41 8b 6d 08          	mov    0x8(%r13),%ebp
  403671:	ff cd                	dec    %ebp
  403673:	85 ed                	test   %ebp,%ebp
  403675:	7e 48                	jle    4036bf <create_relation_fk_from_pk+0x10f>
  403677:	48 63 dd             	movslq %ebp,%rbx
  40367a:	48 c1 e3 03          	shl    $0x3,%rbx
  40367e:	66 90                	xchg   %ax,%ax
  403680:	e8 6b dc ff ff       	callq  4012f0 <rand@plt>
  403685:	0f 57 c0             	xorps  %xmm0,%xmm0
  403688:	f2 0f 2a c0          	cvtsi2sd %eax,%xmm0
  40368c:	f2 0f 59 05 04 49 00 	mulsd  0x4904(%rip),%xmm0        # 407f98 <_IO_stdin_used+0xe88>
  403693:	00 
  403694:	0f 57 c9             	xorps  %xmm1,%xmm1
  403697:	f2 0f 2a cd          	cvtsi2sd %ebp,%xmm1
  40369b:	f2 0f 59 c8          	mulsd  %xmm0,%xmm1
  40369f:	f2 0f 2c c1          	cvttsd2si %xmm1,%eax
  4036a3:	49 8b 4d 00          	mov    0x0(%r13),%rcx
  4036a7:	8b 14 19             	mov    (%rcx,%rbx,1),%edx
  4036aa:	48 98                	cltq   
  4036ac:	8b 34 c1             	mov    (%rcx,%rax,8),%esi
  4036af:	89 34 19             	mov    %esi,(%rcx,%rbx,1)
  4036b2:	89 14 c1             	mov    %edx,(%rcx,%rax,8)
  4036b5:	ff cd                	dec    %ebp
  4036b7:	48 83 c3 f8          	add    $0xfffffffffffffff8,%rbx
  4036bb:	85 ed                	test   %ebp,%ebp
  4036bd:	7f c1                	jg     403680 <create_relation_fk_from_pk+0xd0>
  4036bf:	31 c0                	xor    %eax,%eax
  4036c1:	48 83 c4 08          	add    $0x8,%rsp
  4036c5:	5b                   	pop    %rbx
  4036c6:	41 5c                	pop    %r12
  4036c8:	41 5d                	pop    %r13
  4036ca:	41 5e                	pop    %r14
  4036cc:	41 5f                	pop    %r15
  4036ce:	5d                   	pop    %rbp
  4036cf:	c3                   	retq   
  4036d0:	bf 24 80 40 00       	mov    $0x408024,%edi
  4036d5:	e8 76 db ff ff       	callq  401250 <perror@plt>
  4036da:	eb e3                	jmp    4036bf <create_relation_fk_from_pk+0x10f>
  4036dc:	0f 1f 40 00          	nopl   0x0(%rax)

00000000004036e0 <create_relation_nonunique>:
  4036e0:	55                   	push   %rbp
  4036e1:	41 57                	push   %r15
  4036e3:	41 56                	push   %r14
  4036e5:	53                   	push   %rbx
  4036e6:	48 83 ec 18          	sub    $0x18,%rsp
  4036ea:	41 89 d6             	mov    %edx,%r14d
  4036ed:	89 f5                	mov    %esi,%ebp
  4036ef:	48 89 fb             	mov    %rdi,%rbx
  4036f2:	8a 05 c4 70 20 00    	mov    0x2070c4(%rip),%al        # 60a7bc <seeded>
  4036f8:	84 c0                	test   %al,%al
  4036fa:	75 15                	jne    403711 <create_relation_nonunique+0x31>
  4036fc:	31 ff                	xor    %edi,%edi
  4036fe:	e8 dd da ff ff       	callq  4011e0 <time@plt>
  403703:	89 c7                	mov    %eax,%edi
  403705:	e8 66 da ff ff       	callq  401170 <srand@plt>
  40370a:	c6 05 ab 70 20 00 01 	movb   $0x1,0x2070ab(%rip)        # 60a7bc <seeded>
  403711:	89 6b 08             	mov    %ebp,0x8(%rbx)
  403714:	89 e8                	mov    %ebp,%eax
  403716:	48 8d 2c c5 00 60 30 	lea    0x306000(,%rax,8),%rbp
  40371d:	00 
  40371e:	48 8d 7c 24 08       	lea    0x8(%rsp),%rdi
  403723:	be 40 00 00 00       	mov    $0x40,%esi
  403728:	48 89 ea             	mov    %rbp,%rdx
  40372b:	e8 80 db ff ff       	callq  4012b0 <posix_memalign@plt>
  403730:	85 c0                	test   %eax,%eax
  403732:	0f 85 83 00 00 00    	jne    4037bb <create_relation_nonunique+0xdb>
  403738:	83 3d ad 78 20 00 00 	cmpl   $0x0,0x2078ad(%rip)        # 60afec <numalocalize>
  40373f:	74 16                	je     403757 <create_relation_nonunique+0x77>
  403741:	48 8b 7c 24 08       	mov    0x8(%rsp),%rdi
  403746:	48 c1 ed 03          	shr    $0x3,%rbp
  40374a:	8b 15 98 78 20 00    	mov    0x207898(%rip),%edx        # 60afe8 <nthreads>
  403750:	89 ee                	mov    %ebp,%esi
  403752:	e8 f9 ee ff ff       	callq  402650 <numa_localize>
  403757:	48 8b 44 24 08       	mov    0x8(%rsp),%rax
  40375c:	48 89 03             	mov    %rax,(%rbx)
  40375f:	48 85 c0             	test   %rax,%rax
  403762:	74 68                	je     4037cc <create_relation_nonunique+0xec>
  403764:	45 31 ff             	xor    %r15d,%r15d
  403767:	83 7b 08 00          	cmpl   $0x0,0x8(%rbx)
  40376b:	74 40                	je     4037ad <create_relation_nonunique+0xcd>
  40376d:	f2 41 0f 2a c6       	cvtsi2sd %r14d,%xmm0
  403772:	f2 0f 11 44 24 10    	movsd  %xmm0,0x10(%rsp)
  403778:	45 31 ff             	xor    %r15d,%r15d
  40377b:	31 ed                	xor    %ebp,%ebp
  40377d:	0f 1f 00             	nopl   (%rax)
  403780:	e8 6b db ff ff       	callq  4012f0 <rand@plt>
  403785:	0f 57 c0             	xorps  %xmm0,%xmm0
  403788:	f2 0f 2a c0          	cvtsi2sd %eax,%xmm0
  40378c:	f2 0f 59 05 04 48 00 	mulsd  0x4804(%rip),%xmm0        # 407f98 <_IO_stdin_used+0xe88>
  403793:	00 
  403794:	f2 0f 59 44 24 10    	mulsd  0x10(%rsp),%xmm0
  40379a:	f2 0f 2c c0          	cvttsd2si %xmm0,%eax
  40379e:	89 e9                	mov    %ebp,%ecx
  4037a0:	48 8b 13             	mov    (%rbx),%rdx
  4037a3:	89 04 ca             	mov    %eax,(%rdx,%rcx,8)
  4037a6:	ff c5                	inc    %ebp
  4037a8:	3b 6b 08             	cmp    0x8(%rbx),%ebp
  4037ab:	72 d3                	jb     403780 <create_relation_nonunique+0xa0>
  4037ad:	44 89 f8             	mov    %r15d,%eax
  4037b0:	48 83 c4 18          	add    $0x18,%rsp
  4037b4:	5b                   	pop    %rbx
  4037b5:	41 5e                	pop    %r14
  4037b7:	41 5f                	pop    %r15
  4037b9:	5d                   	pop    %rbp
  4037ba:	c3                   	retq   
  4037bb:	bf c0 7f 40 00       	mov    $0x407fc0,%edi
  4037c0:	e8 8b da ff ff       	callq  401250 <perror@plt>
  4037c5:	48 c7 03 00 00 00 00 	movq   $0x0,(%rbx)
  4037cc:	bf d8 7f 40 00       	mov    $0x407fd8,%edi
  4037d1:	e8 7a da ff ff       	callq  401250 <perror@plt>
  4037d6:	41 bf ff ff ff ff    	mov    $0xffffffff,%r15d
  4037dc:	eb cf                	jmp    4037ad <create_relation_nonunique+0xcd>
  4037de:	66 90                	xchg   %ax,%ax

00000000004037e0 <zipf_ggl>:
  4037e0:	53                   	push   %rbx
  4037e1:	48 89 fb             	mov    %rdi,%rbx
  4037e4:	f2 0f 10 03          	movsd  (%rbx),%xmm0
  4037e8:	f2 0f 59 05 b0 47 00 	mulsd  0x47b0(%rip),%xmm0        # 407fa0 <_IO_stdin_used+0xe90>
  4037ef:	00 
  4037f0:	f2 0f 10 0d b0 47 00 	movsd  0x47b0(%rip),%xmm1        # 407fa8 <_IO_stdin_used+0xe98>
  4037f7:	00 
  4037f8:	e8 43 d9 ff ff       	callq  401140 <fmod@plt>
  4037fd:	f2 0f 11 03          	movsd  %xmm0,(%rbx)
  403801:	f2 0f 58 05 a7 47 00 	addsd  0x47a7(%rip),%xmm0        # 407fb0 <_IO_stdin_used+0xea0>
  403808:	00 
  403809:	f2 0f 5e 05 a7 47 00 	divsd  0x47a7(%rip),%xmm0        # 407fb8 <_IO_stdin_used+0xea8>
  403810:	00 
  403811:	5b                   	pop    %rbx
  403812:	c3                   	retq   
  403813:	66 66 66 66 2e 0f 1f 	data16 data16 data16 nopw %cs:0x0(%rax,%rax,1)
  40381a:	84 00 00 00 00 00 

0000000000403820 <create_relation_zipf>:
  403820:	55                   	push   %rbp
  403821:	41 57                	push   %r15
  403823:	41 56                	push   %r14
  403825:	53                   	push   %rbx
  403826:	48 83 ec 18          	sub    $0x18,%rsp
  40382a:	f2 0f 11 44 24 10    	movsd  %xmm0,0x10(%rsp)
  403830:	41 89 d6             	mov    %edx,%r14d
  403833:	89 f5                	mov    %esi,%ebp
  403835:	49 89 ff             	mov    %rdi,%r15
  403838:	8a 05 7e 6f 20 00    	mov    0x206f7e(%rip),%al        # 60a7bc <seeded>
  40383e:	84 c0                	test   %al,%al
  403840:	75 15                	jne    403857 <create_relation_zipf+0x37>
  403842:	31 ff                	xor    %edi,%edi
  403844:	e8 97 d9 ff ff       	callq  4011e0 <time@plt>
  403849:	89 c7                	mov    %eax,%edi
  40384b:	e8 20 d9 ff ff       	callq  401170 <srand@plt>
  403850:	c6 05 65 6f 20 00 01 	movb   $0x1,0x206f65(%rip)        # 60a7bc <seeded>
  403857:	41 89 6f 08          	mov    %ebp,0x8(%r15)
  40385b:	89 e8                	mov    %ebp,%eax
  40385d:	48 8d 1c c5 00 60 30 	lea    0x306000(,%rax,8),%rbx
  403864:	00 
  403865:	48 8d 7c 24 08       	lea    0x8(%rsp),%rdi
  40386a:	be 40 00 00 00       	mov    $0x40,%esi
  40386f:	48 89 da             	mov    %rbx,%rdx
  403872:	e8 39 da ff ff       	callq  4012b0 <posix_memalign@plt>
  403877:	85 c0                	test   %eax,%eax
  403879:	75 4c                	jne    4038c7 <create_relation_zipf+0xa7>
  40387b:	83 3d 6a 77 20 00 00 	cmpl   $0x0,0x20776a(%rip)        # 60afec <numalocalize>
  403882:	74 16                	je     40389a <create_relation_zipf+0x7a>
  403884:	48 8b 7c 24 08       	mov    0x8(%rsp),%rdi
  403889:	48 c1 eb 03          	shr    $0x3,%rbx
  40388d:	8b 15 55 77 20 00    	mov    0x207755(%rip),%edx        # 60afe8 <nthreads>
  403893:	89 de                	mov    %ebx,%esi
  403895:	e8 b6 ed ff ff       	callq  402650 <numa_localize>
  40389a:	48 8b 44 24 08       	mov    0x8(%rsp),%rax
  40389f:	49 89 07             	mov    %rax,(%r15)
  4038a2:	48 85 c0             	test   %rax,%rax
  4038a5:	74 31                	je     4038d8 <create_relation_zipf+0xb8>
  4038a7:	89 ef                	mov    %ebp,%edi
  4038a9:	44 89 f6             	mov    %r14d,%esi
  4038ac:	f2 0f 10 44 24 10    	movsd  0x10(%rsp),%xmm0
  4038b2:	4c 89 fa             	mov    %r15,%rdx
  4038b5:	e8 46 00 00 00       	callq  403900 <gen_zipf>
  4038ba:	31 c0                	xor    %eax,%eax
  4038bc:	48 83 c4 18          	add    $0x18,%rsp
  4038c0:	5b                   	pop    %rbx
  4038c1:	41 5e                	pop    %r14
  4038c3:	41 5f                	pop    %r15
  4038c5:	5d                   	pop    %rbp
  4038c6:	c3                   	retq   
  4038c7:	bf c0 7f 40 00       	mov    $0x407fc0,%edi
  4038cc:	e8 7f d9 ff ff       	callq  401250 <perror@plt>
  4038d1:	49 c7 07 00 00 00 00 	movq   $0x0,(%r15)
  4038d8:	bf d8 7f 40 00       	mov    $0x407fd8,%edi
  4038dd:	e8 6e d9 ff ff       	callq  401250 <perror@plt>
  4038e2:	b8 ff ff ff ff       	mov    $0xffffffff,%eax
  4038e7:	eb d3                	jmp    4038bc <create_relation_zipf+0x9c>
  4038e9:	0f 1f 80 00 00 00 00 	nopl   0x0(%rax)

00000000004038f0 <delete_relation>:
  4038f0:	48 8b 3f             	mov    (%rdi),%rdi
  4038f3:	e9 38 d7 ff ff       	jmpq   401030 <free@plt>
  4038f8:	0f 1f 84 00 00 00 00 	nopl   0x0(%rax,%rax,1)
  4038ff:	00 

0000000000403900 <gen_zipf>:
  403900:	55                   	push   %rbp
  403901:	41 57                	push   %r15
  403903:	41 56                	push   %r14
  403905:	41 55                	push   %r13
  403907:	41 54                	push   %r12
  403909:	53                   	push   %rbx
  40390a:	48 83 ec 28          	sub    $0x28,%rsp
  40390e:	48 89 54 24 18       	mov    %rdx,0x18(%rsp)
  403913:	f2 0f 11 44 24 20    	movsd  %xmm0,0x20(%rsp)
  403919:	89 f3                	mov    %esi,%ebx
  40391b:	41 89 fd             	mov    %edi,%r13d
  40391e:	89 d8                	mov    %ebx,%eax
  403920:	48 89 04 24          	mov    %rax,(%rsp)
  403924:	48 8d 3c 85 00 00 00 	lea    0x0(,%rax,4),%rdi
  40392b:	00 
  40392c:	e8 cf d8 ff ff       	callq  401200 <malloc@plt>
  403931:	49 89 c7             	mov    %rax,%r15
  403934:	4d 85 ff             	test   %r15,%r15
  403937:	0f 84 42 04 00 00    	je     403d7f <gen_zipf+0x47f>
  40393d:	b8 ff ff ff ff       	mov    $0xffffffff,%eax
  403942:	48 89 5c 24 08       	mov    %rbx,0x8(%rsp)
  403947:	85 db                	test   %ebx,%ebx
  403949:	0f 84 e3 01 00 00    	je     403b32 <gen_zipf+0x232>
  40394f:	48 8b 6c 24 08       	mov    0x8(%rsp),%rbp
  403954:	8d 45 ff             	lea    -0x1(%rbp),%eax
  403957:	48 ff c0             	inc    %rax
  40395a:	31 d2                	xor    %edx,%edx
  40395c:	48 83 f8 07          	cmp    $0x7,%rax
  403960:	0f 86 a5 01 00 00    	jbe    403b0b <gen_zipf+0x20b>
  403966:	31 d2                	xor    %edx,%edx
  403968:	48 b9 f8 ff ff ff 01 	movabs $0x1fffffff8,%rcx
  40396f:	00 00 00 
  403972:	48 21 c1             	and    %rax,%rcx
  403975:	0f 84 90 01 00 00    	je     403b0b <gen_zipf+0x20b>
  40397b:	48 8d 79 f8          	lea    -0x8(%rcx),%rdi
  40397f:	48 c1 ef 03          	shr    $0x3,%rdi
  403983:	8d 57 01             	lea    0x1(%rdi),%edx
  403986:	83 e2 01             	and    $0x1,%edx
  403989:	be 01 00 00 00       	mov    $0x1,%esi
  40398e:	48 85 ff             	test   %rdi,%rdi
  403991:	0f 84 03 01 00 00    	je     403a9a <gen_zipf+0x19a>
  403997:	48 8d 72 ff          	lea    -0x1(%rdx),%rsi
  40399b:	48 29 fe             	sub    %rdi,%rsi
  40399e:	bf 01 00 00 00       	mov    $0x1,%edi
  4039a3:	66 48 0f 6e ef       	movq   %rdi,%xmm5
  4039a8:	66 0f 73 fd 08       	pslldq $0x8,%xmm5
  4039ad:	66 0f 6f 35 9b 46 00 	movdqa 0x469b(%rip),%xmm6        # 408050 <_IO_stdin_used+0xf40>
  4039b4:	00 
  4039b5:	66 44 0f 6f 05 a2 46 	movdqa 0x46a2(%rip),%xmm8        # 408060 <_IO_stdin_used+0xf50>
  4039bc:	00 00 
  4039be:	66 44 0f 6f 0d a9 46 	movdqa 0x46a9(%rip),%xmm9        # 408070 <_IO_stdin_used+0xf60>
  4039c5:	00 00 
  4039c7:	66 44 0f 6f 15 b0 46 	movdqa 0x46b0(%rip),%xmm10        # 408080 <_IO_stdin_used+0xf70>
  4039ce:	00 00 
  4039d0:	66 0f 6f 1d b8 46 00 	movdqa 0x46b8(%rip),%xmm3        # 408090 <_IO_stdin_used+0xf80>
  4039d7:	00 
  4039d8:	66 0f 6f 25 c0 46 00 	movdqa 0x46c0(%rip),%xmm4        # 4080a0 <_IO_stdin_used+0xf90>
  4039df:	00 
  4039e0:	66 0f 6f c6          	movdqa %xmm6,%xmm0
  4039e4:	66 41 0f d4 c0       	paddq  %xmm8,%xmm0
  4039e9:	66 0f 6f fd          	movdqa %xmm5,%xmm7
  4039ed:	66 41 0f d4 f8       	paddq  %xmm8,%xmm7
  4039f2:	66 0f 6f ce          	movdqa %xmm6,%xmm1
  4039f6:	66 41 0f d4 c9       	paddq  %xmm9,%xmm1
  4039fb:	66 0f 6f d5          	movdqa %xmm5,%xmm2
  4039ff:	66 41 0f d4 d1       	paddq  %xmm9,%xmm2
  403a04:	66 48 0f 7e ef       	movq   %xmm5,%rdi
  403a09:	66 0f 70 ff e8       	pshufd $0xe8,%xmm7,%xmm7
  403a0e:	66 0f 70 c0 e8       	pshufd $0xe8,%xmm0,%xmm0
  403a13:	66 0f 6c f8          	punpcklqdq %xmm0,%xmm7
  403a17:	66 0f 70 c2 e8       	pshufd $0xe8,%xmm2,%xmm0
  403a1c:	66 0f 70 c9 e8       	pshufd $0xe8,%xmm1,%xmm1
  403a21:	66 0f 6c c1          	punpcklqdq %xmm1,%xmm0
  403a25:	f3 41 0f 7f 3c bf    	movdqu %xmm7,(%r15,%rdi,4)
  403a2b:	f3 41 0f 7f 44 bf 10 	movdqu %xmm0,0x10(%r15,%rdi,4)
  403a32:	66 0f 6f fd          	movdqa %xmm5,%xmm7
  403a36:	66 41 0f d4 fa       	paddq  %xmm10,%xmm7
  403a3b:	66 0f 6f c6          	movdqa %xmm6,%xmm0
  403a3f:	66 41 0f d4 c2       	paddq  %xmm10,%xmm0
  403a44:	66 0f 6f ce          	movdqa %xmm6,%xmm1
  403a48:	66 0f d4 cb          	paddq  %xmm3,%xmm1
  403a4c:	66 0f 6f d5          	movdqa %xmm5,%xmm2
  403a50:	66 0f d4 d3          	paddq  %xmm3,%xmm2
  403a54:	66 0f d4 f4          	paddq  %xmm4,%xmm6
  403a58:	66 0f d4 ec          	paddq  %xmm4,%xmm5
  403a5c:	66 0f 70 d2 e8       	pshufd $0xe8,%xmm2,%xmm2
  403a61:	66 0f 70 c9 e8       	pshufd $0xe8,%xmm1,%xmm1
  403a66:	66 0f 6c d1          	punpcklqdq %xmm1,%xmm2
  403a6a:	66 0f 70 cd e8       	pshufd $0xe8,%xmm5,%xmm1
  403a6f:	66 0f 70 ee e8       	pshufd $0xe8,%xmm6,%xmm5
  403a74:	66 0f 6c cd          	punpcklqdq %xmm5,%xmm1
  403a78:	f3 41 0f 7f 54 bf 20 	movdqu %xmm2,0x20(%r15,%rdi,4)
  403a7f:	f3 41 0f 7f 4c bf 30 	movdqu %xmm1,0x30(%r15,%rdi,4)
  403a86:	48 83 c6 02          	add    $0x2,%rsi
  403a8a:	66 0f 6f ef          	movdqa %xmm7,%xmm5
  403a8e:	66 0f 6f f0          	movdqa %xmm0,%xmm6
  403a92:	0f 85 48 ff ff ff    	jne    4039e0 <gen_zipf+0xe0>
  403a98:	eb 12                	jmp    403aac <gen_zipf+0x1ac>
  403a9a:	66 48 0f 6e fe       	movq   %rsi,%xmm7
  403a9f:	66 0f 73 ff 08       	pslldq $0x8,%xmm7
  403aa4:	66 0f 6f 05 a4 45 00 	movdqa 0x45a4(%rip),%xmm0        # 408050 <_IO_stdin_used+0xf40>
  403aab:	00 
  403aac:	48 85 d2             	test   %rdx,%rdx
  403aaf:	74 52                	je     403b03 <gen_zipf+0x203>
  403ab1:	66 0f 6f 0d a7 45 00 	movdqa 0x45a7(%rip),%xmm1        # 408060 <_IO_stdin_used+0xf50>
  403ab8:	00 
  403ab9:	66 0f 6f d0          	movdqa %xmm0,%xmm2
  403abd:	66 0f d4 d1          	paddq  %xmm1,%xmm2
  403ac1:	66 0f d4 cf          	paddq  %xmm7,%xmm1
  403ac5:	66 0f 6f 1d a3 45 00 	movdqa 0x45a3(%rip),%xmm3        # 408070 <_IO_stdin_used+0xf60>
  403acc:	00 
  403acd:	66 0f d4 c3          	paddq  %xmm3,%xmm0
  403ad1:	66 0f d4 df          	paddq  %xmm7,%xmm3
  403ad5:	66 48 0f 7e fa       	movq   %xmm7,%rdx
  403ada:	66 0f 70 c9 e8       	pshufd $0xe8,%xmm1,%xmm1
  403adf:	66 0f 70 d2 e8       	pshufd $0xe8,%xmm2,%xmm2
  403ae4:	66 0f 6c ca          	punpcklqdq %xmm2,%xmm1
  403ae8:	66 0f 70 d3 e8       	pshufd $0xe8,%xmm3,%xmm2
  403aed:	66 0f 70 c0 e8       	pshufd $0xe8,%xmm0,%xmm0
  403af2:	66 0f 6c d0          	punpcklqdq %xmm0,%xmm2
  403af6:	f3 41 0f 7f 0c 97    	movdqu %xmm1,(%r15,%rdx,4)
  403afc:	f3 41 0f 7f 54 97 10 	movdqu %xmm2,0x10(%r15,%rdx,4)
  403b03:	48 39 c8             	cmp    %rcx,%rax
  403b06:	48 89 ca             	mov    %rcx,%rdx
  403b09:	74 21                	je     403b2c <gen_zipf+0x22c>
  403b0b:	49 8d 04 97          	lea    (%r15,%rdx,4),%rax
  403b0f:	89 e9                	mov    %ebp,%ecx
  403b11:	29 d1                	sub    %edx,%ecx
  403b13:	ff c2                	inc    %edx
  403b15:	66 66 2e 0f 1f 84 00 	data16 nopw %cs:0x0(%rax,%rax,1)
  403b1c:	00 00 00 00 
  403b20:	89 10                	mov    %edx,(%rax)
  403b22:	48 83 c0 04          	add    $0x4,%rax
  403b26:	ff c2                	inc    %edx
  403b28:	ff c9                	dec    %ecx
  403b2a:	75 f4                	jne    403b20 <gen_zipf+0x220>
  403b2c:	89 e8                	mov    %ebp,%eax
  403b2e:	ff c8                	dec    %eax
  403b30:	74 57                	je     403b89 <gen_zipf+0x289>
  403b32:	89 c5                	mov    %eax,%ebp
  403b34:	49 be 05 00 00 00 02 	movabs $0x200000005,%r14
  403b3b:	00 00 00 
  403b3e:	49 bc fc ff ff ff 03 	movabs $0x3fffffffc,%r12
  403b45:	00 00 00 
  403b48:	0f 1f 84 00 00 00 00 	nopl   0x0(%rax,%rax,1)
  403b4f:	00 
  403b50:	e8 9b d7 ff ff       	callq  4012f0 <rand@plt>
  403b55:	48 63 c8             	movslq %eax,%rcx
  403b58:	48 0f af cd          	imul   %rbp,%rcx
  403b5c:	48 89 c8             	mov    %rcx,%rax
  403b5f:	49 f7 e6             	mul    %r14
  403b62:	48 29 d1             	sub    %rdx,%rcx
  403b65:	48 d1 e9             	shr    %rcx
  403b68:	48 01 d1             	add    %rdx,%rcx
  403b6b:	48 c1 e9 1c          	shr    $0x1c,%rcx
  403b6f:	41 8b 04 af          	mov    (%r15,%rbp,4),%eax
  403b73:	4c 21 e1             	and    %r12,%rcx
  403b76:	41 8b 14 0f          	mov    (%r15,%rcx,1),%edx
  403b7a:	41 89 14 af          	mov    %edx,(%r15,%rbp,4)
  403b7e:	41 89 04 0f          	mov    %eax,(%r15,%rcx,1)
  403b82:	48 ff cd             	dec    %rbp
  403b85:	85 ed                	test   %ebp,%ebp
  403b87:	75 c7                	jne    403b50 <gen_zipf+0x250>
  403b89:	48 8b 3c 24          	mov    (%rsp),%rdi
  403b8d:	48 c1 e7 03          	shl    $0x3,%rdi
  403b91:	e8 6a d6 ff ff       	callq  401200 <malloc@plt>
  403b96:	48 89 c5             	mov    %rax,%rbp
  403b99:	48 85 ed             	test   %rbp,%rbp
  403b9c:	0f 84 f6 01 00 00    	je     403d98 <gen_zipf+0x498>
  403ba2:	4c 8b 74 24 08       	mov    0x8(%rsp),%r14
  403ba7:	45 85 f6             	test   %r14d,%r14d
  403baa:	0f 84 b6 00 00 00    	je     403c66 <gen_zipf+0x366>
  403bb0:	66 0f ef c9          	pxor   %xmm1,%xmm1
  403bb4:	bb 01 00 00 00       	mov    $0x1,%ebx
  403bb9:	0f 1f 80 00 00 00 00 	nopl   0x0(%rax)
  403bc0:	f2 0f 11 0c 24       	movsd  %xmm1,(%rsp)
  403bc5:	89 d8                	mov    %ebx,%eax
  403bc7:	0f 57 c0             	xorps  %xmm0,%xmm0
  403bca:	f2 48 0f 2a c0       	cvtsi2sd %rax,%xmm0
  403bcf:	f2 0f 10 4c 24 20    	movsd  0x20(%rsp),%xmm1
  403bd5:	e8 56 d5 ff ff       	callq  401130 <pow@plt>
  403bda:	f2 0f 10 0d ce 44 00 	movsd  0x44ce(%rip),%xmm1        # 4080b0 <_IO_stdin_used+0xfa0>
  403be1:	00 
  403be2:	f2 0f 5e c8          	divsd  %xmm0,%xmm1
  403be6:	f2 0f 10 04 24       	movsd  (%rsp),%xmm0
  403beb:	f2 0f 58 c1          	addsd  %xmm1,%xmm0
  403bef:	f2 0f 11 04 24       	movsd  %xmm0,(%rsp)
  403bf4:	f2 0f 10 0c 24       	movsd  (%rsp),%xmm1
  403bf9:	ff c3                	inc    %ebx
  403bfb:	44 39 f3             	cmp    %r14d,%ebx
  403bfe:	76 c0                	jbe    403bc0 <gen_zipf+0x2c0>
  403c00:	66 0f 57 c9          	xorpd  %xmm1,%xmm1
  403c04:	bb 01 00 00 00       	mov    $0x1,%ebx
  403c09:	0f 1f 80 00 00 00 00 	nopl   0x0(%rax)
  403c10:	f2 0f 11 4c 24 10    	movsd  %xmm1,0x10(%rsp)
  403c16:	89 d8                	mov    %ebx,%eax
  403c18:	0f 57 c0             	xorps  %xmm0,%xmm0
  403c1b:	f2 48 0f 2a c0       	cvtsi2sd %rax,%xmm0
  403c20:	f2 0f 10 4c 24 20    	movsd  0x20(%rsp),%xmm1
  403c26:	e8 05 d5 ff ff       	callq  401130 <pow@plt>
  403c2b:	f2 0f 10 0d 7d 44 00 	movsd  0x447d(%rip),%xmm1        # 4080b0 <_IO_stdin_used+0xfa0>
  403c32:	00 
  403c33:	f2 0f 5e c8          	divsd  %xmm0,%xmm1
  403c37:	f2 0f 10 44 24 10    	movsd  0x10(%rsp),%xmm0
  403c3d:	f2 0f 58 c1          	addsd  %xmm1,%xmm0
  403c41:	f2 0f 11 44 24 10    	movsd  %xmm0,0x10(%rsp)
  403c47:	f2 0f 10 4c 24 10    	movsd  0x10(%rsp),%xmm1
  403c4d:	66 0f 28 c1          	movapd %xmm1,%xmm0
  403c51:	f2 0f 5e 04 24       	divsd  (%rsp),%xmm0
  403c56:	8d 43 ff             	lea    -0x1(%rbx),%eax
  403c59:	f2 0f 11 44 c5 00    	movsd  %xmm0,0x0(%rbp,%rax,8)
  403c5f:	ff c3                	inc    %ebx
  403c61:	44 39 f3             	cmp    %r14d,%ebx
  403c64:	76 aa                	jbe    403c10 <gen_zipf+0x310>
  403c66:	48 8b 44 24 18       	mov    0x18(%rsp),%rax
  403c6b:	4c 8b 20             	mov    (%rax),%r12
  403c6e:	4d 85 e4             	test   %r12,%r12
  403c71:	75 18                	jne    403c8b <gen_zipf+0x38b>
  403c73:	44 89 ef             	mov    %r13d,%edi
  403c76:	48 c1 e7 03          	shl    $0x3,%rdi
  403c7a:	e8 81 d5 ff ff       	callq  401200 <malloc@plt>
  403c7f:	49 89 c4             	mov    %rax,%r12
  403c82:	4d 85 e4             	test   %r12,%r12
  403c85:	0f 84 26 01 00 00    	je     403db1 <gen_zipf+0x4b1>
  403c8b:	45 85 ed             	test   %r13d,%r13d
  403c8e:	0f 84 c1 00 00 00    	je     403d55 <gen_zipf+0x455>
  403c94:	48 8b 44 24 08       	mov    0x8(%rsp),%rax
  403c99:	ff c8                	dec    %eax
  403c9b:	f2 0f 10 45 00       	movsd  0x0(%rbp),%xmm0
  403ca0:	f2 0f 11 04 24       	movsd  %xmm0,(%rsp)
  403ca5:	83 f8 02             	cmp    $0x2,%eax
  403ca8:	72 64                	jb     403d0e <gen_zipf+0x40e>
  403caa:	48 89 c3             	mov    %rax,%rbx
  403cad:	45 31 f6             	xor    %r14d,%r14d
  403cb0:	e8 3b d6 ff ff       	callq  4012f0 <rand@plt>
  403cb5:	0f 57 c0             	xorps  %xmm0,%xmm0
  403cb8:	f2 0f 2a c0          	cvtsi2sd %eax,%xmm0
  403cbc:	f2 0f 5e 05 e4 42 00 	divsd  0x42e4(%rip),%xmm0        # 407fa8 <_IO_stdin_used+0xe98>
  403cc3:	00 
  403cc4:	f2 0f 10 0c 24       	movsd  (%rsp),%xmm1
  403cc9:	66 0f 2e c8          	ucomisd %xmm0,%xmm1
  403ccd:	b8 00 00 00 00       	mov    $0x0,%eax
  403cd2:	73 26                	jae    403cfa <gen_zipf+0x3fa>
  403cd4:	31 c9                	xor    %ecx,%ecx
  403cd6:	89 d8                	mov    %ebx,%eax
  403cd8:	0f 1f 84 00 00 00 00 	nopl   0x0(%rax,%rax,1)
  403cdf:	00 
  403ce0:	8d 14 08             	lea    (%rax,%rcx,1),%edx
  403ce3:	d1 ea                	shr    %edx
  403ce5:	66 0f 2e 44 d5 00    	ucomisd 0x0(%rbp,%rdx,8),%xmm0
  403ceb:	0f 47 ca             	cmova  %edx,%ecx
  403cee:	0f 46 c2             	cmovbe %edx,%eax
  403cf1:	89 c2                	mov    %eax,%edx
  403cf3:	29 ca                	sub    %ecx,%edx
  403cf5:	83 fa 01             	cmp    $0x1,%edx
  403cf8:	77 e6                	ja     403ce0 <gen_zipf+0x3e0>
  403cfa:	89 c0                	mov    %eax,%eax
  403cfc:	41 8b 04 87          	mov    (%r15,%rax,4),%eax
  403d00:	43 89 04 f4          	mov    %eax,(%r12,%r14,8)
  403d04:	49 ff c6             	inc    %r14
  403d07:	45 39 ee             	cmp    %r13d,%r14d
  403d0a:	75 a4                	jne    403cb0 <gen_zipf+0x3b0>
  403d0c:	eb 47                	jmp    403d55 <gen_zipf+0x455>
  403d0e:	41 89 c6             	mov    %eax,%r14d
  403d11:	4c 89 e3             	mov    %r12,%rbx
  403d14:	66 66 66 2e 0f 1f 84 	data16 data16 nopw %cs:0x0(%rax,%rax,1)
  403d1b:	00 00 00 00 00 
  403d20:	e8 cb d5 ff ff       	callq  4012f0 <rand@plt>
  403d25:	0f 57 c0             	xorps  %xmm0,%xmm0
  403d28:	f2 0f 2a c0          	cvtsi2sd %eax,%xmm0
  403d2c:	f2 0f 5e 05 74 42 00 	divsd  0x4274(%rip),%xmm0        # 407fa8 <_IO_stdin_used+0xe98>
  403d33:	00 
  403d34:	f2 0f 10 0c 24       	movsd  (%rsp),%xmm1
  403d39:	66 0f 2e c8          	ucomisd %xmm0,%xmm1
  403d3d:	b8 00 00 00 00       	mov    $0x0,%eax
  403d42:	49 0f 42 c6          	cmovb  %r14,%rax
  403d46:	41 8b 04 87          	mov    (%r15,%rax,4),%eax
  403d4a:	89 03                	mov    %eax,(%rbx)
  403d4c:	48 83 c3 08          	add    $0x8,%rbx
  403d50:	41 ff cd             	dec    %r13d
  403d53:	75 cb                	jne    403d20 <gen_zipf+0x420>
  403d55:	48 89 ef             	mov    %rbp,%rdi
  403d58:	e8 d3 d2 ff ff       	callq  401030 <free@plt>
  403d5d:	4c 89 ff             	mov    %r15,%rdi
  403d60:	e8 cb d2 ff ff       	callq  401030 <free@plt>
  403d65:	48 8b 44 24 18       	mov    0x18(%rsp),%rax
  403d6a:	4c 89 20             	mov    %r12,(%rax)
  403d6d:	4c 89 e0             	mov    %r12,%rax
  403d70:	48 83 c4 28          	add    $0x28,%rsp
  403d74:	5b                   	pop    %rbx
  403d75:	41 5c                	pop    %r12
  403d77:	41 5d                	pop    %r13
  403d79:	41 5e                	pop    %r14
  403d7b:	41 5f                	pop    %r15
  403d7d:	5d                   	pop    %rbp
  403d7e:	c3                   	retq   
  403d7f:	bf b8 80 40 00       	mov    $0x4080b8,%edi
  403d84:	be c1 80 40 00       	mov    $0x4080c1,%esi
  403d89:	ba 23 00 00 00       	mov    $0x23,%edx
  403d8e:	b9 1a 81 40 00       	mov    $0x40811a,%ecx
  403d93:	e8 78 d3 ff ff       	callq  401110 <__assert_fail@plt>
  403d98:	bf 12 81 40 00       	mov    $0x408112,%edi
  403d9d:	be c1 80 40 00       	mov    $0x4080c1,%esi
  403da2:	ba 45 00 00 00       	mov    $0x45,%edx
  403da7:	b9 3f 81 40 00       	mov    $0x40813f,%ecx
  403dac:	e8 5f d3 ff ff       	callq  401110 <__assert_fail@plt>
  403db1:	bf 16 81 40 00       	mov    $0x408116,%edi
  403db6:	be c1 80 40 00       	mov    $0x4080c1,%esi
  403dbb:	ba 75 00 00 00       	mov    $0x75,%edx
  403dc0:	b9 d2 80 40 00       	mov    $0x4080d2,%ecx
  403dc5:	e8 46 d3 ff ff       	callq  401110 <__assert_fail@plt>
  403dca:	66 0f 1f 44 00 00    	nopw   0x0(%rax,%rax,1)

0000000000403dd0 <PCM_initPerformanceMonitor>:
  403dd0:	c3                   	retq   
  403dd1:	66 66 66 66 66 66 2e 	data16 data16 data16 data16 data16 nopw %cs:0x0(%rax,%rax,1)
  403dd8:	0f 1f 84 00 00 00 00 
  403ddf:	00 

0000000000403de0 <PCM_start>:
  403de0:	c3                   	retq   
  403de1:	66 66 66 66 66 66 2e 	data16 data16 data16 data16 data16 nopw %cs:0x0(%rax,%rax,1)
  403de8:	0f 1f 84 00 00 00 00 
  403def:	00 

0000000000403df0 <PCM_stop>:
  403df0:	c3                   	retq   
  403df1:	66 66 66 66 66 66 2e 	data16 data16 data16 data16 data16 nopw %cs:0x0(%rax,%rax,1)
  403df8:	0f 1f 84 00 00 00 00 
  403dff:	00 

0000000000403e00 <PCM_printResults>:
  403e00:	c3                   	retq   
  403e01:	66 66 66 66 66 66 2e 	data16 data16 data16 data16 data16 nopw %cs:0x0(%rax,%rax,1)
  403e08:	0f 1f 84 00 00 00 00 
  403e0f:	00 

0000000000403e10 <PCM_cleanup>:
  403e10:	c3                   	retq   
  403e11:	66 66 66 66 66 66 2e 	data16 data16 data16 data16 data16 nopw %cs:0x0(%rax,%rax,1)
  403e18:	0f 1f 84 00 00 00 00 
  403e1f:	00 

0000000000403e20 <PCM_accumulate>:
  403e20:	c3                   	retq   
  403e21:	66 66 66 66 66 66 2e 	data16 data16 data16 data16 data16 nopw %cs:0x0(%rax,%rax,1)
  403e28:	0f 1f 84 00 00 00 00 
  403e2f:	00 

0000000000403e30 <PCM_printAccumulators>:
  403e30:	c3                   	retq   
  403e31:	66 66 66 66 66 66 2e 	data16 data16 data16 data16 data16 nopw %cs:0x0(%rax,%rax,1)
  403e38:	0f 1f 84 00 00 00 00 
  403e3f:	00 

0000000000403e40 <PCM_log>:
  403e40:	c3                   	retq   
  403e41:	66 2e 0f 1f 84 00 00 	nopw   %cs:0x0(%rax,%rax,1)
  403e48:	00 00 00 
  403e4b:	0f 1f 44 00 00       	nopl   0x0(%rax,%rax,1)

0000000000403e50 <get_cpu_id>:
  403e50:	55                   	push   %rbp
  403e51:	41 57                	push   %r15
  403e53:	41 56                	push   %r14
  403e55:	53                   	push   %rbx
  403e56:	50                   	push   %rax
  403e57:	41 89 fe             	mov    %edi,%r14d
  403e5a:	8a 05 60 69 20 00    	mov    0x206960(%rip),%al        # 60a7c0 <inited>
  403e60:	84 c0                	test   %al,%al
  403e62:	0f 85 5e 02 00 00    	jne    4040c6 <get_cpu_id+0x276>
  403e68:	bf 00 82 40 00       	mov    $0x408200,%edi
  403e6d:	be 10 82 40 00       	mov    $0x408210,%esi
  403e72:	e8 c9 d3 ff ff       	callq  401240 <fopen@plt>
  403e77:	49 89 c7             	mov    %rax,%r15
  403e7a:	4d 85 ff             	test   %r15,%r15
  403e7d:	74 77                	je     403ef6 <get_cpu_id+0xa6>
  403e7f:	be 12 82 40 00       	mov    $0x408212,%esi
  403e84:	ba c4 a7 60 00       	mov    $0x60a7c4,%edx
  403e89:	31 c0                	xor    %eax,%eax
  403e8b:	4c 89 ff             	mov    %r15,%rdi
  403e8e:	e8 cd d1 ff ff       	callq  401060 <__isoc99_fscanf@plt>
  403e93:	85 c0                	test   %eax,%eax
  403e95:	0f 8e b6 00 00 00    	jle    403f51 <get_cpu_id+0x101>
  403e9b:	83 3d 22 69 20 00 00 	cmpl   $0x0,0x206922(%rip)        # 60a7c4 <max_cpus>
  403ea2:	7e 45                	jle    403ee9 <get_cpu_id+0x99>
  403ea4:	bd d0 a7 60 00       	mov    $0x60a7d0,%ebp
  403ea9:	31 db                	xor    %ebx,%ebx
  403eab:	eb 13                	jmp    403ec0 <get_cpu_id+0x70>
  403ead:	bf 15 82 40 00       	mov    $0x408215,%edi
  403eb2:	e8 99 d3 ff ff       	callq  401250 <perror@plt>
  403eb7:	eb 1d                	jmp    403ed6 <get_cpu_id+0x86>
  403eb9:	0f 1f 80 00 00 00 00 	nopl   0x0(%rax)
  403ec0:	be 12 82 40 00       	mov    $0x408212,%esi
  403ec5:	31 c0                	xor    %eax,%eax
  403ec7:	4c 89 ff             	mov    %r15,%rdi
  403eca:	48 89 ea             	mov    %rbp,%rdx
  403ecd:	e8 8e d1 ff ff       	callq  401060 <__isoc99_fscanf@plt>
  403ed2:	85 c0                	test   %eax,%eax
  403ed4:	7e d7                	jle    403ead <get_cpu_id+0x5d>
  403ed6:	48 ff c3             	inc    %rbx
  403ed9:	48 63 05 e4 68 20 00 	movslq 0x2068e4(%rip),%rax        # 60a7c4 <max_cpus>
  403ee0:	48 83 c5 04          	add    $0x4,%rbp
  403ee4:	48 39 c3             	cmp    %rax,%rbx
  403ee7:	7c d7                	jl     403ec0 <get_cpu_id+0x70>
  403ee9:	4c 89 ff             	mov    %r15,%rdi
  403eec:	e8 cf d1 ff ff       	callq  4010c0 <fclose@plt>
  403ef1:	e9 c9 01 00 00       	jmpq   4040bf <get_cpu_id+0x26f>
  403ef6:	bf 54 00 00 00       	mov    $0x54,%edi
  403efb:	e8 60 d3 ff ff       	callq  401260 <sysconf@plt>
  403f00:	89 05 be 68 20 00    	mov    %eax,0x2068be(%rip)        # 60a7c4 <max_cpus>
  403f06:	85 c0                	test   %eax,%eax
  403f08:	0f 8e b1 01 00 00    	jle    4040bf <get_cpu_id+0x26f>
  403f0e:	48 98                	cltq   
  403f10:	31 d2                	xor    %edx,%edx
  403f12:	48 83 f8 08          	cmp    $0x8,%rax
  403f16:	0f 82 94 01 00 00    	jb     4040b0 <get_cpu_id+0x260>
  403f1c:	31 d2                	xor    %edx,%edx
  403f1e:	48 89 c1             	mov    %rax,%rcx
  403f21:	48 83 e1 f8          	and    $0xfffffffffffffff8,%rcx
  403f25:	0f 84 85 01 00 00    	je     4040b0 <get_cpu_id+0x260>
  403f2b:	48 8d 79 f8          	lea    -0x8(%rcx),%rdi
  403f2f:	48 89 fd             	mov    %rdi,%rbp
  403f32:	48 c1 ed 03          	shr    $0x3,%rbp
  403f36:	8d 55 01             	lea    0x1(%rbp),%edx
  403f39:	83 e2 03             	and    $0x3,%edx
  403f3c:	31 f6                	xor    %esi,%esi
  403f3e:	48 83 ff 18          	cmp    $0x18,%rdi
  403f42:	73 1c                	jae    403f60 <get_cpu_id+0x110>
  403f44:	66 0f 6f 05 24 42 00 	movdqa 0x4224(%rip),%xmm0        # 408170 <_IO_stdin_used+0x1060>
  403f4b:	00 
  403f4c:	e9 05 01 00 00       	jmpq   404056 <get_cpu_id+0x206>
  403f51:	bf 15 82 40 00       	mov    $0x408215,%edi
  403f56:	e8 f5 d2 ff ff       	callq  401250 <perror@plt>
  403f5b:	e9 3b ff ff ff       	jmpq   403e9b <get_cpu_id+0x4b>
  403f60:	48 8d 7a ff          	lea    -0x1(%rdx),%rdi
  403f64:	48 29 ef             	sub    %rbp,%rdi
  403f67:	66 0f 6f 05 01 42 00 	movdqa 0x4201(%rip),%xmm0        # 408170 <_IO_stdin_used+0x1060>
  403f6e:	00 
  403f6f:	31 f6                	xor    %esi,%esi
  403f71:	66 44 0f 6f 05 06 42 	movdqa 0x4206(%rip),%xmm8        # 408180 <_IO_stdin_used+0x1070>
  403f78:	00 00 
  403f7a:	66 44 0f 6f 0d 0d 42 	movdqa 0x420d(%rip),%xmm9        # 408190 <_IO_stdin_used+0x1080>
  403f81:	00 00 
  403f83:	66 44 0f 6f 15 14 42 	movdqa 0x4214(%rip),%xmm10        # 4081a0 <_IO_stdin_used+0x1090>
  403f8a:	00 00 
  403f8c:	66 44 0f 6f 1d 1b 42 	movdqa 0x421b(%rip),%xmm11        # 4081b0 <_IO_stdin_used+0x10a0>
  403f93:	00 00 
  403f95:	66 0f 6f 2d 23 42 00 	movdqa 0x4223(%rip),%xmm5        # 4081c0 <_IO_stdin_used+0x10b0>
  403f9c:	00 
  403f9d:	66 0f 6f 35 2b 42 00 	movdqa 0x422b(%rip),%xmm6        # 4081d0 <_IO_stdin_used+0x10c0>
  403fa4:	00 
  403fa5:	66 0f 6f 3d 33 42 00 	movdqa 0x4233(%rip),%xmm7        # 4081e0 <_IO_stdin_used+0x10d0>
  403fac:	00 
  403fad:	66 0f 6f 0d 3b 42 00 	movdqa 0x423b(%rip),%xmm1        # 4081f0 <_IO_stdin_used+0x10e0>
  403fb4:	00 
  403fb5:	66 66 2e 0f 1f 84 00 	data16 nopw %cs:0x0(%rax,%rax,1)
  403fbc:	00 00 00 00 
  403fc0:	66 0f 6f d0          	movdqa %xmm0,%xmm2
  403fc4:	66 41 0f fe d0       	paddd  %xmm8,%xmm2
  403fc9:	66 0f 6f d8          	movdqa %xmm0,%xmm3
  403fcd:	66 41 0f fe d9       	paddd  %xmm9,%xmm3
  403fd2:	66 0f 7f 04 b5 d0 a7 	movdqa %xmm0,0x60a7d0(,%rsi,4)
  403fd9:	60 00 
  403fdb:	66 0f 7f 14 b5 e0 a7 	movdqa %xmm2,0x60a7e0(,%rsi,4)
  403fe2:	60 00 
  403fe4:	66 0f 6f d0          	movdqa %xmm0,%xmm2
  403fe8:	66 41 0f fe d2       	paddd  %xmm10,%xmm2
  403fed:	66 0f 6f e0          	movdqa %xmm0,%xmm4
  403ff1:	66 41 0f fe e3       	paddd  %xmm11,%xmm4
  403ff6:	66 0f 7f 1c b5 f0 a7 	movdqa %xmm3,0x60a7f0(,%rsi,4)
  403ffd:	60 00 
  403fff:	66 0f 7f 14 b5 00 a8 	movdqa %xmm2,0x60a800(,%rsi,4)
  404006:	60 00 
  404008:	66 0f 6f d0          	movdqa %xmm0,%xmm2
  40400c:	66 0f fe d5          	paddd  %xmm5,%xmm2
  404010:	66 0f 6f d8          	movdqa %xmm0,%xmm3
  404014:	66 0f fe de          	paddd  %xmm6,%xmm3
  404018:	66 0f 7f 24 b5 10 a8 	movdqa %xmm4,0x60a810(,%rsi,4)
  40401f:	60 00 
  404021:	66 0f 7f 14 b5 20 a8 	movdqa %xmm2,0x60a820(,%rsi,4)
  404028:	60 00 
  40402a:	66 0f 6f d0          	movdqa %xmm0,%xmm2
  40402e:	66 0f fe d7          	paddd  %xmm7,%xmm2
  404032:	66 0f fe c1          	paddd  %xmm1,%xmm0
  404036:	66 0f 7f 1c b5 30 a8 	movdqa %xmm3,0x60a830(,%rsi,4)
  40403d:	60 00 
  40403f:	66 0f 7f 14 b5 40 a8 	movdqa %xmm2,0x60a840(,%rsi,4)
  404046:	60 00 
  404048:	48 8d 76 20          	lea    0x20(%rsi),%rsi
  40404c:	48 83 c7 04          	add    $0x4,%rdi
  404050:	0f 85 6a ff ff ff    	jne    403fc0 <get_cpu_id+0x170>
  404056:	48 85 d2             	test   %rdx,%rdx
  404059:	74 43                	je     40409e <get_cpu_id+0x24e>
  40405b:	48 8d 34 b5 e0 a7 60 	lea    0x60a7e0(,%rsi,4),%rsi
  404062:	00 
  404063:	48 f7 da             	neg    %rdx
  404066:	66 0f 6f 0d 12 41 00 	movdqa 0x4112(%rip),%xmm1        # 408180 <_IO_stdin_used+0x1070>
  40406d:	00 
  40406e:	66 0f 6f 15 1a 41 00 	movdqa 0x411a(%rip),%xmm2        # 408190 <_IO_stdin_used+0x1080>
  404075:	00 
  404076:	66 2e 0f 1f 84 00 00 	nopw   %cs:0x0(%rax,%rax,1)
  40407d:	00 00 00 
  404080:	66 0f 6f d8          	movdqa %xmm0,%xmm3
  404084:	66 0f fe d9          	paddd  %xmm1,%xmm3
  404088:	66 0f 7f 46 f0       	movdqa %xmm0,-0x10(%rsi)
  40408d:	66 0f fe c2          	paddd  %xmm2,%xmm0
  404091:	66 0f 7f 1e          	movdqa %xmm3,(%rsi)
  404095:	48 83 c6 20          	add    $0x20,%rsi
  404099:	48 ff c2             	inc    %rdx
  40409c:	75 e2                	jne    404080 <get_cpu_id+0x230>
  40409e:	48 39 c8             	cmp    %rcx,%rax
  4040a1:	48 89 ca             	mov    %rcx,%rdx
  4040a4:	74 19                	je     4040bf <get_cpu_id+0x26f>
  4040a6:	66 2e 0f 1f 84 00 00 	nopw   %cs:0x0(%rax,%rax,1)
  4040ad:	00 00 00 
  4040b0:	89 14 95 d0 a7 60 00 	mov    %edx,0x60a7d0(,%rdx,4)
  4040b7:	48 ff c2             	inc    %rdx
  4040ba:	48 39 d0             	cmp    %rdx,%rax
  4040bd:	75 f1                	jne    4040b0 <get_cpu_id+0x260>
  4040bf:	c6 05 fa 66 20 00 01 	movb   $0x1,0x2066fa(%rip)        # 60a7c0 <inited>
  4040c6:	44 89 f0             	mov    %r14d,%eax
  4040c9:	99                   	cltd   
  4040ca:	f7 3d f4 66 20 00    	idivl  0x2066f4(%rip)        # 60a7c4 <max_cpus>
  4040d0:	48 63 c2             	movslq %edx,%rax
  4040d3:	8b 04 85 d0 a7 60 00 	mov    0x60a7d0(,%rax,4),%eax
  4040da:	48 83 c4 08          	add    $0x8,%rsp
  4040de:	5b                   	pop    %rbx
  4040df:	41 5e                	pop    %r14
  4040e1:	41 5f                	pop    %r15
  4040e3:	5d                   	pop    %rbp
  4040e4:	c3                   	retq   
  4040e5:	66 2e 0f 1f 84 00 00 	nopw   %cs:0x0(%rax,%rax,1)
  4040ec:	00 00 00 
  4040ef:	90                   	nop

00000000004040f0 <task_queue_init>:
  4040f0:	55                   	push   %rbp
  4040f1:	41 56                	push   %r14
  4040f3:	53                   	push   %rbx
  4040f4:	41 89 fe             	mov    %edi,%r14d
  4040f7:	bf 68 00 00 00       	mov    $0x68,%edi
  4040fc:	e8 ff d0 ff ff       	callq  401200 <malloc@plt>
  404101:	48 89 c3             	mov    %rax,%rbx
  404104:	bf 18 00 00 00       	mov    $0x18,%edi
  404109:	e8 f2 d0 ff ff       	callq  401200 <malloc@plt>
  40410e:	48 89 c5             	mov    %rax,%rbp
  404111:	48 89 6b 58          	mov    %rbp,0x58(%rbx)
  404115:	4d 63 f6             	movslq %r14d,%r14
  404118:	4a 8d 04 f5 00 00 00 	lea    0x0(,%r14,8),%rax
  40411f:	00 
  404120:	48 8d 3c c0          	lea    (%rax,%rax,8),%rdi
  404124:	e8 d7 d0 ff ff       	callq  401200 <malloc@plt>
  404129:	48 89 45 00          	mov    %rax,0x0(%rbp)
  40412d:	c7 45 10 00 00 00 00 	movl   $0x0,0x10(%rbp)
  404134:	48 c7 45 08 00 00 00 	movq   $0x0,0x8(%rbp)
  40413b:	00 
  40413c:	c7 43 60 00 00 00 00 	movl   $0x0,0x60(%rbx)
  404143:	44 89 73 64          	mov    %r14d,0x64(%rbx)
  404147:	48 c7 43 50 00 00 00 	movq   $0x0,0x50(%rbx)
  40414e:	00 
  40414f:	31 f6                	xor    %esi,%esi
  404151:	48 89 df             	mov    %rbx,%rdi
  404154:	e8 77 d1 ff ff       	callq  4012d0 <pthread_mutex_init@plt>
  404159:	48 8d 7b 28          	lea    0x28(%rbx),%rdi
  40415d:	31 f6                	xor    %esi,%esi
  40415f:	e8 6c d1 ff ff       	callq  4012d0 <pthread_mutex_init@plt>
  404164:	48 89 d8             	mov    %rbx,%rax
  404167:	5b                   	pop    %rbx
  404168:	41 5e                	pop    %r14
  40416a:	5d                   	pop    %rbp
  40416b:	c3                   	retq   
  40416c:	0f 1f 40 00          	nopl   0x0(%rax)

0000000000404170 <task_queue_free>:
  404170:	41 57                	push   %r15
  404172:	41 56                	push   %r14
  404174:	53                   	push   %rbx
  404175:	49 89 fe             	mov    %rdi,%r14
  404178:	49 8b 5e 58          	mov    0x58(%r14),%rbx
  40417c:	48 85 db             	test   %rbx,%rbx
  40417f:	74 2b                	je     4041ac <task_queue_free+0x3c>
  404181:	66 66 66 66 66 66 2e 	data16 data16 data16 data16 data16 nopw %cs:0x0(%rax,%rax,1)
  404188:	0f 1f 84 00 00 00 00 
  40418f:	00 
  404190:	48 8b 3b             	mov    (%rbx),%rdi
  404193:	e8 98 ce ff ff       	callq  401030 <free@plt>
  404198:	4c 8b 7b 08          	mov    0x8(%rbx),%r15
  40419c:	48 89 df             	mov    %rbx,%rdi
  40419f:	e8 8c ce ff ff       	callq  401030 <free@plt>
  4041a4:	4d 85 ff             	test   %r15,%r15
  4041a7:	4c 89 fb             	mov    %r15,%rbx
  4041aa:	75 e4                	jne    404190 <task_queue_free+0x20>
  4041ac:	4c 89 f7             	mov    %r14,%rdi
  4041af:	5b                   	pop    %rbx
  4041b0:	41 5e                	pop    %r14
  4041b2:	41 5f                	pop    %r15
  4041b4:	e9 77 ce ff ff       	jmpq   401030 <free@plt>
  4041b9:	0f 1f 80 00 00 00 00 	nopl   0x0(%rax)

00000000004041c0 <bucket_chaining_join>:
  4041c0:	55                   	push   %rbp
  4041c1:	41 57                	push   %r15
  4041c3:	41 56                	push   %r14
  4041c5:	41 55                	push   %r13
  4041c7:	41 54                	push   %r12
  4041c9:	53                   	push   %rbx
  4041ca:	50                   	push   %rax
  4041cb:	49 89 f6             	mov    %rsi,%r14
  4041ce:	49 89 fc             	mov    %rdi,%r12
  4041d1:	41 8b 6c 24 08       	mov    0x8(%r12),%ebp
  4041d6:	8d 45 ff             	lea    -0x1(%rbp),%eax
  4041d9:	89 c1                	mov    %eax,%ecx
  4041db:	d1 e9                	shr    %ecx
  4041dd:	09 c1                	or     %eax,%ecx
  4041df:	89 c8                	mov    %ecx,%eax
  4041e1:	c1 e8 02             	shr    $0x2,%eax
  4041e4:	09 c8                	or     %ecx,%eax
  4041e6:	89 c1                	mov    %eax,%ecx
  4041e8:	c1 e9 04             	shr    $0x4,%ecx
  4041eb:	09 c1                	or     %eax,%ecx
  4041ed:	89 c8                	mov    %ecx,%eax
  4041ef:	c1 e8 08             	shr    $0x8,%eax
  4041f2:	09 c8                	or     %ecx,%eax
  4041f4:	41 89 c5             	mov    %eax,%r13d
  4041f7:	41 c1 ed 10          	shr    $0x10,%r13d
  4041fb:	41 09 c5             	or     %eax,%r13d
  4041fe:	41 8d 5d 01          	lea    0x1(%r13),%ebx
  404202:	41 c1 e5 0e          	shl    $0xe,%r13d
  404206:	48 8d 3c ad 00 00 00 	lea    0x0(,%rbp,4),%rdi
  40420d:	00 
  40420e:	e8 ed cf ff ff       	callq  401200 <malloc@plt>
  404213:	49 89 c7             	mov    %rax,%r15
  404216:	be 04 00 00 00       	mov    $0x4,%esi
  40421b:	48 89 df             	mov    %rbx,%rdi
  40421e:	e8 6d cf ff ff       	callq  401190 <calloc@plt>
  404223:	48 85 ed             	test   %rbp,%rbp
  404226:	49 8b 0c 24          	mov    (%r12),%rcx
  40422a:	74 60                	je     40428c <bucket_chaining_join+0xcc>
  40422c:	89 ee                	mov    %ebp,%esi
  40422e:	83 e6 01             	and    $0x1,%esi
  404231:	31 d2                	xor    %edx,%edx
  404233:	83 fd 01             	cmp    $0x1,%ebp
  404236:	74 3b                	je     404273 <bucket_chaining_join+0xb3>
  404238:	29 f5                	sub    %esi,%ebp
  40423a:	31 d2                	xor    %edx,%edx
  40423c:	0f 1f 40 00          	nopl   0x0(%rax)
  404240:	8b 3c d1             	mov    (%rcx,%rdx,8),%edi
  404243:	44 21 ef             	and    %r13d,%edi
  404246:	c1 ef 0e             	shr    $0xe,%edi
  404249:	8b 1c b8             	mov    (%rax,%rdi,4),%ebx
  40424c:	41 89 1c 97          	mov    %ebx,(%r15,%rdx,4)
  404250:	8d 5a 01             	lea    0x1(%rdx),%ebx
  404253:	89 1c b8             	mov    %ebx,(%rax,%rdi,4)
  404256:	8b 7c d1 08          	mov    0x8(%rcx,%rdx,8),%edi
  40425a:	44 21 ef             	and    %r13d,%edi
  40425d:	c1 ef 0e             	shr    $0xe,%edi
  404260:	8b 1c b8             	mov    (%rax,%rdi,4),%ebx
  404263:	41 89 5c 97 04       	mov    %ebx,0x4(%r15,%rdx,4)
  404268:	48 83 c2 02          	add    $0x2,%rdx
  40426c:	89 14 b8             	mov    %edx,(%rax,%rdi,4)
  40426f:	39 d5                	cmp    %edx,%ebp
  404271:	75 cd                	jne    404240 <bucket_chaining_join+0x80>
  404273:	85 f6                	test   %esi,%esi
  404275:	74 15                	je     40428c <bucket_chaining_join+0xcc>
  404277:	8b 34 d1             	mov    (%rcx,%rdx,8),%esi
  40427a:	44 21 ee             	and    %r13d,%esi
  40427d:	c1 ee 0e             	shr    $0xe,%esi
  404280:	8b 3c b0             	mov    (%rax,%rsi,4),%edi
  404283:	41 89 3c 97          	mov    %edi,(%r15,%rdx,4)
  404287:	ff c2                	inc    %edx
  404289:	89 14 b0             	mov    %edx,(%rax,%rsi,4)
  40428c:	45 8b 46 08          	mov    0x8(%r14),%r8d
  404290:	31 db                	xor    %ebx,%ebx
  404292:	45 85 c0             	test   %r8d,%r8d
  404295:	74 4a                	je     4042e1 <bucket_chaining_join+0x121>
  404297:	4d 8b 0e             	mov    (%r14),%r9
  40429a:	31 ff                	xor    %edi,%edi
  40429c:	31 db                	xor    %ebx,%ebx
  40429e:	66 90                	xchg   %ax,%ax
  4042a0:	41 8b 2c f9          	mov    (%r9,%rdi,8),%ebp
  4042a4:	89 ea                	mov    %ebp,%edx
  4042a6:	44 21 ea             	and    %r13d,%edx
  4042a9:	c1 ea 0e             	shr    $0xe,%edx
  4042ac:	8b 14 90             	mov    (%rax,%rdx,4),%edx
  4042af:	eb 24                	jmp    4042d5 <bucket_chaining_join+0x115>
  4042b1:	66 66 66 66 66 66 2e 	data16 data16 data16 data16 data16 nopw %cs:0x0(%rax,%rax,1)
  4042b8:	0f 1f 84 00 00 00 00 
  4042bf:	00 
  4042c0:	48 63 d2             	movslq %edx,%rdx
  4042c3:	31 f6                	xor    %esi,%esi
  4042c5:	3b 6c d1 f8          	cmp    -0x8(%rcx,%rdx,8),%ebp
  4042c9:	40 0f 94 c6          	sete   %sil
  4042cd:	48 01 f3             	add    %rsi,%rbx
  4042d0:	41 8b 54 97 fc       	mov    -0x4(%r15,%rdx,4),%edx
  4042d5:	85 d2                	test   %edx,%edx
  4042d7:	7f e7                	jg     4042c0 <bucket_chaining_join+0x100>
  4042d9:	48 ff c7             	inc    %rdi
  4042dc:	44 39 c7             	cmp    %r8d,%edi
  4042df:	75 bf                	jne    4042a0 <bucket_chaining_join+0xe0>
  4042e1:	48 89 c7             	mov    %rax,%rdi
  4042e4:	e8 47 cd ff ff       	callq  401030 <free@plt>
  4042e9:	4c 89 ff             	mov    %r15,%rdi
  4042ec:	e8 3f cd ff ff       	callq  401030 <free@plt>
  4042f1:	48 89 d8             	mov    %rbx,%rax
  4042f4:	48 83 c4 08          	add    $0x8,%rsp
  4042f8:	5b                   	pop    %rbx
  4042f9:	41 5c                	pop    %r12
  4042fb:	41 5d                	pop    %r13
  4042fd:	41 5e                	pop    %r14
  4042ff:	41 5f                	pop    %r15
  404301:	5d                   	pop    %rbp
  404302:	c3                   	retq   
  404303:	66 66 66 66 2e 0f 1f 	data16 data16 data16 nopw %cs:0x0(%rax,%rax,1)
  40430a:	84 00 00 00 00 00 

0000000000404310 <histogram_join>:
  404310:	55                   	push   %rbp
  404311:	41 57                	push   %r15
  404313:	41 56                	push   %r14
  404315:	41 55                	push   %r13
  404317:	41 54                	push   %r12
  404319:	53                   	push   %rbx
  40431a:	50                   	push   %rax
  40431b:	49 89 d7             	mov    %rdx,%r15
  40431e:	48 89 34 24          	mov    %rsi,(%rsp)
  404322:	48 8b 1f             	mov    (%rdi),%rbx
  404325:	44 8b 67 08          	mov    0x8(%rdi),%r12d
  404329:	45 8d 74 24 ff       	lea    -0x1(%r12),%r14d
  40432e:	44 89 f0             	mov    %r14d,%eax
  404331:	d1 e8                	shr    %eax
  404333:	44 09 f0             	or     %r14d,%eax
  404336:	89 c1                	mov    %eax,%ecx
  404338:	c1 e9 02             	shr    $0x2,%ecx
  40433b:	09 c1                	or     %eax,%ecx
  40433d:	89 c8                	mov    %ecx,%eax
  40433f:	c1 e8 04             	shr    $0x4,%eax
  404342:	09 c8                	or     %ecx,%eax
  404344:	89 c1                	mov    %eax,%ecx
  404346:	c1 e9 08             	shr    $0x8,%ecx
  404349:	09 c1                	or     %eax,%ecx
  40434b:	89 c8                	mov    %ecx,%eax
  40434d:	c1 e8 10             	shr    $0x10,%eax
  404350:	09 c8                	or     %ecx,%eax
  404352:	ff c0                	inc    %eax
  404354:	c1 e8 02             	shr    $0x2,%eax
  404357:	83 f8 04             	cmp    $0x4,%eax
  40435a:	bd 04 00 00 00       	mov    $0x4,%ebp
  40435f:	0f 43 e8             	cmovae %eax,%ebp
  404362:	41 89 ed             	mov    %ebp,%r13d
  404365:	41 c1 e5 0e          	shl    $0xe,%r13d
  404369:	41 81 c5 00 c0 ff ff 	add    $0xffffc000,%r13d
  404370:	8d 7d 02             	lea    0x2(%rbp),%edi
  404373:	be 04 00 00 00       	mov    $0x4,%esi
  404378:	e8 13 ce ff ff       	callq  401190 <calloc@plt>
  40437d:	45 85 e4             	test   %r12d,%r12d
  404380:	74 58                	je     4043da <histogram_join+0xca>
  404382:	44 89 e1             	mov    %r12d,%ecx
  404385:	83 e1 01             	and    $0x1,%ecx
  404388:	31 d2                	xor    %edx,%edx
  40438a:	45 85 f6             	test   %r14d,%r14d
  40438d:	74 38                	je     4043c7 <histogram_join+0xb7>
  40438f:	44 89 e6             	mov    %r12d,%esi
  404392:	29 ce                	sub    %ecx,%esi
  404394:	31 d2                	xor    %edx,%edx
  404396:	66 2e 0f 1f 84 00 00 	nopw   %cs:0x0(%rax,%rax,1)
  40439d:	00 00 00 
  4043a0:	8b 3c d3             	mov    (%rbx,%rdx,8),%edi
  4043a3:	44 21 ef             	and    %r13d,%edi
  4043a6:	c1 ef 0e             	shr    $0xe,%edi
  4043a9:	83 c7 02             	add    $0x2,%edi
  4043ac:	ff 04 b8             	incl   (%rax,%rdi,4)
  4043af:	8b 7c d3 08          	mov    0x8(%rbx,%rdx,8),%edi
  4043b3:	44 21 ef             	and    %r13d,%edi
  4043b6:	c1 ef 0e             	shr    $0xe,%edi
  4043b9:	83 c7 02             	add    $0x2,%edi
  4043bc:	ff 04 b8             	incl   (%rax,%rdi,4)
  4043bf:	48 83 c2 02          	add    $0x2,%rdx
  4043c3:	39 d6                	cmp    %edx,%esi
  4043c5:	75 d9                	jne    4043a0 <histogram_join+0x90>
  4043c7:	85 c9                	test   %ecx,%ecx
  4043c9:	74 0f                	je     4043da <histogram_join+0xca>
  4043cb:	8b 0c d3             	mov    (%rbx,%rdx,8),%ecx
  4043ce:	44 21 e9             	and    %r13d,%ecx
  4043d1:	c1 e9 0e             	shr    $0xe,%ecx
  4043d4:	83 c1 02             	add    $0x2,%ecx
  4043d7:	ff 04 88             	incl   (%rax,%rcx,4)
  4043da:	8d 4d 01             	lea    0x1(%rbp),%ecx
  4043dd:	83 f9 02             	cmp    $0x2,%ecx
  4043e0:	72 7b                	jb     40445d <histogram_join+0x14d>
  4043e2:	89 ef                	mov    %ebp,%edi
  4043e4:	48 8d 6f ff          	lea    -0x1(%rdi),%rbp
  4043e8:	89 f9                	mov    %edi,%ecx
  4043ea:	83 e1 03             	and    $0x3,%ecx
  4043ed:	31 d2                	xor    %edx,%edx
  4043ef:	be 02 00 00 00       	mov    $0x2,%esi
  4043f4:	48 83 fd 03          	cmp    $0x3,%rbp
  4043f8:	72 43                	jb     40443d <histogram_join+0x12d>
  4043fa:	48 29 cf             	sub    %rcx,%rdi
  4043fd:	31 f6                	xor    %esi,%esi
  4043ff:	31 d2                	xor    %edx,%edx
  404401:	66 66 66 66 66 66 2e 	data16 data16 data16 data16 data16 nopw %cs:0x0(%rax,%rax,1)
  404408:	0f 1f 84 00 00 00 00 
  40440f:	00 
  404410:	03 54 b0 08          	add    0x8(%rax,%rsi,4),%edx
  404414:	89 54 b0 08          	mov    %edx,0x8(%rax,%rsi,4)
  404418:	03 54 b0 0c          	add    0xc(%rax,%rsi,4),%edx
  40441c:	89 54 b0 0c          	mov    %edx,0xc(%rax,%rsi,4)
  404420:	03 54 b0 10          	add    0x10(%rax,%rsi,4),%edx
  404424:	89 54 b0 10          	mov    %edx,0x10(%rax,%rsi,4)
  404428:	03 54 b0 14          	add    0x14(%rax,%rsi,4),%edx
  40442c:	89 54 b0 14          	mov    %edx,0x14(%rax,%rsi,4)
  404430:	48 83 c6 04          	add    $0x4,%rsi
  404434:	48 39 f7             	cmp    %rsi,%rdi
  404437:	75 d7                	jne    404410 <histogram_join+0x100>
  404439:	48 83 c6 02          	add    $0x2,%rsi
  40443d:	48 85 c9             	test   %rcx,%rcx
  404440:	74 1b                	je     40445d <histogram_join+0x14d>
  404442:	48 8d 34 b0          	lea    (%rax,%rsi,4),%rsi
  404446:	48 f7 d9             	neg    %rcx
  404449:	0f 1f 80 00 00 00 00 	nopl   0x0(%rax)
  404450:	03 16                	add    (%rsi),%edx
  404452:	89 16                	mov    %edx,(%rsi)
  404454:	48 83 c6 04          	add    $0x4,%rsi
  404458:	48 ff c1             	inc    %rcx
  40445b:	75 f3                	jne    404450 <histogram_join+0x140>
  40445d:	45 85 e4             	test   %r12d,%r12d
  404460:	4d 8b 37             	mov    (%r15),%r14
  404463:	0f 84 7e 00 00 00    	je     4044e7 <histogram_join+0x1d7>
  404469:	45 89 e0             	mov    %r12d,%r8d
  40446c:	41 83 e0 01          	and    $0x1,%r8d
  404470:	31 d2                	xor    %edx,%edx
  404472:	41 83 fc 01          	cmp    $0x1,%r12d
  404476:	74 4d                	je     4044c5 <histogram_join+0x1b5>
  404478:	45 29 c4             	sub    %r8d,%r12d
  40447b:	31 d2                	xor    %edx,%edx
  40447d:	0f 1f 00             	nopl   (%rax)
  404480:	8b 3c d3             	mov    (%rbx,%rdx,8),%edi
  404483:	44 21 ef             	and    %r13d,%edi
  404486:	c1 ef 0e             	shr    $0xe,%edi
  404489:	ff c7                	inc    %edi
  40448b:	48 63 2c b8          	movslq (%rax,%rdi,4),%rbp
  40448f:	48 8b 34 d3          	mov    (%rbx,%rdx,8),%rsi
  404493:	49 89 34 ee          	mov    %rsi,(%r14,%rbp,8)
  404497:	8d 75 01             	lea    0x1(%rbp),%esi
  40449a:	89 34 b8             	mov    %esi,(%rax,%rdi,4)
  40449d:	8b 74 d3 08          	mov    0x8(%rbx,%rdx,8),%esi
  4044a1:	44 21 ee             	and    %r13d,%esi
  4044a4:	c1 ee 0e             	shr    $0xe,%esi
  4044a7:	ff c6                	inc    %esi
  4044a9:	48 63 3c b0          	movslq (%rax,%rsi,4),%rdi
  4044ad:	48 8b 6c d3 08       	mov    0x8(%rbx,%rdx,8),%rbp
  4044b2:	49 89 2c fe          	mov    %rbp,(%r14,%rdi,8)
  4044b6:	8d 7f 01             	lea    0x1(%rdi),%edi
  4044b9:	89 3c b0             	mov    %edi,(%rax,%rsi,4)
  4044bc:	48 83 c2 02          	add    $0x2,%rdx
  4044c0:	41 39 d4             	cmp    %edx,%r12d
  4044c3:	75 bb                	jne    404480 <histogram_join+0x170>
  4044c5:	45 85 c0             	test   %r8d,%r8d
  4044c8:	74 1d                	je     4044e7 <histogram_join+0x1d7>
  4044ca:	8b 34 d3             	mov    (%rbx,%rdx,8),%esi
  4044cd:	44 21 ee             	and    %r13d,%esi
  4044d0:	c1 ee 0e             	shr    $0xe,%esi
  4044d3:	ff c6                	inc    %esi
  4044d5:	48 63 3c b0          	movslq (%rax,%rsi,4),%rdi
  4044d9:	48 8b 14 d3          	mov    (%rbx,%rdx,8),%rdx
  4044dd:	49 89 14 fe          	mov    %rdx,(%r14,%rdi,8)
  4044e1:	8d 57 01             	lea    0x1(%rdi),%edx
  4044e4:	89 14 b0             	mov    %edx,(%rax,%rsi,4)
  4044e7:	48 8b 0c 24          	mov    (%rsp),%rcx
  4044eb:	44 8b 49 08          	mov    0x8(%rcx),%r9d
  4044ef:	31 db                	xor    %ebx,%ebx
  4044f1:	45 85 c9             	test   %r9d,%r9d
  4044f4:	0f 84 c4 00 00 00    	je     4045be <histogram_join+0x2ae>
  4044fa:	4c 8b 01             	mov    (%rcx),%r8
  4044fd:	45 31 d2             	xor    %r10d,%r10d
  404500:	31 db                	xor    %ebx,%ebx
  404502:	66 66 66 66 66 2e 0f 	data16 data16 data16 data16 nopw %cs:0x0(%rax,%rax,1)
  404509:	1f 84 00 00 00 00 00 
  404510:	43 8b 34 d0          	mov    (%r8,%r10,8),%esi
  404514:	89 f2                	mov    %esi,%edx
  404516:	44 21 ea             	and    %r13d,%edx
  404519:	c1 ea 0e             	shr    $0xe,%edx
  40451c:	48 63 2c 90          	movslq (%rax,%rdx,4),%rbp
  404520:	ff c2                	inc    %edx
  404522:	44 8b 1c 90          	mov    (%rax,%rdx,4),%r11d
  404526:	41 39 eb             	cmp    %ebp,%r11d
  404529:	0f 8e 83 00 00 00    	jle    4045b2 <histogram_join+0x2a2>
  40452f:	44 89 da             	mov    %r11d,%edx
  404532:	29 ea                	sub    %ebp,%edx
  404534:	41 8d 7b ff          	lea    -0x1(%r11),%edi
  404538:	29 ef                	sub    %ebp,%edi
  40453a:	83 e2 03             	and    $0x3,%edx
  40453d:	83 ff 03             	cmp    $0x3,%edi
  404540:	72 4a                	jb     40458c <histogram_join+0x27c>
  404542:	8d 7c 15 00          	lea    0x0(%rbp,%rdx,1),%edi
  404546:	44 29 df             	sub    %r11d,%edi
  404549:	0f 1f 80 00 00 00 00 	nopl   0x0(%rax)
  404550:	31 c9                	xor    %ecx,%ecx
  404552:	41 3b 34 ee          	cmp    (%r14,%rbp,8),%esi
  404556:	0f 94 c1             	sete   %cl
  404559:	48 01 d9             	add    %rbx,%rcx
  40455c:	31 db                	xor    %ebx,%ebx
  40455e:	41 3b 74 ee 08       	cmp    0x8(%r14,%rbp,8),%esi
  404563:	0f 94 c3             	sete   %bl
  404566:	48 01 cb             	add    %rcx,%rbx
  404569:	31 c9                	xor    %ecx,%ecx
  40456b:	41 3b 74 ee 10       	cmp    0x10(%r14,%rbp,8),%esi
  404570:	0f 94 c1             	sete   %cl
  404573:	48 01 d9             	add    %rbx,%rcx
  404576:	31 db                	xor    %ebx,%ebx
  404578:	41 3b 74 ee 18       	cmp    0x18(%r14,%rbp,8),%esi
  40457d:	0f 94 c3             	sete   %bl
  404580:	48 01 cb             	add    %rcx,%rbx
  404583:	48 83 c5 04          	add    $0x4,%rbp
  404587:	83 c7 04             	add    $0x4,%edi
  40458a:	75 c4                	jne    404550 <histogram_join+0x240>
  40458c:	85 d2                	test   %edx,%edx
  40458e:	74 22                	je     4045b2 <histogram_join+0x2a2>
  404590:	49 8d 3c ee          	lea    (%r14,%rbp,8),%rdi
  404594:	f7 da                	neg    %edx
  404596:	66 2e 0f 1f 84 00 00 	nopw   %cs:0x0(%rax,%rax,1)
  40459d:	00 00 00 
  4045a0:	31 c9                	xor    %ecx,%ecx
  4045a2:	3b 37                	cmp    (%rdi),%esi
  4045a4:	0f 94 c1             	sete   %cl
  4045a7:	48 01 cb             	add    %rcx,%rbx
  4045aa:	48 83 c7 08          	add    $0x8,%rdi
  4045ae:	ff c2                	inc    %edx
  4045b0:	75 ee                	jne    4045a0 <histogram_join+0x290>
  4045b2:	49 ff c2             	inc    %r10
  4045b5:	45 39 ca             	cmp    %r9d,%r10d
  4045b8:	0f 85 52 ff ff ff    	jne    404510 <histogram_join+0x200>
  4045be:	48 89 c7             	mov    %rax,%rdi
  4045c1:	e8 6a ca ff ff       	callq  401030 <free@plt>
  4045c6:	48 89 d8             	mov    %rbx,%rax
  4045c9:	48 83 c4 08          	add    $0x8,%rsp
  4045cd:	5b                   	pop    %rbx
  4045ce:	41 5c                	pop    %r12
  4045d0:	41 5d                	pop    %r13
  4045d2:	41 5e                	pop    %r14
  4045d4:	41 5f                	pop    %r15
  4045d6:	5d                   	pop    %rbp
  4045d7:	c3                   	retq   
  4045d8:	0f 1f 84 00 00 00 00 	nopl   0x0(%rax,%rax,1)
  4045df:	00 

00000000004045e0 <histogram_optimized_join>:
  4045e0:	31 c0                	xor    %eax,%eax
  4045e2:	c3                   	retq   
  4045e3:	66 66 66 66 2e 0f 1f 	data16 data16 data16 nopw %cs:0x0(%rax,%rax,1)
  4045ea:	84 00 00 00 00 00 

00000000004045f0 <radix_cluster>:
  4045f0:	55                   	push   %rbp
  4045f1:	48 89 e5             	mov    %rsp,%rbp
  4045f4:	41 57                	push   %r15
  4045f6:	41 56                	push   %r14
  4045f8:	41 55                	push   %r13
  4045fa:	41 54                	push   %r12
  4045fc:	53                   	push   %rbx
  4045fd:	50                   	push   %rax
  4045fe:	41 89 c9             	mov    %ecx,%r9d
  404601:	41 bb 01 00 00 00    	mov    $0x1,%r11d
  404607:	44 89 c1             	mov    %r8d,%ecx
  40460a:	41 d3 e3             	shl    %cl,%r11d
  40460d:	45 8d 43 ff          	lea    -0x1(%r11),%r8d
  404611:	44 89 c9             	mov    %r9d,%ecx
  404614:	41 d3 e0             	shl    %cl,%r8d
  404617:	4a 8d 04 9d 0f 00 00 	lea    0xf(,%r11,4),%rax
  40461e:	00 
  40461f:	48 b9 f0 ff ff ff 07 	movabs $0x7fffffff0,%rcx
  404626:	00 00 00 
  404629:	48 21 c1             	and    %rax,%rcx
  40462c:	49 89 e5             	mov    %rsp,%r13
  40462f:	49 29 cd             	sub    %rcx,%r13
  404632:	4c 89 ec             	mov    %r13,%rsp
  404635:	44 8b 56 08          	mov    0x8(%rsi),%r10d
  404639:	4d 85 d2             	test   %r10,%r10
  40463c:	74 5b                	je     404699 <radix_cluster+0xa9>
  40463e:	4c 8b 3e             	mov    (%rsi),%r15
  404641:	45 89 d6             	mov    %r10d,%r14d
  404644:	41 83 e6 01          	and    $0x1,%r14d
  404648:	31 db                	xor    %ebx,%ebx
  40464a:	41 83 fa 01          	cmp    $0x1,%r10d
  40464e:	74 35                	je     404685 <radix_cluster+0x95>
  404650:	4d 89 d4             	mov    %r10,%r12
  404653:	4d 29 f4             	sub    %r14,%r12
  404656:	31 db                	xor    %ebx,%ebx
  404658:	0f 1f 84 00 00 00 00 	nopl   0x0(%rax,%rax,1)
  40465f:	00 
  404660:	41 8b 04 df          	mov    (%r15,%rbx,8),%eax
  404664:	44 21 c0             	and    %r8d,%eax
  404667:	44 89 c9             	mov    %r9d,%ecx
  40466a:	d3 e8                	shr    %cl,%eax
  40466c:	ff 04 82             	incl   (%rdx,%rax,4)
  40466f:	41 8b 44 df 08       	mov    0x8(%r15,%rbx,8),%eax
  404674:	44 21 c0             	and    %r8d,%eax
  404677:	d3 e8                	shr    %cl,%eax
  404679:	ff 04 82             	incl   (%rdx,%rax,4)
  40467c:	48 83 c3 02          	add    $0x2,%rbx
  404680:	49 39 dc             	cmp    %rbx,%r12
  404683:	75 db                	jne    404660 <radix_cluster+0x70>
  404685:	4d 85 f6             	test   %r14,%r14
  404688:	74 0f                	je     404699 <radix_cluster+0xa9>
  40468a:	41 8b 04 df          	mov    (%r15,%rbx,8),%eax
  40468e:	44 21 c0             	and    %r8d,%eax
  404691:	44 89 c9             	mov    %r9d,%ecx
  404694:	d3 e8                	shr    %cl,%eax
  404696:	ff 04 82             	incl   (%rdx,%rax,4)
  404699:	45 31 f6             	xor    %r14d,%r14d
  40469c:	31 db                	xor    %ebx,%ebx
  40469e:	31 c0                	xor    %eax,%eax
  4046a0:	41 8d 0c 06          	lea    (%r14,%rax,1),%ecx
  4046a4:	41 89 4c 9d 00       	mov    %ecx,0x0(%r13,%rbx,4)
  4046a9:	03 04 9a             	add    (%rdx,%rbx,4),%eax
  4046ac:	48 ff c3             	inc    %rbx
  4046af:	41 83 c6 18          	add    $0x18,%r14d
  4046b3:	4c 39 db             	cmp    %r11,%rbx
  4046b6:	72 e8                	jb     4046a0 <radix_cluster+0xb0>
  4046b8:	45 85 d2             	test   %r10d,%r10d
  4046bb:	0f 84 8e 00 00 00    	je     40474f <radix_cluster+0x15f>
  4046c1:	48 8b 16             	mov    (%rsi),%rdx
  4046c4:	48 8b 37             	mov    (%rdi),%rsi
  4046c7:	45 89 d3             	mov    %r10d,%r11d
  4046ca:	41 83 e3 01          	and    $0x1,%r11d
  4046ce:	31 ff                	xor    %edi,%edi
  4046d0:	41 83 fa 01          	cmp    $0x1,%r10d
  4046d4:	74 55                	je     40472b <radix_cluster+0x13b>
  4046d6:	4d 29 da             	sub    %r11,%r10
  4046d9:	31 ff                	xor    %edi,%edi
  4046db:	0f 1f 44 00 00       	nopl   0x0(%rax,%rax,1)
  4046e0:	8b 04 fa             	mov    (%rdx,%rdi,8),%eax
  4046e3:	44 21 c0             	and    %r8d,%eax
  4046e6:	44 89 c9             	mov    %r9d,%ecx
  4046e9:	d3 e8                	shr    %cl,%eax
  4046eb:	41 8b 4c 85 00       	mov    0x0(%r13,%rax,4),%ecx
  4046f0:	48 8b 1c fa          	mov    (%rdx,%rdi,8),%rbx
  4046f4:	48 89 1c ce          	mov    %rbx,(%rsi,%rcx,8)
  4046f8:	8d 49 01             	lea    0x1(%rcx),%ecx
  4046fb:	41 89 4c 85 00       	mov    %ecx,0x0(%r13,%rax,4)
  404700:	8b 44 fa 08          	mov    0x8(%rdx,%rdi,8),%eax
  404704:	44 21 c0             	and    %r8d,%eax
  404707:	44 89 c9             	mov    %r9d,%ecx
  40470a:	d3 e8                	shr    %cl,%eax
  40470c:	41 8b 4c 85 00       	mov    0x0(%r13,%rax,4),%ecx
  404711:	48 8b 5c fa 08       	mov    0x8(%rdx,%rdi,8),%rbx
  404716:	48 89 1c ce          	mov    %rbx,(%rsi,%rcx,8)
  40471a:	8d 49 01             	lea    0x1(%rcx),%ecx
  40471d:	41 89 4c 85 00       	mov    %ecx,0x0(%r13,%rax,4)
  404722:	48 83 c7 02          	add    $0x2,%rdi
  404726:	49 39 fa             	cmp    %rdi,%r10
  404729:	75 b5                	jne    4046e0 <radix_cluster+0xf0>
  40472b:	4d 85 db             	test   %r11,%r11
  40472e:	74 1f                	je     40474f <radix_cluster+0x15f>
  404730:	44 23 04 fa          	and    (%rdx,%rdi,8),%r8d
  404734:	44 89 c9             	mov    %r9d,%ecx
  404737:	41 d3 e8             	shr    %cl,%r8d
  40473a:	43 8b 44 85 00       	mov    0x0(%r13,%r8,4),%eax
  40473f:	48 8b 0c fa          	mov    (%rdx,%rdi,8),%rcx
  404743:	48 89 0c c6          	mov    %rcx,(%rsi,%rax,8)
  404747:	8d 40 01             	lea    0x1(%rax),%eax
  40474a:	43 89 44 85 00       	mov    %eax,0x0(%r13,%r8,4)
  40474f:	48 8d 65 d8          	lea    -0x28(%rbp),%rsp
  404753:	5b                   	pop    %rbx
  404754:	41 5c                	pop    %r12
  404756:	41 5d                	pop    %r13
  404758:	41 5e                	pop    %r14
  40475a:	41 5f                	pop    %r15
  40475c:	5d                   	pop    %rbp
  40475d:	c3                   	retq   
  40475e:	66 90                	xchg   %ax,%ax

0000000000404760 <radix_cluster_nopadding>:
  404760:	55                   	push   %rbp
  404761:	41 57                	push   %r15
  404763:	41 56                	push   %r14
  404765:	41 55                	push   %r13
  404767:	41 54                	push   %r12
  404769:	53                   	push   %rbx
  40476a:	50                   	push   %rax
  40476b:	41 89 d6             	mov    %edx,%r14d
  40476e:	49 89 f4             	mov    %rsi,%r12
  404771:	48 89 3c 24          	mov    %rdi,(%rsp)
  404775:	bd 01 00 00 00       	mov    $0x1,%ebp
  40477a:	d3 e5                	shl    %cl,%ebp
  40477c:	44 8d 6d ff          	lea    -0x1(%rbp),%r13d
  404780:	44 89 f1             	mov    %r14d,%ecx
  404783:	41 d3 e5             	shl    %cl,%r13d
  404786:	41 8b 5c 24 08       	mov    0x8(%r12),%ebx
  40478b:	be 04 00 00 00       	mov    $0x4,%esi
  404790:	48 89 ef             	mov    %rbp,%rdi
  404793:	e8 f8 c9 ff ff       	callq  401190 <calloc@plt>
  404798:	49 89 c7             	mov    %rax,%r15
  40479b:	48 8d 3c ed 00 00 00 	lea    0x0(,%rbp,8),%rdi
  4047a2:	00 
  4047a3:	e8 58 ca ff ff       	callq  401200 <malloc@plt>
  4047a8:	41 89 d9             	mov    %ebx,%r9d
  4047ab:	49 8b 14 24          	mov    (%r12),%rdx
  4047af:	45 85 c9             	test   %r9d,%r9d
  4047b2:	74 52                	je     404806 <radix_cluster_nopadding+0xa6>
  4047b4:	45 89 c8             	mov    %r9d,%r8d
  4047b7:	41 83 e0 01          	and    $0x1,%r8d
  4047bb:	41 83 f9 01          	cmp    $0x1,%r9d
  4047bf:	48 89 d7             	mov    %rdx,%rdi
  4047c2:	74 2f                	je     4047f3 <radix_cluster_nopadding+0x93>
  4047c4:	44 89 c6             	mov    %r8d,%esi
  4047c7:	44 29 ce             	sub    %r9d,%esi
  4047ca:	48 89 d7             	mov    %rdx,%rdi
  4047cd:	0f 1f 00             	nopl   (%rax)
  4047d0:	8b 1f                	mov    (%rdi),%ebx
  4047d2:	44 21 eb             	and    %r13d,%ebx
  4047d5:	44 89 f1             	mov    %r14d,%ecx
  4047d8:	d3 eb                	shr    %cl,%ebx
  4047da:	41 ff 04 9f          	incl   (%r15,%rbx,4)
  4047de:	8b 5f 08             	mov    0x8(%rdi),%ebx
  4047e1:	44 21 eb             	and    %r13d,%ebx
  4047e4:	d3 eb                	shr    %cl,%ebx
  4047e6:	41 ff 04 9f          	incl   (%r15,%rbx,4)
  4047ea:	48 83 c7 10          	add    $0x10,%rdi
  4047ee:	83 c6 02             	add    $0x2,%esi
  4047f1:	75 dd                	jne    4047d0 <radix_cluster_nopadding+0x70>
  4047f3:	45 85 c0             	test   %r8d,%r8d
  4047f6:	74 0e                	je     404806 <radix_cluster_nopadding+0xa6>
  4047f8:	8b 37                	mov    (%rdi),%esi
  4047fa:	44 21 ee             	and    %r13d,%esi
  4047fd:	44 89 f1             	mov    %r14d,%ecx
  404800:	d3 ee                	shr    %cl,%esi
  404802:	41 ff 04 b7          	incl   (%r15,%rsi,4)
  404806:	48 8b 0c 24          	mov    (%rsp),%rcx
  40480a:	48 8b 09             	mov    (%rcx),%rcx
  40480d:	31 f6                	xor    %esi,%esi
  40480f:	31 ff                	xor    %edi,%edi
  404811:	66 66 66 66 66 66 2e 	data16 data16 data16 data16 data16 nopw %cs:0x0(%rax,%rax,1)
  404818:	0f 1f 84 00 00 00 00 
  40481f:	00 
  404820:	89 fb                	mov    %edi,%ebx
  404822:	48 8d 1c d9          	lea    (%rcx,%rbx,8),%rbx
  404826:	48 89 1c f0          	mov    %rbx,(%rax,%rsi,8)
  40482a:	41 03 3c b7          	add    (%r15,%rsi,4),%edi
  40482e:	48 ff c6             	inc    %rsi
  404831:	48 39 ee             	cmp    %rbp,%rsi
  404834:	72 ea                	jb     404820 <radix_cluster_nopadding+0xc0>
  404836:	45 85 c9             	test   %r9d,%r9d
  404839:	74 77                	je     4048b2 <radix_cluster_nopadding+0x152>
  40483b:	44 89 ce             	mov    %r9d,%esi
  40483e:	83 e6 01             	and    $0x1,%esi
  404841:	41 83 f9 01          	cmp    $0x1,%r9d
  404845:	74 4c                	je     404893 <radix_cluster_nopadding+0x133>
  404847:	89 f7                	mov    %esi,%edi
  404849:	44 29 cf             	sub    %r9d,%edi
  40484c:	0f 1f 40 00          	nopl   0x0(%rax)
  404850:	8b 2a                	mov    (%rdx),%ebp
  404852:	44 21 ed             	and    %r13d,%ebp
  404855:	44 89 f1             	mov    %r14d,%ecx
  404858:	d3 ed                	shr    %cl,%ebp
  40485a:	48 8b 0c e8          	mov    (%rax,%rbp,8),%rcx
  40485e:	48 8b 1a             	mov    (%rdx),%rbx
  404861:	48 89 19             	mov    %rbx,(%rcx)
  404864:	48 83 c1 08          	add    $0x8,%rcx
  404868:	48 89 0c e8          	mov    %rcx,(%rax,%rbp,8)
  40486c:	8b 6a 08             	mov    0x8(%rdx),%ebp
  40486f:	44 21 ed             	and    %r13d,%ebp
  404872:	44 89 f1             	mov    %r14d,%ecx
  404875:	d3 ed                	shr    %cl,%ebp
  404877:	48 8b 0c e8          	mov    (%rax,%rbp,8),%rcx
  40487b:	48 8b 5a 08          	mov    0x8(%rdx),%rbx
  40487f:	48 89 19             	mov    %rbx,(%rcx)
  404882:	48 83 c1 08          	add    $0x8,%rcx
  404886:	48 89 0c e8          	mov    %rcx,(%rax,%rbp,8)
  40488a:	48 83 c2 10          	add    $0x10,%rdx
  40488e:	83 c7 02             	add    $0x2,%edi
  404891:	75 bd                	jne    404850 <radix_cluster_nopadding+0xf0>
  404893:	85 f6                	test   %esi,%esi
  404895:	74 1b                	je     4048b2 <radix_cluster_nopadding+0x152>
  404897:	44 23 2a             	and    (%rdx),%r13d
  40489a:	44 89 f1             	mov    %r14d,%ecx
  40489d:	41 d3 ed             	shr    %cl,%r13d
  4048a0:	4a 8b 0c e8          	mov    (%rax,%r13,8),%rcx
  4048a4:	48 8b 12             	mov    (%rdx),%rdx
  4048a7:	48 89 11             	mov    %rdx,(%rcx)
  4048aa:	48 83 c1 08          	add    $0x8,%rcx
  4048ae:	4a 89 0c e8          	mov    %rcx,(%rax,%r13,8)
  4048b2:	48 89 c7             	mov    %rax,%rdi
  4048b5:	e8 76 c7 ff ff       	callq  401030 <free@plt>
  4048ba:	4c 89 ff             	mov    %r15,%rdi
  4048bd:	48 83 c4 08          	add    $0x8,%rsp
  4048c1:	5b                   	pop    %rbx
  4048c2:	41 5c                	pop    %r12
  4048c4:	41 5d                	pop    %r13
  4048c6:	41 5e                	pop    %r14
  4048c8:	41 5f                	pop    %r15
  4048ca:	5d                   	pop    %rbp
  4048cb:	e9 60 c7 ff ff       	jmpq   401030 <free@plt>

00000000004048d0 <serial_radix_partition>:
  4048d0:	55                   	push   %rbp
  4048d1:	41 57                	push   %r15
  4048d3:	41 56                	push   %r14
  4048d5:	41 55                	push   %r13
  4048d7:	41 54                	push   %r12
  4048d9:	53                   	push   %rbx
  4048da:	48 83 ec 48          	sub    $0x48,%rsp
  4048de:	41 89 cd             	mov    %ecx,%r13d
  4048e1:	41 89 d7             	mov    %edx,%r15d
  4048e4:	48 89 74 24 10       	mov    %rsi,0x10(%rsp)
  4048e9:	48 89 fb             	mov    %rdi,%rbx
  4048ec:	41 be 01 00 00 00    	mov    $0x1,%r14d
  4048f2:	41 d3 e6             	shl    %cl,%r14d
  4048f5:	41 8d 46 01          	lea    0x1(%r14),%eax
  4048f9:	48 63 e8             	movslq %eax,%rbp
  4048fc:	be 04 00 00 00       	mov    $0x4,%esi
  404901:	48 89 ef             	mov    %rbp,%rdi
  404904:	e8 87 c8 ff ff       	callq  401190 <calloc@plt>
  404909:	be 04 00 00 00       	mov    $0x4,%esi
  40490e:	48 89 ef             	mov    %rbp,%rdi
  404911:	48 89 c5             	mov    %rax,%rbp
  404914:	e8 77 c8 ff ff       	callq  401190 <calloc@plt>
  404919:	49 89 c4             	mov    %rax,%r12
  40491c:	48 8d 7b 10          	lea    0x10(%rbx),%rdi
  404920:	48 89 de             	mov    %rbx,%rsi
  404923:	48 89 ea             	mov    %rbp,%rdx
  404926:	44 89 f9             	mov    %r15d,%ecx
  404929:	45 89 e8             	mov    %r13d,%r8d
  40492c:	e8 bf fc ff ff       	callq  4045f0 <radix_cluster>
  404931:	48 8d 7b 30          	lea    0x30(%rbx),%rdi
  404935:	48 89 5c 24 40       	mov    %rbx,0x40(%rsp)
  40493a:	48 8d 73 20          	lea    0x20(%rbx),%rsi
  40493e:	4c 89 64 24 20       	mov    %r12,0x20(%rsp)
  404943:	4c 89 e2             	mov    %r12,%rdx
  404946:	44 89 f9             	mov    %r15d,%ecx
  404949:	45 89 e8             	mov    %r13d,%r8d
  40494c:	e8 9f fc ff ff       	callq  4045f0 <radix_cluster>
  404951:	41 83 fd 1f          	cmp    $0x1f,%r13d
  404955:	0f 84 8d 01 00 00    	je     404ae8 <serial_radix_partition+0x218>
  40495b:	48 8b 44 24 10       	mov    0x10(%rsp),%rax
  404960:	48 8d 40 28          	lea    0x28(%rax),%rax
  404964:	48 89 44 24 18       	mov    %rax,0x18(%rsp)
  404969:	49 63 ce             	movslq %r14d,%rcx
  40496c:	45 31 ed             	xor    %r13d,%r13d
  40496f:	45 31 e4             	xor    %r12d,%r12d
  404972:	45 31 ff             	xor    %r15d,%r15d
  404975:	45 31 f6             	xor    %r14d,%r14d
  404978:	48 89 6c 24 38       	mov    %rbp,0x38(%rsp)
  40497d:	48 89 4c 24 30       	mov    %rcx,0x30(%rsp)
  404982:	66 66 66 66 66 2e 0f 	data16 data16 data16 data16 nopw %cs:0x0(%rax,%rax,1)
  404989:	1f 84 00 00 00 00 00 
  404990:	42 8b 5c a5 00       	mov    0x0(%rbp,%r12,4),%ebx
  404995:	48 8b 44 24 20       	mov    0x20(%rsp),%rax
  40499a:	42 8b 04 a0          	mov    (%rax,%r12,4),%eax
  40499e:	85 db                	test   %ebx,%ebx
  4049a0:	0f 8e 29 01 00 00    	jle    404acf <serial_radix_partition+0x1ff>
  4049a6:	85 c0                	test   %eax,%eax
  4049a8:	0f 8e 21 01 00 00    	jle    404acf <serial_radix_partition+0x1ff>
  4049ae:	89 44 24 0c          	mov    %eax,0xc(%rsp)
  4049b2:	48 8b 7c 24 18       	mov    0x18(%rsp),%rdi
  4049b7:	e8 24 c9 ff ff       	callq  4012e0 <pthread_mutex_lock@plt>
  4049bc:	48 8b 4c 24 10       	mov    0x10(%rsp),%rcx
  4049c1:	48 8b 51 58          	mov    0x58(%rcx),%rdx
  4049c5:	48 63 42 10          	movslq 0x10(%rdx),%rax
  4049c9:	48 63 69 64          	movslq 0x64(%rcx),%rbp
  4049cd:	39 e8                	cmp    %ebp,%eax
  4049cf:	89 5c 24 08          	mov    %ebx,0x8(%rsp)
  4049d3:	7d 1b                	jge    4049f0 <serial_radix_partition+0x120>
  4049d5:	48 8d 2c c0          	lea    (%rax,%rax,8),%rbp
  4049d9:	48 c1 e5 03          	shl    $0x3,%rbp
  4049dd:	48 03 2a             	add    (%rdx),%rbp
  4049e0:	8d 40 01             	lea    0x1(%rax),%eax
  4049e3:	89 42 10             	mov    %eax,0x10(%rdx)
  4049e6:	eb 52                	jmp    404a3a <serial_radix_partition+0x16a>
  4049e8:	0f 1f 84 00 00 00 00 	nopl   0x0(%rax,%rax,1)
  4049ef:	00 
  4049f0:	bf 18 00 00 00       	mov    $0x18,%edi
  4049f5:	48 89 54 24 28       	mov    %rdx,0x28(%rsp)
  4049fa:	e8 01 c8 ff ff       	callq  401200 <malloc@plt>
  4049ff:	44 89 fb             	mov    %r15d,%ebx
  404a02:	49 89 c7             	mov    %rax,%r15
  404a05:	48 c1 e5 03          	shl    $0x3,%rbp
  404a09:	48 8d 7c ed 00       	lea    0x0(%rbp,%rbp,8),%rdi
  404a0e:	e8 ed c7 ff ff       	callq  401200 <malloc@plt>
  404a13:	48 89 c5             	mov    %rax,%rbp
  404a16:	49 89 2f             	mov    %rbp,(%r15)
  404a19:	41 c7 47 10 01 00 00 	movl   $0x1,0x10(%r15)
  404a20:	00 
  404a21:	48 8b 44 24 28       	mov    0x28(%rsp),%rax
  404a26:	49 89 47 08          	mov    %rax,0x8(%r15)
  404a2a:	48 8b 44 24 10       	mov    0x10(%rsp),%rax
  404a2f:	4c 89 78 58          	mov    %r15,0x58(%rax)
  404a33:	41 89 df             	mov    %ebx,%r15d
  404a36:	8b 5c 24 08          	mov    0x8(%rsp),%ebx
  404a3a:	48 8b 7c 24 18       	mov    0x18(%rsp),%rdi
  404a3f:	e8 ac c7 ff ff       	callq  4011f0 <pthread_mutex_unlock@plt>
  404a44:	89 5d 08             	mov    %ebx,0x8(%rbp)
  404a47:	44 89 f8             	mov    %r15d,%eax
  404a4a:	48 c1 e0 03          	shl    $0x3,%rax
  404a4e:	48 8b 54 24 40       	mov    0x40(%rsp),%rdx
  404a53:	48 8b 4a 10          	mov    0x10(%rdx),%rcx
  404a57:	48 01 c1             	add    %rax,%rcx
  404a5a:	4c 01 e9             	add    %r13,%rcx
  404a5d:	48 89 4d 00          	mov    %rcx,0x0(%rbp)
  404a61:	48 03 02             	add    (%rdx),%rax
  404a64:	4c 01 e8             	add    %r13,%rax
  404a67:	48 89 45 10          	mov    %rax,0x10(%rbp)
  404a6b:	8b 44 24 0c          	mov    0xc(%rsp),%eax
  404a6f:	89 45 28             	mov    %eax,0x28(%rbp)
  404a72:	44 89 f0             	mov    %r14d,%eax
  404a75:	48 c1 e0 03          	shl    $0x3,%rax
  404a79:	48 8b 4a 30          	mov    0x30(%rdx),%rcx
  404a7d:	48 01 c1             	add    %rax,%rcx
  404a80:	4c 01 e9             	add    %r13,%rcx
  404a83:	48 89 4d 20          	mov    %rcx,0x20(%rbp)
  404a87:	48 03 42 20          	add    0x20(%rdx),%rax
  404a8b:	4c 01 e8             	add    %r13,%rax
  404a8e:	48 89 45 30          	mov    %rax,0x30(%rbp)
  404a92:	44 89 fb             	mov    %r15d,%ebx
  404a95:	4c 8b 7c 24 10       	mov    0x10(%rsp),%r15
  404a9a:	4c 89 ff             	mov    %r15,%rdi
  404a9d:	e8 3e c8 ff ff       	callq  4012e0 <pthread_mutex_lock@plt>
  404aa2:	49 8b 47 50          	mov    0x50(%r15),%rax
  404aa6:	48 89 45 40          	mov    %rax,0x40(%rbp)
  404aaa:	49 89 6f 50          	mov    %rbp,0x50(%r15)
  404aae:	41 ff 47 60          	incl   0x60(%r15)
  404ab2:	4c 89 ff             	mov    %r15,%rdi
  404ab5:	41 89 df             	mov    %ebx,%r15d
  404ab8:	8b 5c 24 08          	mov    0x8(%rsp),%ebx
  404abc:	e8 2f c7 ff ff       	callq  4011f0 <pthread_mutex_unlock@plt>
  404ac1:	8b 44 24 0c          	mov    0xc(%rsp),%eax
  404ac5:	48 8b 6c 24 38       	mov    0x38(%rsp),%rbp
  404aca:	48 8b 4c 24 30       	mov    0x30(%rsp),%rcx
  404acf:	41 01 df             	add    %ebx,%r15d
  404ad2:	41 01 c6             	add    %eax,%r14d
  404ad5:	49 ff c4             	inc    %r12
  404ad8:	49 81 c5 c0 00 00 00 	add    $0xc0,%r13
  404adf:	49 39 cc             	cmp    %rcx,%r12
  404ae2:	0f 8c a8 fe ff ff    	jl     404990 <serial_radix_partition+0xc0>
  404ae8:	48 89 ef             	mov    %rbp,%rdi
  404aeb:	e8 40 c5 ff ff       	callq  401030 <free@plt>
  404af0:	48 8b 7c 24 20       	mov    0x20(%rsp),%rdi
  404af5:	48 83 c4 48          	add    $0x48,%rsp
  404af9:	5b                   	pop    %rbx
  404afa:	41 5c                	pop    %r12
  404afc:	41 5d                	pop    %r13
  404afe:	41 5e                	pop    %r14
  404b00:	41 5f                	pop    %r15
  404b02:	5d                   	pop    %rbp
  404b03:	e9 28 c5 ff ff       	jmpq   401030 <free@plt>
  404b08:	0f 1f 84 00 00 00 00 	nopl   0x0(%rax,%rax,1)
  404b0f:	00 

0000000000404b10 <parallel_radix_partition>:
  404b10:	55                   	push   %rbp
  404b11:	48 89 e5             	mov    %rsp,%rbp
  404b14:	41 57                	push   %r15
  404b16:	41 56                	push   %r14
  404b18:	41 55                	push   %r13
  404b1a:	41 54                	push   %r12
  404b1c:	53                   	push   %rbx
  404b1d:	48 83 ec 78          	sub    $0x78,%rsp
  404b21:	4c 8b 1f             	mov    (%rdi),%r11
  404b24:	4c 8b 4f 10          	mov    0x10(%rdi),%r9
  404b28:	4c 8b 7f 18          	mov    0x18(%rdi),%r15
  404b2c:	48 8b 47 20          	mov    0x20(%rdi),%rax
  404b30:	48 89 45 d0          	mov    %rax,-0x30(%rbp)
  404b34:	48 8b 70 78          	mov    0x78(%rax),%rsi
  404b38:	48 89 f0             	mov    %rsi,%rax
  404b3b:	48 c1 e8 20          	shr    $0x20,%rax
  404b3f:	48 89 45 90          	mov    %rax,-0x70(%rbp)
  404b43:	8b 57 28             	mov    0x28(%rdi),%edx
  404b46:	48 8b 5f 30          	mov    0x30(%rdi),%rbx
  404b4a:	48 89 d9             	mov    %rbx,%rcx
  404b4d:	48 c1 e9 20          	shr    $0x20,%rcx
  404b51:	41 ba 01 00 00 00    	mov    $0x1,%r10d
  404b57:	48 89 4d 98          	mov    %rcx,-0x68(%rbp)
  404b5b:	41 d3 e2             	shl    %cl,%r10d
  404b5e:	45 8d 42 ff          	lea    -0x1(%r10),%r8d
  404b62:	89 d9                	mov    %ebx,%ecx
  404b64:	41 d3 e0             	shl    %cl,%r8d
  404b67:	48 89 7d 80          	mov    %rdi,-0x80(%rbp)
  404b6b:	8b 47 3c             	mov    0x3c(%rdi),%eax
  404b6e:	89 45 a4             	mov    %eax,-0x5c(%rbp)
  404b71:	41 8d 42 01          	lea    0x1(%r10),%eax
  404b75:	48 8d 04 85 0f 00 00 	lea    0xf(,%rax,4),%rax
  404b7c:	00 
  404b7d:	48 b9 f0 ff ff ff 07 	movabs $0x7fffffff0,%rcx
  404b84:	00 00 00 
  404b87:	48 21 c1             	and    %rax,%rcx
  404b8a:	49 89 e6             	mov    %rsp,%r14
  404b8d:	49 29 ce             	sub    %rcx,%r14
  404b90:	4c 89 f4             	mov    %r14,%rsp
  404b93:	48 89 b5 68 ff ff ff 	mov    %rsi,-0x98(%rbp)
  404b9a:	41 89 f5             	mov    %esi,%r13d
  404b9d:	4c 89 4d a8          	mov    %r9,-0x58(%rbp)
  404ba1:	4b 8b 34 e9          	mov    (%r9,%r13,8),%rsi
  404ba5:	48 89 55 c8          	mov    %rdx,-0x38(%rbp)
  404ba9:	85 d2                	test   %edx,%edx
  404bab:	74 5a                	je     404c07 <parallel_radix_partition+0xf7>
  404bad:	48 8b 4d c8          	mov    -0x38(%rbp),%rcx
  404bb1:	41 89 c9             	mov    %ecx,%r9d
  404bb4:	41 83 e1 01          	and    $0x1,%r9d
  404bb8:	31 c0                	xor    %eax,%eax
  404bba:	83 f9 01             	cmp    $0x1,%ecx
  404bbd:	74 35                	je     404bf4 <parallel_radix_partition+0xe4>
  404bbf:	4c 8b 65 c8          	mov    -0x38(%rbp),%r12
  404bc3:	45 29 cc             	sub    %r9d,%r12d
  404bc6:	31 c0                	xor    %eax,%eax
  404bc8:	0f 1f 84 00 00 00 00 	nopl   0x0(%rax,%rax,1)
  404bcf:	00 
  404bd0:	41 8b 14 c3          	mov    (%r11,%rax,8),%edx
  404bd4:	44 21 c2             	and    %r8d,%edx
  404bd7:	89 d9                	mov    %ebx,%ecx
  404bd9:	d3 ea                	shr    %cl,%edx
  404bdb:	ff 04 96             	incl   (%rsi,%rdx,4)
  404bde:	41 8b 54 c3 08       	mov    0x8(%r11,%rax,8),%edx
  404be3:	44 21 c2             	and    %r8d,%edx
  404be6:	d3 ea                	shr    %cl,%edx
  404be8:	ff 04 96             	incl   (%rsi,%rdx,4)
  404beb:	48 83 c0 02          	add    $0x2,%rax
  404bef:	41 39 c4             	cmp    %eax,%r12d
  404bf2:	75 dc                	jne    404bd0 <parallel_radix_partition+0xc0>
  404bf4:	45 85 c9             	test   %r9d,%r9d
  404bf7:	74 0e                	je     404c07 <parallel_radix_partition+0xf7>
  404bf9:	41 8b 04 c3          	mov    (%r11,%rax,8),%eax
  404bfd:	44 21 c0             	and    %r8d,%eax
  404c00:	89 d9                	mov    %ebx,%ecx
  404c02:	d3 e8                	shr    %cl,%eax
  404c04:	ff 04 86             	incl   (%rsi,%rax,4)
  404c07:	4c 89 85 78 ff ff ff 	mov    %r8,-0x88(%rbp)
  404c0e:	4c 89 9d 70 ff ff ff 	mov    %r11,-0x90(%rbp)
  404c15:	48 89 5d 88          	mov    %rbx,-0x78(%rbp)
  404c19:	45 89 d4             	mov    %r10d,%r12d
  404c1c:	31 c0                	xor    %eax,%eax
  404c1e:	31 c9                	xor    %ecx,%ecx
  404c20:	03 0c 86             	add    (%rsi,%rax,4),%ecx
  404c23:	89 0c 86             	mov    %ecx,(%rsi,%rax,4)
  404c26:	48 ff c0             	inc    %rax
  404c29:	4c 39 e0             	cmp    %r12,%rax
  404c2c:	72 f2                	jb     404c20 <parallel_radix_partition+0x110>
  404c2e:	48 8b 45 d0          	mov    -0x30(%rbp),%rax
  404c32:	48 8b 78 60          	mov    0x60(%rax),%rdi
  404c36:	e8 85 c6 ff ff       	callq  4012c0 <pthread_barrier_wait@plt>
  404c3b:	ff c0                	inc    %eax
  404c3d:	83 f8 01             	cmp    $0x1,%eax
  404c40:	48 8b 9d 68 ff ff ff 	mov    -0x98(%rbp),%rbx
  404c47:	0f 87 f2 04 00 00    	ja     40513f <parallel_radix_partition+0x62f>
  404c4d:	85 db                	test   %ebx,%ebx
  404c4f:	4c 8b 45 a8          	mov    -0x58(%rbp),%r8
  404c53:	0f 84 71 01 00 00    	je     404dca <parallel_radix_partition+0x2ba>
  404c59:	49 83 fc 01          	cmp    $0x1,%r12
  404c5d:	b8 01 00 00 00       	mov    $0x1,%eax
  404c62:	49 0f 47 c4          	cmova  %r12,%rax
  404c66:	4c 8d 58 ff          	lea    -0x1(%rax),%r11
  404c6a:	49 8d 4c 87 fc       	lea    -0x4(%r15,%rax,4),%rcx
  404c6f:	48 89 4d d0          	mov    %rcx,-0x30(%rbp)
  404c73:	41 89 c2             	mov    %eax,%r10d
  404c76:	41 83 e2 f8          	and    $0xfffffff8,%r10d
  404c7a:	49 8d 4a f8          	lea    -0x8(%r10),%rcx
  404c7e:	48 c1 e9 03          	shr    $0x3,%rcx
  404c82:	8d 51 01             	lea    0x1(%rcx),%edx
  404c85:	83 e2 01             	and    $0x1,%edx
  404c88:	48 89 55 b8          	mov    %rdx,-0x48(%rbp)
  404c8c:	48 ff ca             	dec    %rdx
  404c8f:	48 89 4d b0          	mov    %rcx,-0x50(%rbp)
  404c93:	48 29 ca             	sub    %rcx,%rdx
  404c96:	48 89 55 c0          	mov    %rdx,-0x40(%rbp)
  404c9a:	31 d2                	xor    %edx,%edx
  404c9c:	0f 1f 40 00          	nopl   0x0(%rax)
  404ca0:	49 8b 3c d0          	mov    (%r8,%rdx,8),%rdi
  404ca4:	48 83 f8 07          	cmp    $0x7,%rax
  404ca8:	be 00 00 00 00       	mov    $0x0,%esi
  404cad:	0f 86 fd 00 00 00    	jbe    404db0 <parallel_radix_partition+0x2a0>
  404cb3:	4d 85 d2             	test   %r10,%r10
  404cb6:	be 00 00 00 00       	mov    $0x0,%esi
  404cbb:	0f 84 ef 00 00 00    	je     404db0 <parallel_radix_partition+0x2a0>
  404cc1:	4a 8d 34 9f          	lea    (%rdi,%r11,4),%rsi
  404cc5:	49 39 f7             	cmp    %rsi,%r15
  404cc8:	77 0f                	ja     404cd9 <parallel_radix_partition+0x1c9>
  404cca:	48 3b 7d d0          	cmp    -0x30(%rbp),%rdi
  404cce:	be 00 00 00 00       	mov    $0x0,%esi
  404cd3:	0f 86 d7 00 00 00    	jbe    404db0 <parallel_radix_partition+0x2a0>
  404cd9:	48 83 7d b0 00       	cmpq   $0x0,-0x50(%rbp)
  404cde:	41 b9 00 00 00 00    	mov    $0x0,%r9d
  404ce4:	0f 84 81 00 00 00    	je     404d6b <parallel_radix_partition+0x25b>
  404cea:	4c 8b 45 c0          	mov    -0x40(%rbp),%r8
  404cee:	45 31 c9             	xor    %r9d,%r9d
  404cf1:	66 66 66 66 66 66 2e 	data16 data16 data16 data16 data16 nopw %cs:0x0(%rax,%rax,1)
  404cf8:	0f 1f 84 00 00 00 00 
  404cff:	00 
  404d00:	f3 42 0f 6f 04 8f    	movdqu (%rdi,%r9,4),%xmm0
  404d06:	f3 42 0f 6f 4c 8f 10 	movdqu 0x10(%rdi,%r9,4),%xmm1
  404d0d:	f3 43 0f 6f 14 8f    	movdqu (%r15,%r9,4),%xmm2
  404d13:	f3 43 0f 6f 5c 8f 10 	movdqu 0x10(%r15,%r9,4),%xmm3
  404d1a:	66 0f fe d0          	paddd  %xmm0,%xmm2
  404d1e:	66 0f fe d9          	paddd  %xmm1,%xmm3
  404d22:	f3 43 0f 7f 14 8f    	movdqu %xmm2,(%r15,%r9,4)
  404d28:	f3 43 0f 7f 5c 8f 10 	movdqu %xmm3,0x10(%r15,%r9,4)
  404d2f:	f3 42 0f 6f 44 8f 20 	movdqu 0x20(%rdi,%r9,4),%xmm0
  404d36:	f3 42 0f 6f 4c 8f 30 	movdqu 0x30(%rdi,%r9,4),%xmm1
  404d3d:	f3 43 0f 6f 54 8f 20 	movdqu 0x20(%r15,%r9,4),%xmm2
  404d44:	f3 43 0f 6f 5c 8f 30 	movdqu 0x30(%r15,%r9,4),%xmm3
  404d4b:	66 0f fe d0          	paddd  %xmm0,%xmm2
  404d4f:	66 0f fe d9          	paddd  %xmm1,%xmm3
  404d53:	f3 43 0f 7f 54 8f 20 	movdqu %xmm2,0x20(%r15,%r9,4)
  404d5a:	f3 43 0f 7f 5c 8f 30 	movdqu %xmm3,0x30(%r15,%r9,4)
  404d61:	49 83 c1 10          	add    $0x10,%r9
  404d65:	49 83 c0 02          	add    $0x2,%r8
  404d69:	75 95                	jne    404d00 <parallel_radix_partition+0x1f0>
  404d6b:	48 83 7d b8 00       	cmpq   $0x0,-0x48(%rbp)
  404d70:	74 2f                	je     404da1 <parallel_radix_partition+0x291>
  404d72:	f3 42 0f 6f 04 8f    	movdqu (%rdi,%r9,4),%xmm0
  404d78:	f3 42 0f 6f 4c 8f 10 	movdqu 0x10(%rdi,%r9,4),%xmm1
  404d7f:	f3 43 0f 6f 14 8f    	movdqu (%r15,%r9,4),%xmm2
  404d85:	f3 43 0f 6f 5c 8f 10 	movdqu 0x10(%r15,%r9,4),%xmm3
  404d8c:	66 0f fe d0          	paddd  %xmm0,%xmm2
  404d90:	66 0f fe d9          	paddd  %xmm1,%xmm3
  404d94:	f3 43 0f 7f 14 8f    	movdqu %xmm2,(%r15,%r9,4)
  404d9a:	f3 43 0f 7f 5c 8f 10 	movdqu %xmm3,0x10(%r15,%r9,4)
  404da1:	4c 39 d0             	cmp    %r10,%rax
  404da4:	4c 89 d6             	mov    %r10,%rsi
  404da7:	4c 8b 45 a8          	mov    -0x58(%rbp),%r8
  404dab:	74 12                	je     404dbf <parallel_radix_partition+0x2af>
  404dad:	0f 1f 00             	nopl   (%rax)
  404db0:	8b 0c b7             	mov    (%rdi,%rsi,4),%ecx
  404db3:	41 01 0c b7          	add    %ecx,(%r15,%rsi,4)
  404db7:	48 ff c6             	inc    %rsi
  404dba:	4c 39 e6             	cmp    %r12,%rsi
  404dbd:	72 f1                	jb     404db0 <parallel_radix_partition+0x2a0>
  404dbf:	48 ff c2             	inc    %rdx
  404dc2:	39 da                	cmp    %ebx,%edx
  404dc4:	0f 85 d6 fe ff ff    	jne    404ca0 <parallel_radix_partition+0x190>
  404dca:	48 8b 75 90          	mov    -0x70(%rbp),%rsi
  404dce:	39 f3                	cmp    %esi,%ebx
  404dd0:	0f 83 97 01 00 00    	jae    404f6d <parallel_radix_partition+0x45d>
  404dd6:	48 8b 45 98          	mov    -0x68(%rbp),%rax
  404dda:	85 c0                	test   %eax,%eax
  404ddc:	0f 84 8b 01 00 00    	je     404f6d <parallel_radix_partition+0x45d>
  404de2:	49 83 fc 02          	cmp    $0x2,%r12
  404de6:	bf 02 00 00 00       	mov    $0x2,%edi
  404deb:	49 0f 47 fc          	cmova  %r12,%rdi
  404def:	49 8d 4f 04          	lea    0x4(%r15),%rcx
  404df3:	49 8d 44 bf fc       	lea    -0x4(%r15,%rdi,4),%rax
  404df8:	48 89 45 d0          	mov    %rax,-0x30(%rbp)
  404dfc:	48 8d 57 ff          	lea    -0x1(%rdi),%rdx
  404e00:	4c 8d 5f fe          	lea    -0x2(%rdi),%r11
  404e04:	48 8d 47 f7          	lea    -0x9(%rdi),%rax
  404e08:	48 c1 e8 03          	shr    $0x3,%rax
  404e0c:	8d 78 01             	lea    0x1(%rax),%edi
  404e0f:	49 89 d1             	mov    %rdx,%r9
  404e12:	49 83 e1 f8          	and    $0xfffffffffffffff8,%r9
  404e16:	49 8d 59 01          	lea    0x1(%r9),%rbx
  404e1a:	48 89 5d c0          	mov    %rbx,-0x40(%rbp)
  404e1e:	83 e7 01             	and    $0x1,%edi
  404e21:	48 89 7d b8          	mov    %rdi,-0x48(%rbp)
  404e25:	48 8d 5f ff          	lea    -0x1(%rdi),%rbx
  404e29:	48 89 45 b0          	mov    %rax,-0x50(%rbp)
  404e2d:	48 29 c3             	sub    %rax,%rbx
  404e30:	48 83 fa 08          	cmp    $0x8,%rdx
  404e34:	4f 8b 14 e8          	mov    (%r8,%r13,8),%r10
  404e38:	bf 01 00 00 00       	mov    $0x1,%edi
  404e3d:	0f 82 0d 01 00 00    	jb     404f50 <parallel_radix_partition+0x440>
  404e43:	4d 85 c9             	test   %r9,%r9
  404e46:	bf 01 00 00 00       	mov    $0x1,%edi
  404e4b:	0f 84 ff 00 00 00    	je     404f50 <parallel_radix_partition+0x440>
  404e51:	4b 8d 3c 9a          	lea    (%r10,%r11,4),%rdi
  404e55:	48 39 f9             	cmp    %rdi,%rcx
  404e58:	77 0f                	ja     404e69 <parallel_radix_partition+0x359>
  404e5a:	4c 3b 55 d0          	cmp    -0x30(%rbp),%r10
  404e5e:	bf 01 00 00 00       	mov    $0x1,%edi
  404e63:	0f 86 e7 00 00 00    	jbe    404f50 <parallel_radix_partition+0x440>
  404e69:	4c 89 d8             	mov    %r11,%rax
  404e6c:	48 83 7d b0 00       	cmpq   $0x0,-0x50(%rbp)
  404e71:	41 bb 01 00 00 00    	mov    $0x1,%r11d
  404e77:	0f 84 88 00 00 00    	je     404f05 <parallel_radix_partition+0x3f5>
  404e7d:	49 89 d8             	mov    %rbx,%r8
  404e80:	41 bb 0c 00 00 00    	mov    $0xc,%r11d
  404e86:	66 2e 0f 1f 84 00 00 	nopw   %cs:0x0(%rax,%rax,1)
  404e8d:	00 00 00 
  404e90:	f3 43 0f 6f 44 9a d0 	movdqu -0x30(%r10,%r11,4),%xmm0
  404e97:	f3 43 0f 6f 4c 9a e0 	movdqu -0x20(%r10,%r11,4),%xmm1
  404e9e:	f3 43 0f 6f 54 9f d4 	movdqu -0x2c(%r15,%r11,4),%xmm2
  404ea5:	f3 43 0f 6f 5c 9f e4 	movdqu -0x1c(%r15,%r11,4),%xmm3
  404eac:	66 0f fe d0          	paddd  %xmm0,%xmm2
  404eb0:	66 0f fe d9          	paddd  %xmm1,%xmm3
  404eb4:	f3 43 0f 7f 54 9f d4 	movdqu %xmm2,-0x2c(%r15,%r11,4)
  404ebb:	f3 43 0f 7f 5c 9f e4 	movdqu %xmm3,-0x1c(%r15,%r11,4)
  404ec2:	f3 43 0f 6f 44 9a f0 	movdqu -0x10(%r10,%r11,4),%xmm0
  404ec9:	f3 43 0f 6f 0c 9a    	movdqu (%r10,%r11,4),%xmm1
  404ecf:	f3 43 0f 6f 54 9f f4 	movdqu -0xc(%r15,%r11,4),%xmm2
  404ed6:	f3 43 0f 6f 5c 9f 04 	movdqu 0x4(%r15,%r11,4),%xmm3
  404edd:	66 0f fe d0          	paddd  %xmm0,%xmm2
  404ee1:	66 0f fe d9          	paddd  %xmm1,%xmm3
  404ee5:	f3 43 0f 7f 54 9f f4 	movdqu %xmm2,-0xc(%r15,%r11,4)
  404eec:	f3 43 0f 7f 5c 9f 04 	movdqu %xmm3,0x4(%r15,%r11,4)
  404ef3:	49 83 c3 10          	add    $0x10,%r11
  404ef7:	49 83 c0 02          	add    $0x2,%r8
  404efb:	75 93                	jne    404e90 <parallel_radix_partition+0x380>
  404efd:	49 83 c3 f5          	add    $0xfffffffffffffff5,%r11
  404f01:	4c 8b 45 a8          	mov    -0x58(%rbp),%r8
  404f05:	48 83 7d b8 00       	cmpq   $0x0,-0x48(%rbp)
  404f0a:	74 30                	je     404f3c <parallel_radix_partition+0x42c>
  404f0c:	f3 43 0f 6f 44 9a fc 	movdqu -0x4(%r10,%r11,4),%xmm0
  404f13:	f3 43 0f 6f 4c 9a 0c 	movdqu 0xc(%r10,%r11,4),%xmm1
  404f1a:	f3 43 0f 6f 14 9f    	movdqu (%r15,%r11,4),%xmm2
  404f20:	f3 43 0f 6f 5c 9f 10 	movdqu 0x10(%r15,%r11,4),%xmm3
  404f27:	66 0f fe d0          	paddd  %xmm0,%xmm2
  404f2b:	66 0f fe d9          	paddd  %xmm1,%xmm3
  404f2f:	f3 43 0f 7f 14 9f    	movdqu %xmm2,(%r15,%r11,4)
  404f35:	f3 43 0f 7f 5c 9f 10 	movdqu %xmm3,0x10(%r15,%r11,4)
  404f3c:	4c 39 ca             	cmp    %r9,%rdx
  404f3f:	48 8b 7d c0          	mov    -0x40(%rbp),%rdi
  404f43:	48 8b 75 90          	mov    -0x70(%rbp),%rsi
  404f47:	49 89 c3             	mov    %rax,%r11
  404f4a:	74 15                	je     404f61 <parallel_radix_partition+0x451>
  404f4c:	0f 1f 40 00          	nopl   0x0(%rax)
  404f50:	41 8b 44 ba fc       	mov    -0x4(%r10,%rdi,4),%eax
  404f55:	41 01 04 bf          	add    %eax,(%r15,%rdi,4)
  404f59:	48 ff c7             	inc    %rdi
  404f5c:	4c 39 e7             	cmp    %r12,%rdi
  404f5f:	72 ef                	jb     404f50 <parallel_radix_partition+0x440>
  404f61:	49 ff c5             	inc    %r13
  404f64:	41 39 f5             	cmp    %esi,%r13d
  404f67:	0f 85 c3 fe ff ff    	jne    404e30 <parallel_radix_partition+0x320>
  404f6d:	49 83 fc 01          	cmp    $0x1,%r12
  404f71:	b8 01 00 00 00       	mov    $0x1,%eax
  404f76:	49 0f 47 c4          	cmova  %r12,%rax
  404f7a:	31 d2                	xor    %edx,%edx
  404f7c:	48 83 f8 07          	cmp    $0x7,%rax
  404f80:	4c 8b 5d c8          	mov    -0x38(%rbp),%r11
  404f84:	44 8b 45 a4          	mov    -0x5c(%rbp),%r8d
  404f88:	0f 86 d6 00 00 00    	jbe    405064 <parallel_radix_partition+0x554>
  404f8e:	b9 f8 ff ff ff       	mov    $0xfffffff8,%ecx
  404f93:	31 d2                	xor    %edx,%edx
  404f95:	48 21 c1             	and    %rax,%rcx
  404f98:	0f 84 c6 00 00 00    	je     405064 <parallel_radix_partition+0x554>
  404f9e:	66 41 0f 6e c0       	movd   %r8d,%xmm0
  404fa3:	66 0f 70 c0 00       	pshufd $0x0,%xmm0,%xmm0
  404fa8:	49 8d 57 10          	lea    0x10(%r15),%rdx
  404fac:	49 8d 76 10          	lea    0x10(%r14),%rsi
  404fb0:	66 0f 6f 2d b8 31 00 	movdqa 0x31b8(%rip),%xmm5        # 408170 <_IO_stdin_used+0x1060>
  404fb7:	00 
  404fb8:	66 44 0f 6f 05 bf 31 	movdqa 0x31bf(%rip),%xmm8        # 408180 <_IO_stdin_used+0x1070>
  404fbf:	00 00 
  404fc1:	66 0f 6f 15 c7 31 00 	movdqa 0x31c7(%rip),%xmm2        # 408190 <_IO_stdin_used+0x1080>
  404fc8:	00 
  404fc9:	66 0f 70 d8 f5       	pshufd $0xf5,%xmm0,%xmm3
  404fce:	48 89 cf             	mov    %rcx,%rdi
  404fd1:	66 66 66 66 66 66 2e 	data16 data16 data16 data16 data16 nopw %cs:0x0(%rax,%rax,1)
  404fd8:	0f 1f 84 00 00 00 00 
  404fdf:	00 
  404fe0:	66 0f 6f f5          	movdqa %xmm5,%xmm6
  404fe4:	66 41 0f fe f0       	paddd  %xmm8,%xmm6
  404fe9:	66 0f 6f e5          	movdqa %xmm5,%xmm4
  404fed:	66 0f fe e2          	paddd  %xmm2,%xmm4
  404ff1:	66 0f 70 fd f5       	pshufd $0xf5,%xmm5,%xmm7
  404ff6:	66 0f f4 e8          	pmuludq %xmm0,%xmm5
  404ffa:	66 0f 70 ed e8       	pshufd $0xe8,%xmm5,%xmm5
  404fff:	66 0f f4 fb          	pmuludq %xmm3,%xmm7
  405003:	66 0f 70 ff e8       	pshufd $0xe8,%xmm7,%xmm7
  405008:	66 0f 62 ef          	punpckldq %xmm7,%xmm5
  40500c:	66 0f 70 fe f5       	pshufd $0xf5,%xmm6,%xmm7
  405011:	66 0f f4 f0          	pmuludq %xmm0,%xmm6
  405015:	66 0f 70 f6 e8       	pshufd $0xe8,%xmm6,%xmm6
  40501a:	66 0f f4 fb          	pmuludq %xmm3,%xmm7
  40501e:	66 0f 70 ff e8       	pshufd $0xe8,%xmm7,%xmm7
  405023:	66 0f 62 f7          	punpckldq %xmm7,%xmm6
  405027:	f3 0f 6f 7a f0       	movdqu -0x10(%rdx),%xmm7
  40502c:	f3 0f 6f 0a          	movdqu (%rdx),%xmm1
  405030:	66 0f fe fd          	paddd  %xmm5,%xmm7
  405034:	66 0f fe ce          	paddd  %xmm6,%xmm1
  405038:	f3 0f 7f 7a f0       	movdqu %xmm7,-0x10(%rdx)
  40503d:	f3 0f 7f 0a          	movdqu %xmm1,(%rdx)
  405041:	66 0f 7f 7e f0       	movdqa %xmm7,-0x10(%rsi)
  405046:	66 0f 7f 0e          	movdqa %xmm1,(%rsi)
  40504a:	48 83 c2 20          	add    $0x20,%rdx
  40504e:	48 83 c6 20          	add    $0x20,%rsi
  405052:	48 83 c7 f8          	add    $0xfffffffffffffff8,%rdi
  405056:	66 0f 6f ec          	movdqa %xmm4,%xmm5
  40505a:	75 84                	jne    404fe0 <parallel_radix_partition+0x4d0>
  40505c:	48 39 c8             	cmp    %rcx,%rax
  40505f:	48 89 ca             	mov    %rcx,%rdx
  405062:	74 25                	je     405089 <parallel_radix_partition+0x579>
  405064:	44 89 c0             	mov    %r8d,%eax
  405067:	0f af c2             	imul   %edx,%eax
  40506a:	66 0f 1f 44 00 00    	nopw   0x0(%rax,%rax,1)
  405070:	41 8b 0c 97          	mov    (%r15,%rdx,4),%ecx
  405074:	01 c1                	add    %eax,%ecx
  405076:	41 89 0c 97          	mov    %ecx,(%r15,%rdx,4)
  40507a:	41 89 0c 96          	mov    %ecx,(%r14,%rdx,4)
  40507e:	48 ff c2             	inc    %rdx
  405081:	44 01 c0             	add    %r8d,%eax
  405084:	4c 39 e2             	cmp    %r12,%rdx
  405087:	72 e7                	jb     405070 <parallel_radix_partition+0x560>
  405089:	48 8b 4d 98          	mov    -0x68(%rbp),%rcx
  40508d:	41 d3 e0             	shl    %cl,%r8d
  405090:	48 8b 55 80          	mov    -0x80(%rbp),%rdx
  405094:	44 03 42 2c          	add    0x2c(%rdx),%r8d
  405098:	45 85 db             	test   %r11d,%r11d
  40509b:	47 89 04 a7          	mov    %r8d,(%r15,%r12,4)
  40509f:	48 8b 4d 88          	mov    -0x78(%rbp),%rcx
  4050a3:	48 8b 85 70 ff ff ff 	mov    -0x90(%rbp),%rax
  4050aa:	4c 8b 95 78 ff ff ff 	mov    -0x88(%rbp),%r10
  4050b1:	74 7d                	je     405130 <parallel_radix_partition+0x620>
  4050b3:	4c 8b 4a 08          	mov    0x8(%rdx),%r9
  4050b7:	45 89 d8             	mov    %r11d,%r8d
  4050ba:	41 83 e0 01          	and    $0x1,%r8d
  4050be:	31 d2                	xor    %edx,%edx
  4050c0:	41 83 fb 01          	cmp    $0x1,%r11d
  4050c4:	74 4b                	je     405111 <parallel_radix_partition+0x601>
  4050c6:	45 29 c3             	sub    %r8d,%r11d
  4050c9:	31 d2                	xor    %edx,%edx
  4050cb:	0f 1f 44 00 00       	nopl   0x0(%rax,%rax,1)
  4050d0:	8b 3c d0             	mov    (%rax,%rdx,8),%edi
  4050d3:	44 21 d7             	and    %r10d,%edi
  4050d6:	d3 ef                	shr    %cl,%edi
  4050d8:	49 63 1c be          	movslq (%r14,%rdi,4),%rbx
  4050dc:	48 8b 34 d0          	mov    (%rax,%rdx,8),%rsi
  4050e0:	49 89 34 d9          	mov    %rsi,(%r9,%rbx,8)
  4050e4:	8d 73 01             	lea    0x1(%rbx),%esi
  4050e7:	41 89 34 be          	mov    %esi,(%r14,%rdi,4)
  4050eb:	8b 74 d0 08          	mov    0x8(%rax,%rdx,8),%esi
  4050ef:	44 21 d6             	and    %r10d,%esi
  4050f2:	d3 ee                	shr    %cl,%esi
  4050f4:	49 63 1c b6          	movslq (%r14,%rsi,4),%rbx
  4050f8:	48 8b 7c d0 08       	mov    0x8(%rax,%rdx,8),%rdi
  4050fd:	49 89 3c d9          	mov    %rdi,(%r9,%rbx,8)
  405101:	8d 7b 01             	lea    0x1(%rbx),%edi
  405104:	41 89 3c b6          	mov    %edi,(%r14,%rsi,4)
  405108:	48 83 c2 02          	add    $0x2,%rdx
  40510c:	41 39 d3             	cmp    %edx,%r11d
  40510f:	75 bf                	jne    4050d0 <parallel_radix_partition+0x5c0>
  405111:	45 85 c0             	test   %r8d,%r8d
  405114:	74 1a                	je     405130 <parallel_radix_partition+0x620>
  405116:	44 23 14 d0          	and    (%rax,%rdx,8),%r10d
  40511a:	41 d3 ea             	shr    %cl,%r10d
  40511d:	4b 63 0c 96          	movslq (%r14,%r10,4),%rcx
  405121:	48 8b 14 d0          	mov    (%rax,%rdx,8),%rdx
  405125:	49 89 14 c9          	mov    %rdx,(%r9,%rcx,8)
  405129:	8d 41 01             	lea    0x1(%rcx),%eax
  40512c:	43 89 04 96          	mov    %eax,(%r14,%r10,4)
  405130:	48 8d 65 d8          	lea    -0x28(%rbp),%rsp
  405134:	5b                   	pop    %rbx
  405135:	41 5c                	pop    %r12
  405137:	41 5d                	pop    %r13
  405139:	41 5e                	pop    %r14
  40513b:	41 5f                	pop    %r15
  40513d:	5d                   	pop    %rbp
  40513e:	c3                   	retq   
  40513f:	bf 20 72 40 00       	mov    $0x407220,%edi
  405144:	e8 27 bf ff ff       	callq  401070 <puts@plt>
  405149:	bf 01 00 00 00       	mov    $0x1,%edi
  40514e:	e8 3d c1 ff ff       	callq  401290 <exit@plt>
  405153:	66 66 66 66 2e 0f 1f 	data16 data16 data16 nopw %cs:0x0(%rax,%rax,1)
  40515a:	84 00 00 00 00 00 

0000000000405160 <parallel_radix_partition_optimized>:
  405160:	55                   	push   %rbp
  405161:	48 89 e5             	mov    %rsp,%rbp
  405164:	41 57                	push   %r15
  405166:	41 56                	push   %r14
  405168:	41 55                	push   %r13
  40516a:	41 54                	push   %r12
  40516c:	53                   	push   %rbx
  40516d:	48 83 e4 c0          	and    $0xffffffffffffffc0,%rsp
  405171:	48 81 ec c0 00 00 00 	sub    $0xc0,%rsp
  405178:	48 89 e3             	mov    %rsp,%rbx
  40517b:	4c 8b 3f             	mov    (%rdi),%r15
  40517e:	4c 8b 4f 10          	mov    0x10(%rdi),%r9
  405182:	4c 8b 77 18          	mov    0x18(%rdi),%r14
  405186:	4c 8b 47 20          	mov    0x20(%rdi),%r8
  40518a:	49 8b 70 78          	mov    0x78(%r8),%rsi
  40518e:	48 89 f0             	mov    %rsi,%rax
  405191:	48 c1 e8 20          	shr    $0x20,%rax
  405195:	48 89 43 68          	mov    %rax,0x68(%rbx)
  405199:	8b 47 28             	mov    0x28(%rdi),%eax
  40519c:	4c 8b 6f 30          	mov    0x30(%rdi),%r13
  4051a0:	4c 89 e9             	mov    %r13,%rcx
  4051a3:	48 c1 e9 20          	shr    $0x20,%rcx
  4051a7:	41 ba 01 00 00 00    	mov    $0x1,%r10d
  4051ad:	48 89 4b 60          	mov    %rcx,0x60(%rbx)
  4051b1:	41 d3 e2             	shl    %cl,%r10d
  4051b4:	41 8d 52 ff          	lea    -0x1(%r10),%edx
  4051b8:	44 89 e9             	mov    %r13d,%ecx
  4051bb:	d3 e2                	shl    %cl,%edx
  4051bd:	89 53 28             	mov    %edx,0x28(%rbx)
  4051c0:	48 89 7b 78          	mov    %rdi,0x78(%rbx)
  4051c4:	8b 4f 3c             	mov    0x3c(%rdi),%ecx
  4051c7:	89 4b 5c             	mov    %ecx,0x5c(%rbx)
  4051ca:	48 89 73 20          	mov    %rsi,0x20(%rbx)
  4051ce:	41 89 f4             	mov    %esi,%r12d
  4051d1:	4c 89 4b 38          	mov    %r9,0x38(%rbx)
  4051d5:	4b 8b 14 e1          	mov    (%r9,%r12,8),%rdx
  4051d9:	89 43 2c             	mov    %eax,0x2c(%rbx)
  4051dc:	85 c0                	test   %eax,%eax
  4051de:	74 57                	je     405237 <parallel_radix_partition_optimized+0xd7>
  4051e0:	8b 4b 2c             	mov    0x2c(%rbx),%ecx
  4051e3:	41 89 c9             	mov    %ecx,%r9d
  4051e6:	41 83 e1 01          	and    $0x1,%r9d
  4051ea:	31 c0                	xor    %eax,%eax
  4051ec:	83 f9 01             	cmp    $0x1,%ecx
  4051ef:	8b 7b 28             	mov    0x28(%rbx),%edi
  4051f2:	74 2f                	je     405223 <parallel_radix_partition_optimized+0xc3>
