
a.out:     file format elf64-x86-64


Disassembly of section .init:

0000000000400588 <_init>:
  400588:	48 83 ec 08          	sub    $0x8,%rsp
  40058c:	48 8b 05 65 1a 20 00 	mov    0x201a65(%rip),%rax        # 601ff8 <_DYNAMIC+0x1e0>
  400593:	48 85 c0             	test   %rax,%rax
  400596:	74 05                	je     40059d <_init+0x15>
  400598:	e8 93 00 00 00       	callq  400630 <memcpy@plt+0x10>
  40059d:	48 83 c4 08          	add    $0x8,%rsp
  4005a1:	c3                   	retq   

Disassembly of section .plt:

00000000004005b0 <puts@plt-0x10>:
  4005b0:	ff 35 52 1a 20 00    	pushq  0x201a52(%rip)        # 602008 <_GLOBAL_OFFSET_TABLE_+0x8>
  4005b6:	ff 25 54 1a 20 00    	jmpq   *0x201a54(%rip)        # 602010 <_GLOBAL_OFFSET_TABLE_+0x10>
  4005bc:	0f 1f 40 00          	nopl   0x0(%rax)

00000000004005c0 <puts@plt>:
  4005c0:	ff 25 52 1a 20 00    	jmpq   *0x201a52(%rip)        # 602018 <_GLOBAL_OFFSET_TABLE_+0x18>
  4005c6:	68 00 00 00 00       	pushq  $0x0
  4005cb:	e9 e0 ff ff ff       	jmpq   4005b0 <_init+0x28>

00000000004005d0 <clock@plt>:
  4005d0:	ff 25 4a 1a 20 00    	jmpq   *0x201a4a(%rip)        # 602020 <_GLOBAL_OFFSET_TABLE_+0x20>
  4005d6:	68 01 00 00 00       	pushq  $0x1
  4005db:	e9 d0 ff ff ff       	jmpq   4005b0 <_init+0x28>

00000000004005e0 <printf@plt>:
  4005e0:	ff 25 42 1a 20 00    	jmpq   *0x201a42(%rip)        # 602028 <_GLOBAL_OFFSET_TABLE_+0x28>
  4005e6:	68 02 00 00 00       	pushq  $0x2
  4005eb:	e9 c0 ff ff ff       	jmpq   4005b0 <_init+0x28>

00000000004005f0 <gettimeofday@plt>:
  4005f0:	ff 25 3a 1a 20 00    	jmpq   *0x201a3a(%rip)        # 602030 <_GLOBAL_OFFSET_TABLE_+0x30>
  4005f6:	68 03 00 00 00       	pushq  $0x3
  4005fb:	e9 b0 ff ff ff       	jmpq   4005b0 <_init+0x28>

0000000000400600 <memset@plt>:
  400600:	ff 25 32 1a 20 00    	jmpq   *0x201a32(%rip)        # 602038 <_GLOBAL_OFFSET_TABLE_+0x38>
  400606:	68 04 00 00 00       	pushq  $0x4
  40060b:	e9 a0 ff ff ff       	jmpq   4005b0 <_init+0x28>

0000000000400610 <__libc_start_main@plt>:
  400610:	ff 25 2a 1a 20 00    	jmpq   *0x201a2a(%rip)        # 602040 <_GLOBAL_OFFSET_TABLE_+0x40>
  400616:	68 05 00 00 00       	pushq  $0x5
  40061b:	e9 90 ff ff ff       	jmpq   4005b0 <_init+0x28>

0000000000400620 <memcpy@plt>:
  400620:	ff 25 22 1a 20 00    	jmpq   *0x201a22(%rip)        # 602048 <_GLOBAL_OFFSET_TABLE_+0x48>
  400626:	68 06 00 00 00       	pushq  $0x6
  40062b:	e9 80 ff ff ff       	jmpq   4005b0 <_init+0x28>

Disassembly of section .plt.got:

0000000000400630 <.plt.got>:
  400630:	ff 25 c2 19 20 00    	jmpq   *0x2019c2(%rip)        # 601ff8 <_DYNAMIC+0x1e0>
  400636:	66 90                	xchg   %ax,%ax

Disassembly of section .text:

0000000000400640 <_start>:
  400640:	31 ed                	xor    %ebp,%ebp
  400642:	49 89 d1             	mov    %rdx,%r9
  400645:	5e                   	pop    %rsi
  400646:	48 89 e2             	mov    %rsp,%rdx
  400649:	48 83 e4 f0          	and    $0xfffffffffffffff0,%rsp
  40064d:	50                   	push   %rax
  40064e:	54                   	push   %rsp
  40064f:	49 c7 c0 c0 15 40 00 	mov    $0x4015c0,%r8
  400656:	48 c7 c1 50 15 40 00 	mov    $0x401550,%rcx
  40065d:	48 c7 c7 70 0f 40 00 	mov    $0x400f70,%rdi
  400664:	e8 a7 ff ff ff       	callq  400610 <__libc_start_main@plt>
  400669:	f4                   	hlt    
  40066a:	66 0f 1f 44 00 00    	nopw   0x0(%rax,%rax,1)

0000000000400670 <deregister_tm_clones>:
  400670:	b8 9f 21 60 00       	mov    $0x60219f,%eax
  400675:	55                   	push   %rbp
  400676:	48 2d 98 21 60 00    	sub    $0x602198,%rax
  40067c:	48 83 f8 0e          	cmp    $0xe,%rax
  400680:	48 89 e5             	mov    %rsp,%rbp
  400683:	76 1b                	jbe    4006a0 <deregister_tm_clones+0x30>
  400685:	b8 00 00 00 00       	mov    $0x0,%eax
  40068a:	48 85 c0             	test   %rax,%rax
  40068d:	74 11                	je     4006a0 <deregister_tm_clones+0x30>
  40068f:	5d                   	pop    %rbp
  400690:	bf 98 21 60 00       	mov    $0x602198,%edi
  400695:	ff e0                	jmpq   *%rax
  400697:	66 0f 1f 84 00 00 00 	nopw   0x0(%rax,%rax,1)
  40069e:	00 00 
  4006a0:	5d                   	pop    %rbp
  4006a1:	c3                   	retq   
  4006a2:	0f 1f 40 00          	nopl   0x0(%rax)
  4006a6:	66 2e 0f 1f 84 00 00 	nopw   %cs:0x0(%rax,%rax,1)
  4006ad:	00 00 00 

00000000004006b0 <register_tm_clones>:
  4006b0:	be 98 21 60 00       	mov    $0x602198,%esi
  4006b5:	55                   	push   %rbp
  4006b6:	48 81 ee 98 21 60 00 	sub    $0x602198,%rsi
  4006bd:	48 c1 fe 03          	sar    $0x3,%rsi
  4006c1:	48 89 e5             	mov    %rsp,%rbp
  4006c4:	48 89 f0             	mov    %rsi,%rax
  4006c7:	48 c1 e8 3f          	shr    $0x3f,%rax
  4006cb:	48 01 c6             	add    %rax,%rsi
  4006ce:	48 d1 fe             	sar    %rsi
  4006d1:	74 15                	je     4006e8 <register_tm_clones+0x38>
  4006d3:	b8 00 00 00 00       	mov    $0x0,%eax
  4006d8:	48 85 c0             	test   %rax,%rax
  4006db:	74 0b                	je     4006e8 <register_tm_clones+0x38>
  4006dd:	5d                   	pop    %rbp
  4006de:	bf 98 21 60 00       	mov    $0x602198,%edi
  4006e3:	ff e0                	jmpq   *%rax
  4006e5:	0f 1f 00             	nopl   (%rax)
  4006e8:	5d                   	pop    %rbp
  4006e9:	c3                   	retq   
  4006ea:	66 0f 1f 44 00 00    	nopw   0x0(%rax,%rax,1)

00000000004006f0 <__do_global_dtors_aux>:
  4006f0:	80 3d a9 1a 20 00 00 	cmpb   $0x0,0x201aa9(%rip)        # 6021a0 <completed.7585>
  4006f7:	75 11                	jne    40070a <__do_global_dtors_aux+0x1a>
  4006f9:	55                   	push   %rbp
  4006fa:	48 89 e5             	mov    %rsp,%rbp
  4006fd:	e8 6e ff ff ff       	callq  400670 <deregister_tm_clones>
  400702:	5d                   	pop    %rbp
  400703:	c6 05 96 1a 20 00 01 	movb   $0x1,0x201a96(%rip)        # 6021a0 <completed.7585>
  40070a:	f3 c3                	repz retq 
  40070c:	0f 1f 40 00          	nopl   0x0(%rax)

0000000000400710 <frame_dummy>:
  400710:	bf 10 1e 60 00       	mov    $0x601e10,%edi
  400715:	48 83 3f 00          	cmpq   $0x0,(%rdi)
  400719:	75 05                	jne    400720 <frame_dummy+0x10>
  40071b:	eb 93                	jmp    4006b0 <register_tm_clones>
  40071d:	0f 1f 00             	nopl   (%rax)
  400720:	b8 00 00 00 00       	mov    $0x0,%eax
  400725:	48 85 c0             	test   %rax,%rax
  400728:	74 f1                	je     40071b <frame_dummy+0xb>
  40072a:	55                   	push   %rbp
  40072b:	48 89 e5             	mov    %rsp,%rbp
  40072e:	ff d0                	callq  *%rax
  400730:	5d                   	pop    %rbp
  400731:	e9 7a ff ff ff       	jmpq   4006b0 <register_tm_clones>
  400736:	66 2e 0f 1f 84 00 00 	nopw   %cs:0x0(%rax,%rax,1)
  40073d:	00 00 00 

0000000000400740 <randlc>:
  400740:	80 3d 61 1a 20 00 01 	cmpb   $0x1,0x201a61(%rip)        # 6021a8 <randlc.KS>
  400747:	75 23                	jne    40076c <randlc+0x2c>
  400749:	f2 0f 10 25 5f 1a 20 	movsd  0x201a5f(%rip),%xmm4        # 6021b0 <randlc.R23>
  400750:	00 
  400751:	f2 0f 10 15 67 1a 20 	movsd  0x201a67(%rip),%xmm2        # 6021c0 <randlc.T23>
  400758:	00 
  400759:	f2 0f 10 0d 57 1a 20 	movsd  0x201a57(%rip),%xmm1        # 6021b8 <randlc.R46>
  400760:	00 
  400761:	f2 44 0f 10 05 5e 1a 	movsd  0x201a5e(%rip),%xmm8        # 6021c8 <randlc.T46>
  400768:	20 00 
  40076a:	eb 6c                	jmp    4007d8 <randlc+0x98>
  40076c:	48 b8 00 00 00 00 00 	movabs $0x3e80000000000000,%rax
  400773:	00 80 3e 
  400776:	48 89 05 33 1a 20 00 	mov    %rax,0x201a33(%rip)        # 6021b0 <randlc.R23>
  40077d:	48 b8 00 00 00 00 00 	movabs $0x4160000000000000,%rax
  400784:	00 60 41 
  400787:	48 89 05 32 1a 20 00 	mov    %rax,0x201a32(%rip)        # 6021c0 <randlc.T23>
  40078e:	48 b8 00 00 00 00 00 	movabs $0x3d10000000000000,%rax
  400795:	00 10 3d 
  400798:	48 89 05 19 1a 20 00 	mov    %rax,0x201a19(%rip)        # 6021b8 <randlc.R46>
  40079f:	48 b8 00 00 00 00 00 	movabs $0x42d0000000000000,%rax
  4007a6:	00 d0 42 
  4007a9:	48 89 05 18 1a 20 00 	mov    %rax,0x201a18(%rip)        # 6021c8 <randlc.T46>
  4007b0:	c6 05 f1 19 20 00 01 	movb   $0x1,0x2019f1(%rip)        # 6021a8 <randlc.KS>
  4007b7:	f2 0f 10 25 19 0e 00 	movsd  0xe19(%rip),%xmm4        # 4015d8 <_IO_stdin_used+0x8>
  4007be:	00 
  4007bf:	f2 0f 10 15 19 0e 00 	movsd  0xe19(%rip),%xmm2        # 4015e0 <_IO_stdin_used+0x10>
  4007c6:	00 
  4007c7:	f2 0f 10 0d 19 0e 00 	movsd  0xe19(%rip),%xmm1        # 4015e8 <_IO_stdin_used+0x18>
  4007ce:	00 
  4007cf:	f2 44 0f 10 05 18 0e 	movsd  0xe18(%rip),%xmm8        # 4015f0 <_IO_stdin_used+0x20>
  4007d6:	00 00 
  4007d8:	f2 0f 10 2e          	movsd  (%rsi),%xmm5
  4007dc:	66 0f 28 c4          	movapd %xmm4,%xmm0
  4007e0:	f2 0f 59 c5          	mulsd  %xmm5,%xmm0
  4007e4:	f2 0f 2c c0          	cvttsd2si %xmm0,%eax
  4007e8:	f2 0f 2a f0          	cvtsi2sd %eax,%xmm6
  4007ec:	66 0f 28 c2          	movapd %xmm2,%xmm0
  4007f0:	f2 0f 59 c6          	mulsd  %xmm6,%xmm0
  4007f4:	f2 0f 5c e8          	subsd  %xmm0,%xmm5
  4007f8:	f2 0f 10 07          	movsd  (%rdi),%xmm0
  4007fc:	66 0f 28 fc          	movapd %xmm4,%xmm7
  400800:	f2 0f 59 f8          	mulsd  %xmm0,%xmm7
  400804:	f2 0f 2c c7          	cvttsd2si %xmm7,%eax
  400808:	0f 57 ff             	xorps  %xmm7,%xmm7
  40080b:	f2 0f 2a f8          	cvtsi2sd %eax,%xmm7
  40080f:	66 0f 28 da          	movapd %xmm2,%xmm3
  400813:	f2 0f 59 df          	mulsd  %xmm7,%xmm3
  400817:	f2 0f 5c c3          	subsd  %xmm3,%xmm0
  40081b:	f2 0f 59 f0          	mulsd  %xmm0,%xmm6
  40081f:	f2 0f 59 fd          	mulsd  %xmm5,%xmm7
  400823:	f2 0f 58 fe          	addsd  %xmm6,%xmm7
  400827:	f2 0f 59 e7          	mulsd  %xmm7,%xmm4
  40082b:	f2 0f 2c c4          	cvttsd2si %xmm4,%eax
  40082f:	0f 57 db             	xorps  %xmm3,%xmm3
  400832:	f2 0f 2a d8          	cvtsi2sd %eax,%xmm3
  400836:	f2 0f 59 da          	mulsd  %xmm2,%xmm3
  40083a:	f2 0f 5c fb          	subsd  %xmm3,%xmm7
  40083e:	f2 0f 59 fa          	mulsd  %xmm2,%xmm7
  400842:	f2 0f 59 c5          	mulsd  %xmm5,%xmm0
  400846:	f2 0f 58 c7          	addsd  %xmm7,%xmm0
  40084a:	66 0f 28 d1          	movapd %xmm1,%xmm2
  40084e:	f2 0f 59 d0          	mulsd  %xmm0,%xmm2
  400852:	f2 0f 2c c2          	cvttsd2si %xmm2,%eax
  400856:	0f 57 d2             	xorps  %xmm2,%xmm2
  400859:	f2 0f 2a d0          	cvtsi2sd %eax,%xmm2
  40085d:	f2 41 0f 59 d0       	mulsd  %xmm8,%xmm2
  400862:	f2 0f 5c c2          	subsd  %xmm2,%xmm0
  400866:	f2 0f 11 07          	movsd  %xmm0,(%rdi)
  40086a:	f2 0f 59 c1          	mulsd  %xmm1,%xmm0
  40086e:	c3                   	retq   
  40086f:	90                   	nop

0000000000400870 <create_seq>:
  400870:	8a 0d 32 19 20 00    	mov    0x201932(%rip),%cl        # 6021a8 <randlc.KS>
  400876:	31 c0                	xor    %eax,%eax
  400878:	f2 44 0f 10 25 77 0d 	movsd  0xd77(%rip),%xmm12        # 4015f8 <_IO_stdin_used+0x28>
  40087f:	00 00 
  400881:	49 b8 00 00 00 00 00 	movabs $0x3e80000000000000,%r8
  400888:	00 80 3e 
  40088b:	48 ba 00 00 00 00 00 	movabs $0x4160000000000000,%rdx
  400892:	00 60 41 
  400895:	48 be 00 00 00 00 00 	movabs $0x3d10000000000000,%rsi
  40089c:	00 10 3d 
  40089f:	48 bf 00 00 00 00 00 	movabs $0x42d0000000000000,%rdi
  4008a6:	00 d0 42 
  4008a9:	f2 44 0f 10 05 26 0d 	movsd  0xd26(%rip),%xmm8        # 4015d8 <_IO_stdin_used+0x8>
  4008b0:	00 00 
  4008b2:	f2 44 0f 10 0d 25 0d 	movsd  0xd25(%rip),%xmm9        # 4015e0 <_IO_stdin_used+0x10>
  4008b9:	00 00 
  4008bb:	f2 44 0f 10 15 24 0d 	movsd  0xd24(%rip),%xmm10        # 4015e8 <_IO_stdin_used+0x18>
  4008c2:	00 00 
  4008c4:	f2 44 0f 10 1d 23 0d 	movsd  0xd23(%rip),%xmm11        # 4015f0 <_IO_stdin_used+0x20>
  4008cb:	00 00 
  4008cd:	0f 1f 00             	nopl   (%rax)
  4008d0:	f6 c1 01             	test   $0x1,%cl
  4008d3:	74 2b                	je     400900 <create_seq+0x90>
  4008d5:	f2 44 0f 10 3d d2 18 	movsd  0x2018d2(%rip),%xmm15        # 6021b0 <randlc.R23>
  4008dc:	20 00 
  4008de:	f2 0f 10 2d da 18 20 	movsd  0x2018da(%rip),%xmm5        # 6021c0 <randlc.T23>
  4008e5:	00 
  4008e6:	f2 0f 10 15 ca 18 20 	movsd  0x2018ca(%rip),%xmm2        # 6021b8 <randlc.R46>
  4008ed:	00 
  4008ee:	f2 44 0f 10 2d d1 18 	movsd  0x2018d1(%rip),%xmm13        # 6021c8 <randlc.T46>
  4008f5:	20 00 
  4008f7:	eb 3e                	jmp    400937 <create_seq+0xc7>
  4008f9:	0f 1f 80 00 00 00 00 	nopl   0x0(%rax)
  400900:	4c 89 05 a9 18 20 00 	mov    %r8,0x2018a9(%rip)        # 6021b0 <randlc.R23>
  400907:	48 89 15 b2 18 20 00 	mov    %rdx,0x2018b2(%rip)        # 6021c0 <randlc.T23>
  40090e:	48 89 35 a3 18 20 00 	mov    %rsi,0x2018a3(%rip)        # 6021b8 <randlc.R46>
  400915:	48 89 3d ac 18 20 00 	mov    %rdi,0x2018ac(%rip)        # 6021c8 <randlc.T46>
  40091c:	c6 05 85 18 20 00 01 	movb   $0x1,0x201885(%rip)        # 6021a8 <randlc.KS>
  400923:	66 45 0f 28 eb       	movapd %xmm11,%xmm13
  400928:	66 41 0f 28 d2       	movapd %xmm10,%xmm2
  40092d:	66 41 0f 28 e9       	movapd %xmm9,%xmm5
  400932:	66 45 0f 28 f8       	movapd %xmm8,%xmm15
  400937:	66 41 0f 28 df       	movapd %xmm15,%xmm3
  40093c:	f2 0f 59 d9          	mulsd  %xmm1,%xmm3
  400940:	f2 0f 2c cb          	cvttsd2si %xmm3,%ecx
  400944:	f2 44 0f 2a f1       	cvtsi2sd %ecx,%xmm14
  400949:	66 0f 28 f5          	movapd %xmm5,%xmm6
  40094d:	f2 41 0f 59 f6       	mulsd  %xmm14,%xmm6
  400952:	66 0f 28 d9          	movapd %xmm1,%xmm3
  400956:	f2 0f 5c de          	subsd  %xmm6,%xmm3
  40095a:	66 0f 28 f0          	movapd %xmm0,%xmm6
  40095e:	f2 41 0f 59 f7       	mulsd  %xmm15,%xmm6
  400963:	f2 0f 2c ce          	cvttsd2si %xmm6,%ecx
  400967:	0f 57 f6             	xorps  %xmm6,%xmm6
  40096a:	f2 0f 2a f1          	cvtsi2sd %ecx,%xmm6
  40096e:	66 0f 28 fd          	movapd %xmm5,%xmm7
  400972:	f2 0f 59 fe          	mulsd  %xmm6,%xmm7
  400976:	f2 0f 5c c7          	subsd  %xmm7,%xmm0
  40097a:	66 41 0f 28 fe       	movapd %xmm14,%xmm7
  40097f:	f2 0f 59 f8          	mulsd  %xmm0,%xmm7
  400983:	f2 0f 59 f3          	mulsd  %xmm3,%xmm6
  400987:	f2 0f 58 f7          	addsd  %xmm7,%xmm6
  40098b:	66 41 0f 28 ff       	movapd %xmm15,%xmm7
  400990:	f2 0f 59 fe          	mulsd  %xmm6,%xmm7
  400994:	f2 0f 2c cf          	cvttsd2si %xmm7,%ecx
  400998:	0f 57 ff             	xorps  %xmm7,%xmm7
  40099b:	f2 0f 2a f9          	cvtsi2sd %ecx,%xmm7
  40099f:	f2 0f 59 fd          	mulsd  %xmm5,%xmm7
  4009a3:	f2 0f 5c f7          	subsd  %xmm7,%xmm6
  4009a7:	f2 0f 59 f5          	mulsd  %xmm5,%xmm6
  4009ab:	f2 0f 59 c3          	mulsd  %xmm3,%xmm0
  4009af:	f2 0f 58 c6          	addsd  %xmm6,%xmm0
  4009b3:	66 0f 28 f2          	movapd %xmm2,%xmm6
  4009b7:	f2 0f 59 f0          	mulsd  %xmm0,%xmm6
  4009bb:	f2 0f 2c ce          	cvttsd2si %xmm6,%ecx
  4009bf:	0f 57 f6             	xorps  %xmm6,%xmm6
  4009c2:	f2 0f 2a f1          	cvtsi2sd %ecx,%xmm6
  4009c6:	f2 41 0f 59 f5       	mulsd  %xmm13,%xmm6
  4009cb:	f2 0f 5c c6          	subsd  %xmm6,%xmm0
  4009cf:	66 0f 28 f2          	movapd %xmm2,%xmm6
  4009d3:	f2 0f 59 f0          	mulsd  %xmm0,%xmm6
  4009d7:	66 41 0f 28 ff       	movapd %xmm15,%xmm7
  4009dc:	f2 0f 59 f8          	mulsd  %xmm0,%xmm7
  4009e0:	f2 0f 2c cf          	cvttsd2si %xmm7,%ecx
  4009e4:	0f 57 ff             	xorps  %xmm7,%xmm7
  4009e7:	f2 0f 2a f9          	cvtsi2sd %ecx,%xmm7
  4009eb:	66 0f 28 e5          	movapd %xmm5,%xmm4
  4009ef:	f2 0f 59 e7          	mulsd  %xmm7,%xmm4
  4009f3:	f2 0f 5c c4          	subsd  %xmm4,%xmm0
  4009f7:	66 41 0f 28 e6       	movapd %xmm14,%xmm4
  4009fc:	f2 0f 59 e0          	mulsd  %xmm0,%xmm4
  400a00:	f2 0f 59 fb          	mulsd  %xmm3,%xmm7
  400a04:	f2 0f 58 fc          	addsd  %xmm4,%xmm7
  400a08:	66 41 0f 28 e7       	movapd %xmm15,%xmm4
  400a0d:	f2 0f 59 e7          	mulsd  %xmm7,%xmm4
  400a11:	f2 0f 2c cc          	cvttsd2si %xmm4,%ecx
  400a15:	0f 57 e4             	xorps  %xmm4,%xmm4
  400a18:	f2 0f 2a e1          	cvtsi2sd %ecx,%xmm4
  400a1c:	f2 0f 59 e5          	mulsd  %xmm5,%xmm4
  400a20:	f2 0f 5c fc          	subsd  %xmm4,%xmm7
  400a24:	f2 0f 59 fd          	mulsd  %xmm5,%xmm7
  400a28:	f2 0f 59 c3          	mulsd  %xmm3,%xmm0
  400a2c:	f2 0f 58 c7          	addsd  %xmm7,%xmm0
  400a30:	66 0f 28 e2          	movapd %xmm2,%xmm4
  400a34:	f2 0f 59 e0          	mulsd  %xmm0,%xmm4
  400a38:	f2 0f 2c cc          	cvttsd2si %xmm4,%ecx
  400a3c:	0f 57 e4             	xorps  %xmm4,%xmm4
  400a3f:	f2 0f 2a e1          	cvtsi2sd %ecx,%xmm4
  400a43:	f2 41 0f 59 e5       	mulsd  %xmm13,%xmm4
  400a48:	f2 0f 5c c4          	subsd  %xmm4,%xmm0
  400a4c:	66 0f 28 fa          	movapd %xmm2,%xmm7
  400a50:	f2 0f 59 f8          	mulsd  %xmm0,%xmm7
  400a54:	f2 0f 58 fe          	addsd  %xmm6,%xmm7
  400a58:	66 41 0f 28 e7       	movapd %xmm15,%xmm4
  400a5d:	f2 0f 59 e0          	mulsd  %xmm0,%xmm4
  400a61:	f2 0f 2c cc          	cvttsd2si %xmm4,%ecx
  400a65:	0f 57 e4             	xorps  %xmm4,%xmm4
  400a68:	f2 0f 2a e1          	cvtsi2sd %ecx,%xmm4
  400a6c:	66 0f 28 f5          	movapd %xmm5,%xmm6
  400a70:	f2 0f 59 f4          	mulsd  %xmm4,%xmm6
  400a74:	f2 0f 5c c6          	subsd  %xmm6,%xmm0
  400a78:	66 41 0f 28 f6       	movapd %xmm14,%xmm6
  400a7d:	f2 0f 59 f0          	mulsd  %xmm0,%xmm6
  400a81:	f2 0f 59 e3          	mulsd  %xmm3,%xmm4
  400a85:	f2 0f 58 e6          	addsd  %xmm6,%xmm4
  400a89:	66 41 0f 28 f7       	movapd %xmm15,%xmm6
  400a8e:	f2 0f 59 f4          	mulsd  %xmm4,%xmm6
  400a92:	f2 0f 2c ce          	cvttsd2si %xmm6,%ecx
  400a96:	0f 57 f6             	xorps  %xmm6,%xmm6
  400a99:	f2 0f 2a f1          	cvtsi2sd %ecx,%xmm6
  400a9d:	f2 0f 59 f5          	mulsd  %xmm5,%xmm6
  400aa1:	f2 0f 5c e6          	subsd  %xmm6,%xmm4
  400aa5:	f2 0f 59 e5          	mulsd  %xmm5,%xmm4
  400aa9:	f2 0f 59 c3          	mulsd  %xmm3,%xmm0
  400aad:	f2 0f 58 c4          	addsd  %xmm4,%xmm0
  400ab1:	66 0f 28 e2          	movapd %xmm2,%xmm4
  400ab5:	f2 0f 59 e0          	mulsd  %xmm0,%xmm4
  400ab9:	f2 0f 2c cc          	cvttsd2si %xmm4,%ecx
  400abd:	0f 57 e4             	xorps  %xmm4,%xmm4
  400ac0:	f2 0f 2a e1          	cvtsi2sd %ecx,%xmm4
  400ac4:	f2 41 0f 59 e5       	mulsd  %xmm13,%xmm4
  400ac9:	f2 0f 5c c4          	subsd  %xmm4,%xmm0
  400acd:	66 0f 28 f2          	movapd %xmm2,%xmm6
  400ad1:	f2 0f 59 f0          	mulsd  %xmm0,%xmm6
  400ad5:	f2 0f 58 f7          	addsd  %xmm7,%xmm6
  400ad9:	66 41 0f 28 e7       	movapd %xmm15,%xmm4
  400ade:	f2 0f 59 e0          	mulsd  %xmm0,%xmm4
  400ae2:	f2 0f 2c cc          	cvttsd2si %xmm4,%ecx
  400ae6:	0f 57 e4             	xorps  %xmm4,%xmm4
  400ae9:	f2 0f 2a e1          	cvtsi2sd %ecx,%xmm4
  400aed:	66 0f 28 fd          	movapd %xmm5,%xmm7
  400af1:	f2 0f 59 fc          	mulsd  %xmm4,%xmm7
  400af5:	f2 0f 5c c7          	subsd  %xmm7,%xmm0
  400af9:	f2 44 0f 59 f0       	mulsd  %xmm0,%xmm14
  400afe:	f2 0f 59 e3          	mulsd  %xmm3,%xmm4
  400b02:	f2 41 0f 58 e6       	addsd  %xmm14,%xmm4
  400b07:	f2 44 0f 59 fc       	mulsd  %xmm4,%xmm15
  400b0c:	f2 41 0f 2c cf       	cvttsd2si %xmm15,%ecx
  400b11:	0f 57 ff             	xorps  %xmm7,%xmm7
  400b14:	f2 0f 2a f9          	cvtsi2sd %ecx,%xmm7
  400b18:	f2 0f 59 fd          	mulsd  %xmm5,%xmm7
  400b1c:	f2 0f 5c e7          	subsd  %xmm7,%xmm4
  400b20:	f2 0f 59 e5          	mulsd  %xmm5,%xmm4
  400b24:	f2 0f 59 c3          	mulsd  %xmm3,%xmm0
  400b28:	f2 0f 58 c4          	addsd  %xmm4,%xmm0
  400b2c:	66 0f 28 da          	movapd %xmm2,%xmm3
  400b30:	f2 0f 59 d8          	mulsd  %xmm0,%xmm3
  400b34:	f2 0f 2c cb          	cvttsd2si %xmm3,%ecx
  400b38:	0f 57 db             	xorps  %xmm3,%xmm3
  400b3b:	f2 0f 2a d9          	cvtsi2sd %ecx,%xmm3
  400b3f:	f2 41 0f 59 dd       	mulsd  %xmm13,%xmm3
  400b44:	f2 0f 5c c3          	subsd  %xmm3,%xmm0
  400b48:	f2 0f 59 d0          	mulsd  %xmm0,%xmm2
  400b4c:	f2 0f 58 d6          	addsd  %xmm6,%xmm2
  400b50:	f2 41 0f 59 d4       	mulsd  %xmm12,%xmm2
  400b55:	f2 0f 2c ca          	cvttsd2si %xmm2,%ecx
  400b59:	89 88 f0 21 60 08    	mov    %ecx,0x86021f0(%rax)
  400b5f:	48 83 c0 04          	add    $0x4,%rax
  400b63:	b1 01                	mov    $0x1,%cl
  400b65:	48 3d 00 00 00 08    	cmp    $0x8000000,%rax
  400b6b:	0f 85 5f fd ff ff    	jne    4008d0 <create_seq+0x60>
  400b71:	c3                   	retq   
  400b72:	66 66 66 66 66 2e 0f 	data16 data16 data16 data16 nopw %cs:0x0(%rax,%rax,1)
  400b79:	1f 84 00 00 00 00 00 

0000000000400b80 <full_verify>:
  400b80:	4c 8b 0d b9 16 20 18 	mov    0x182016b9(%rip),%r9        # 18602240 <key_buff_ptr_global>
  400b87:	31 c9                	xor    %ecx,%ecx
  400b89:	41 b8 ff ff ff 01    	mov    $0x1ffffff,%r8d
  400b8f:	90                   	nop
  400b90:	48 63 34 8d 30 22 60 	movslq 0x10602230(,%rcx,4),%rsi
  400b97:	10 
  400b98:	48 8d 79 20          	lea    0x20(%rcx),%rdi
  400b9c:	48 81 ff ff ff ff 01 	cmp    $0x1ffffff,%rdi
  400ba3:	49 0f 4f f8          	cmovg  %r8,%rdi
  400ba7:	48 63 3c bd 30 22 60 	movslq 0x10602230(,%rdi,4),%rdi
  400bae:	10 
  400baf:	49 63 14 b1          	movslq (%r9,%rsi,4),%rdx
  400bb3:	48 8d 42 ff          	lea    -0x1(%rdx),%rax
  400bb7:	41 89 04 b1          	mov    %eax,(%r9,%rsi,4)
  400bbb:	89 34 95 ec 21 60 08 	mov    %esi,0x86021ec(,%rdx,4)
  400bc2:	0f 18 0c 8d 30 23 60 	prefetcht0 0x10602330(,%rcx,4)
  400bc9:	10 
  400bca:	48 ff c1             	inc    %rcx
  400bcd:	41 0f 18 0c b9       	prefetcht0 (%r9,%rdi,4)
  400bd2:	48 81 f9 00 00 00 02 	cmp    $0x2000000,%rcx
  400bd9:	75 b5                	jne    400b90 <full_verify+0x10>
  400bdb:	66 0f 6e 05 0d 16 20 	movd   0x820160d(%rip),%xmm0        # 86021f0 <key_array>
  400be2:	08 
  400be3:	66 0f 70 c8 24       	pshufd $0x24,%xmm0,%xmm1
  400be8:	0f 10 05 05 16 20 08 	movups 0x8201605(%rip),%xmm0        # 86021f4 <key_array+0x4>
  400bef:	0f 10 15 0e 16 20 08 	movups 0x820160e(%rip),%xmm2        # 8602204 <key_array+0x14>
  400bf6:	0f c6 c8 03          	shufps $0x3,%xmm0,%xmm1
  400bfa:	0f c6 c8 98          	shufps $0x98,%xmm0,%xmm1
  400bfe:	66 0f 66 c8          	pcmpgtd %xmm0,%xmm1
  400c02:	0f c6 c2 03          	shufps $0x3,%xmm2,%xmm0
  400c06:	0f c6 c2 98          	shufps $0x98,%xmm2,%xmm0
  400c0a:	66 0f 72 d1 1f       	psrld  $0x1f,%xmm1
  400c0f:	66 0f 66 c2          	pcmpgtd %xmm2,%xmm0
  400c13:	66 0f 72 d0 1f       	psrld  $0x1f,%xmm0
  400c18:	31 c0                	xor    %eax,%eax
  400c1a:	66 0f 1f 44 00 00    	nopw   0x0(%rax,%rax,1)
  400c20:	0f 10 98 14 22 60 08 	movups 0x8602214(%rax),%xmm3
  400c27:	0f c6 d3 03          	shufps $0x3,%xmm3,%xmm2
  400c2b:	0f c6 d3 98          	shufps $0x98,%xmm3,%xmm2
  400c2f:	66 0f 66 d3          	pcmpgtd %xmm3,%xmm2
  400c33:	66 0f 72 d2 1f       	psrld  $0x1f,%xmm2
  400c38:	66 0f fe d1          	paddd  %xmm1,%xmm2
  400c3c:	0f 10 88 24 22 60 08 	movups 0x8602224(%rax),%xmm1
  400c43:	0f c6 d9 03          	shufps $0x3,%xmm1,%xmm3
  400c47:	0f c6 d9 98          	shufps $0x98,%xmm1,%xmm3
  400c4b:	66 0f 66 d9          	pcmpgtd %xmm1,%xmm3
  400c4f:	66 0f 72 d3 1f       	psrld  $0x1f,%xmm3
  400c54:	66 0f fe d8          	paddd  %xmm0,%xmm3
  400c58:	0f 10 80 34 22 60 08 	movups 0x8602234(%rax),%xmm0
  400c5f:	0f c6 c8 03          	shufps $0x3,%xmm0,%xmm1
  400c63:	0f c6 c8 98          	shufps $0x98,%xmm0,%xmm1
  400c67:	66 0f 66 c8          	pcmpgtd %xmm0,%xmm1
  400c6b:	66 0f 72 d1 1f       	psrld  $0x1f,%xmm1
  400c70:	66 0f fe ca          	paddd  %xmm2,%xmm1
  400c74:	0f 10 90 44 22 60 08 	movups 0x8602244(%rax),%xmm2
  400c7b:	0f c6 c2 03          	shufps $0x3,%xmm2,%xmm0
  400c7f:	0f c6 c2 98          	shufps $0x98,%xmm2,%xmm0
  400c83:	66 0f 66 c2          	pcmpgtd %xmm2,%xmm0
  400c87:	66 0f 72 d0 1f       	psrld  $0x1f,%xmm0
  400c8c:	66 0f fe c3          	paddd  %xmm3,%xmm0
  400c90:	48 83 c0 40          	add    $0x40,%rax
  400c94:	48 3d c0 ff ff 07    	cmp    $0x7ffffc0,%rax
  400c9a:	75 84                	jne    400c20 <full_verify+0xa0>
  400c9c:	66 0f fe c1          	paddd  %xmm1,%xmm0
  400ca0:	66 0f 70 c8 4e       	pshufd $0x4e,%xmm0,%xmm1
  400ca5:	66 0f fe c8          	paddd  %xmm0,%xmm1
  400ca9:	66 0f 70 c2 e7       	pshufd $0xe7,%xmm2,%xmm0
  400cae:	66 0f 7e c0          	movd   %xmm0,%eax
  400cb2:	66 0f 70 c1 e5       	pshufd $0xe5,%xmm1,%xmm0
  400cb7:	66 0f fe c1          	paddd  %xmm1,%xmm0
  400cbb:	66 0f 7e c1          	movd   %xmm0,%ecx
  400cbf:	ba e4 ff ff 07       	mov    $0x7ffffe4,%edx
  400cc4:	8b 92 f0 21 60 08    	mov    0x86021f0(%rdx),%edx
  400cca:	31 f6                	xor    %esi,%esi
  400ccc:	39 d0                	cmp    %edx,%eax
  400cce:	40 0f 9f c6          	setg   %sil
  400cd2:	01 ce                	add    %ecx,%esi
  400cd4:	b8 e8 ff ff 07       	mov    $0x7ffffe8,%eax
  400cd9:	48 8b 80 f0 21 60 08 	mov    0x86021f0(%rax),%rax
  400ce0:	31 c9                	xor    %ecx,%ecx
  400ce2:	39 c2                	cmp    %eax,%edx
  400ce4:	0f 9f c1             	setg   %cl
  400ce7:	01 f1                	add    %esi,%ecx
  400ce9:	48 89 c2             	mov    %rax,%rdx
  400cec:	48 c1 ea 20          	shr    $0x20,%rdx
  400cf0:	31 f6                	xor    %esi,%esi
  400cf2:	39 d0                	cmp    %edx,%eax
  400cf4:	40 0f 9f c6          	setg   %sil
  400cf8:	01 ce                	add    %ecx,%esi
  400cfa:	b8 f0 ff ff 07       	mov    $0x7fffff0,%eax
  400cff:	48 8b 80 f0 21 60 08 	mov    0x86021f0(%rax),%rax
  400d06:	31 c9                	xor    %ecx,%ecx
  400d08:	39 c2                	cmp    %eax,%edx
  400d0a:	0f 9f c1             	setg   %cl
  400d0d:	01 f1                	add    %esi,%ecx
  400d0f:	48 89 c2             	mov    %rax,%rdx
  400d12:	48 c1 ea 20          	shr    $0x20,%rdx
  400d16:	31 f6                	xor    %esi,%esi
  400d18:	39 d0                	cmp    %edx,%eax
  400d1a:	40 0f 9f c6          	setg   %sil
  400d1e:	01 ce                	add    %ecx,%esi
  400d20:	b8 f8 ff ff 07       	mov    $0x7fffff8,%eax
  400d25:	48 8b 80 f0 21 60 08 	mov    0x86021f0(%rax),%rax
  400d2c:	31 c9                	xor    %ecx,%ecx
  400d2e:	39 c2                	cmp    %eax,%edx
  400d30:	0f 9f c1             	setg   %cl
  400d33:	01 f1                	add    %esi,%ecx
  400d35:	48 89 c2             	mov    %rax,%rdx
  400d38:	48 c1 ea 20          	shr    $0x20,%rdx
  400d3c:	31 f6                	xor    %esi,%esi
  400d3e:	39 d0                	cmp    %edx,%eax
  400d40:	40 0f 9f c6          	setg   %sil
  400d44:	01 ce                	add    %ecx,%esi
  400d46:	74 0c                	je     400d54 <full_verify+0x1d4>
  400d48:	bf 20 16 40 00       	mov    $0x401620,%edi
  400d4d:	31 c0                	xor    %eax,%eax
  400d4f:	e9 8c f8 ff ff       	jmpq   4005e0 <printf@plt>
  400d54:	ff 05 de 14 20 18    	incl   0x182014de(%rip)        # 18602238 <passed_verification>
  400d5a:	c3                   	retq   
  400d5b:	0f 1f 44 00 00       	nopl   0x0(%rax,%rax,1)

0000000000400d60 <rank>:
  400d60:	55                   	push   %rbp
  400d61:	41 57                	push   %r15
  400d63:	41 56                	push   %r14
  400d65:	53                   	push   %rbx
  400d66:	50                   	push   %rax
  400d67:	41 89 fe             	mov    %edi,%r14d
  400d6a:	49 63 c6             	movslq %r14d,%rax
  400d6d:	89 04 85 f0 21 60 08 	mov    %eax,0x86021f0(,%rax,4)
  400d74:	b9 00 00 20 00       	mov    $0x200000,%ecx
  400d79:	29 c1                	sub    %eax,%ecx
  400d7b:	89 0c 85 18 22 60 08 	mov    %ecx,0x8602218(,%rax,4)
  400d82:	48 8b 05 87 14 20 10 	mov    0x10201487(%rip),%rax        # 10602210 <test_index_array>
  400d89:	48 63 c8             	movslq %eax,%rcx
  400d8c:	8b 2c 8d f0 21 60 08 	mov    0x86021f0(,%rcx,4),%ebp
  400d93:	89 2d 37 14 20 00    	mov    %ebp,0x201437(%rip)        # 6021d0 <partial_verify_vals>
  400d99:	48 c1 f8 20          	sar    $0x20,%rax
  400d9d:	8b 04 85 f0 21 60 08 	mov    0x86021f0(,%rax,4),%eax
  400da4:	89 05 2a 14 20 00    	mov    %eax,0x20142a(%rip)        # 6021d4 <partial_verify_vals+0x4>
  400daa:	48 8b 05 67 14 20 10 	mov    0x10201467(%rip),%rax        # 10602218 <test_index_array+0x8>
  400db1:	48 63 c8             	movslq %eax,%rcx
  400db4:	8b 0c 8d f0 21 60 08 	mov    0x86021f0(,%rcx,4),%ecx
  400dbb:	89 0d 17 14 20 00    	mov    %ecx,0x201417(%rip)        # 6021d8 <partial_verify_vals+0x8>
  400dc1:	48 c1 f8 20          	sar    $0x20,%rax
  400dc5:	8b 04 85 f0 21 60 08 	mov    0x86021f0(,%rax,4),%eax
  400dcc:	89 05 0a 14 20 00    	mov    %eax,0x20140a(%rip)        # 6021dc <partial_verify_vals+0xc>
  400dd2:	48 63 05 47 14 20 10 	movslq 0x10201447(%rip),%rax        # 10602220 <test_index_array+0x10>
  400dd9:	8b 04 85 f0 21 60 08 	mov    0x86021f0(,%rax,4),%eax
  400de0:	89 05 fa 13 20 00    	mov    %eax,0x2013fa(%rip)        # 6021e0 <partial_verify_vals+0x10>
  400de6:	bf 30 22 60 10       	mov    $0x10602230,%edi
  400deb:	be f0 21 60 08       	mov    $0x86021f0,%esi
  400df0:	ba 00 00 00 08       	mov    $0x8000000,%edx
  400df5:	e8 26 f8 ff ff       	callq  400620 <memcpy@plt>
  400dfa:	31 db                	xor    %ebx,%ebx
  400dfc:	bf f0 21 60 00       	mov    $0x6021f0,%edi
  400e01:	31 f6                	xor    %esi,%esi
  400e03:	ba 00 00 80 00       	mov    $0x800000,%edx
  400e08:	e8 f3 f7 ff ff       	callq  400600 <memset@plt>
  400e0d:	b8 ff ff ff 01       	mov    $0x1ffffff,%eax
  400e12:	66 66 66 66 66 2e 0f 	data16 data16 data16 data16 nopw %cs:0x0(%rax,%rax,1)
  400e19:	1f 84 00 00 00 00 00 
  400e20:	48 63 0c 9d 30 22 60 	movslq 0x10602230(,%rbx,4),%rcx
  400e27:	10 
  400e28:	48 8d 53 20          	lea    0x20(%rbx),%rdx
  400e2c:	48 81 fa ff ff ff 01 	cmp    $0x1ffffff,%rdx
  400e33:	48 0f 4f d0          	cmovg  %rax,%rdx
  400e37:	48 63 14 95 30 22 60 	movslq 0x10602230(,%rdx,4),%rdx
  400e3e:	10 
  400e3f:	ff 04 8d f0 21 60 00 	incl   0x6021f0(,%rcx,4)
  400e46:	0f 18 0c 9d 30 23 60 	prefetcht0 0x10602330(,%rbx,4)
  400e4d:	10 
  400e4e:	48 ff c3             	inc    %rbx
  400e51:	0f 18 0c 95 f0 21 60 	prefetcht0 0x6021f0(,%rdx,4)
  400e58:	00 
  400e59:	48 81 fb 00 00 00 02 	cmp    $0x2000000,%rbx
  400e60:	75 be                	jne    400e20 <rank+0xc0>
  400e62:	48 8b 05 87 13 20 00 	mov    0x201387(%rip),%rax        # 6021f0 <key_buff1>
  400e69:	48 89 c1             	mov    %rax,%rcx
  400e6c:	48 c1 e9 20          	shr    $0x20,%rcx
  400e70:	01 c1                	add    %eax,%ecx
  400e72:	89 0d 7c 13 20 00    	mov    %ecx,0x20137c(%rip)        # 6021f4 <key_buff1+0x4>
  400e78:	48 8b 05 79 13 20 00 	mov    0x201379(%rip),%rax        # 6021f8 <key_buff1+0x8>
  400e7f:	01 c1                	add    %eax,%ecx
  400e81:	89 0d 71 13 20 00    	mov    %ecx,0x201371(%rip)        # 6021f8 <key_buff1+0x8>
  400e87:	48 c1 e8 20          	shr    $0x20,%rax
  400e8b:	01 c8                	add    %ecx,%eax
  400e8d:	89 05 69 13 20 00    	mov    %eax,0x201369(%rip)        # 6021fc <key_buff1+0xc>
  400e93:	48 c7 c1 10 00 80 ff 	mov    $0xffffffffff800010,%rcx
  400e9a:	66 0f 1f 44 00 00    	nopw   0x0(%rax,%rax,1)
  400ea0:	03 81 f0 21 e0 00    	add    0xe021f0(%rcx),%eax
  400ea6:	89 81 f0 21 e0 00    	mov    %eax,0xe021f0(%rcx)
  400eac:	03 81 f4 21 e0 00    	add    0xe021f4(%rcx),%eax
  400eb2:	89 81 f4 21 e0 00    	mov    %eax,0xe021f4(%rcx)
  400eb8:	03 81 f8 21 e0 00    	add    0xe021f8(%rcx),%eax
  400ebe:	89 81 f8 21 e0 00    	mov    %eax,0xe021f8(%rcx)
  400ec4:	03 81 fc 21 e0 00    	add    0xe021fc(%rcx),%eax
  400eca:	89 81 fc 21 e0 00    	mov    %eax,0xe021fc(%rcx)
  400ed0:	48 83 c1 10          	add    $0x10,%rcx
  400ed4:	75 ca                	jne    400ea0 <rank+0x140>
  400ed6:	41 bf 16 00 00 00    	mov    $0x16,%r15d
  400edc:	31 db                	xor    %ebx,%ebx
  400ede:	eb 0a                	jmp    400eea <rank+0x18a>
  400ee0:	8b 2c 9d d4 21 60 00 	mov    0x6021d4(,%rbx,4),%ebp
  400ee7:	48 ff c3             	inc    %rbx
  400eea:	81 fd ff ff ff 01    	cmp    $0x1ffffff,%ebp
  400ef0:	77 4f                	ja     400f41 <rank+0x1e1>
  400ef2:	48 63 c5             	movslq %ebp,%rax
  400ef5:	8b 04 85 ec 21 60 00 	mov    0x6021ec(,%rax,4),%eax
  400efc:	8b 0c 9d f0 21 60 10 	mov    0x106021f0(,%rbx,4),%ecx
  400f03:	83 fb 04             	cmp    $0x4,%ebx
  400f06:	77 0b                	ja     400f13 <rank+0x1b3>
  400f08:	41 0f a3 df          	bt     %ebx,%r15d
  400f0c:	73 05                	jae    400f13 <rank+0x1b3>
  400f0e:	44 01 f1             	add    %r14d,%ecx
  400f11:	eb 03                	jmp    400f16 <rank+0x1b6>
  400f13:	44 29 f1             	sub    %r14d,%ecx
  400f16:	39 c8                	cmp    %ecx,%eax
  400f18:	75 16                	jne    400f30 <rank+0x1d0>
  400f1a:	ff 05 18 13 20 18    	incl   0x18201318(%rip)        # 18602238 <passed_verification>
  400f20:	eb 1f                	jmp    400f41 <rank+0x1e1>
  400f22:	66 66 66 66 66 2e 0f 	data16 data16 data16 data16 nopw %cs:0x0(%rax,%rax,1)
  400f29:	1f 84 00 00 00 00 00 
  400f30:	bf 4d 16 40 00       	mov    $0x40164d,%edi
  400f35:	31 c0                	xor    %eax,%eax
  400f37:	44 89 f6             	mov    %r14d,%esi
  400f3a:	89 da                	mov    %ebx,%edx
  400f3c:	e8 9f f6 ff ff       	callq  4005e0 <printf@plt>
  400f41:	48 83 fb 04          	cmp    $0x4,%rbx
  400f45:	75 99                	jne    400ee0 <rank+0x180>
  400f47:	41 83 fe 0a          	cmp    $0xa,%r14d
  400f4b:	75 0b                	jne    400f58 <rank+0x1f8>
  400f4d:	48 c7 05 e8 12 20 18 	movq   $0x6021f0,0x182012e8(%rip)        # 18602240 <key_buff_ptr_global>
  400f54:	f0 21 60 00 
  400f58:	48 83 c4 08          	add    $0x8,%rsp
  400f5c:	5b                   	pop    %rbx
  400f5d:	41 5e                	pop    %r14
  400f5f:	41 5f                	pop    %r15
  400f61:	5d                   	pop    %rbp
  400f62:	c3                   	retq   
  400f63:	66 66 66 66 2e 0f 1f 	data16 data16 data16 nopw %cs:0x0(%rax,%rax,1)
  400f6a:	84 00 00 00 00 00 

0000000000400f70 <main>:
  400f70:	53                   	push   %rbx
  400f71:	8b 05 b9 11 20 00    	mov    0x2011b9(%rip),%eax        # 602130 <B_test_index_array+0x10>
  400f77:	89 05 a3 12 20 10    	mov    %eax,0x102012a3(%rip)        # 10602220 <test_index_array+0x10>
  400f7d:	0f 28 05 9c 11 20 00 	movaps 0x20119c(%rip),%xmm0        # 602120 <B_test_index_array>
  400f84:	0f 29 05 85 12 20 10 	movaps %xmm0,0x10201285(%rip)        # 10602210 <test_index_array>
  400f8b:	8b 05 bf 11 20 00    	mov    0x2011bf(%rip),%eax        # 602150 <B_test_rank_array+0x10>
  400f91:	89 05 69 12 20 10    	mov    %eax,0x10201269(%rip)        # 10602200 <test_rank_array+0x10>
  400f97:	0f 28 05 a2 11 20 00 	movaps 0x2011a2(%rip),%xmm0        # 602140 <B_test_rank_array>
  400f9e:	0f 29 05 4b 12 20 10 	movaps %xmm0,0x1020124b(%rip)        # 106021f0 <test_rank_array>
  400fa5:	bf 50 17 40 00       	mov    $0x401750,%edi
  400faa:	e8 11 f6 ff ff       	callq  4005c0 <puts@plt>
  400faf:	31 db                	xor    %ebx,%ebx
  400fb1:	bf 85 16 40 00       	mov    $0x401685,%edi
  400fb6:	be 00 00 00 02       	mov    $0x2000000,%esi
  400fbb:	ba 42 00 00 00       	mov    $0x42,%edx
  400fc0:	31 c0                	xor    %eax,%eax
  400fc2:	e8 19 f6 ff ff       	callq  4005e0 <printf@plt>
  400fc7:	bf 9d 16 40 00       	mov    $0x40169d,%edi
  400fcc:	be 0a 00 00 00       	mov    $0xa,%esi
  400fd1:	31 c0                	xor    %eax,%eax
  400fd3:	e8 08 f6 ff ff       	callq  4005e0 <printf@plt>
  400fd8:	bf 01 00 00 00       	mov    $0x1,%edi
  400fdd:	31 c0                	xor    %eax,%eax
  400fdf:	e8 7c 04 00 00       	callq  401460 <timer_clear>
  400fe4:	f2 0f 10 05 14 06 00 	movsd  0x614(%rip),%xmm0        # 401600 <_IO_stdin_used+0x30>
  400feb:	00 
  400fec:	f2 0f 10 0d 14 06 00 	movsd  0x614(%rip),%xmm1        # 401608 <_IO_stdin_used+0x38>
  400ff3:	00 
  400ff4:	e8 77 f8 ff ff       	callq  400870 <create_seq>
  400ff9:	bf 01 00 00 00       	mov    $0x1,%edi
  400ffe:	e8 5d fd ff ff       	callq  400d60 <rank>
  401003:	c7 05 2b 12 20 18 00 	movl   $0x0,0x1820122b(%rip)        # 18602238 <passed_verification>
  40100a:	00 00 00 
  40100d:	bf 39 17 40 00       	mov    $0x401739,%edi
  401012:	e8 a9 f5 ff ff       	callq  4005c0 <puts@plt>
  401017:	e8 b4 f5 ff ff       	callq  4005d0 <clock@plt>
  40101c:	48 89 05 2d 14 20 18 	mov    %rax,0x1820142d(%rip)        # 18602450 <start>
  401023:	bf b0 16 40 00       	mov    $0x4016b0,%edi
  401028:	be 01 00 00 00       	mov    $0x1,%esi
  40102d:	31 c0                	xor    %eax,%eax
  40102f:	e8 ac f5 ff ff       	callq  4005e0 <printf@plt>
  401034:	bf 01 00 00 00       	mov    $0x1,%edi
  401039:	e8 22 fd ff ff       	callq  400d60 <rank>
  40103e:	bf b0 16 40 00       	mov    $0x4016b0,%edi
  401043:	be 02 00 00 00       	mov    $0x2,%esi
  401048:	31 c0                	xor    %eax,%eax
  40104a:	e8 91 f5 ff ff       	callq  4005e0 <printf@plt>
  40104f:	bf 02 00 00 00       	mov    $0x2,%edi
  401054:	e8 07 fd ff ff       	callq  400d60 <rank>
  401059:	bf b0 16 40 00       	mov    $0x4016b0,%edi
  40105e:	be 03 00 00 00       	mov    $0x3,%esi
  401063:	31 c0                	xor    %eax,%eax
  401065:	e8 76 f5 ff ff       	callq  4005e0 <printf@plt>
  40106a:	bf 03 00 00 00       	mov    $0x3,%edi
  40106f:	e8 ec fc ff ff       	callq  400d60 <rank>
  401074:	bf b0 16 40 00       	mov    $0x4016b0,%edi
  401079:	be 04 00 00 00       	mov    $0x4,%esi
  40107e:	31 c0                	xor    %eax,%eax
  401080:	e8 5b f5 ff ff       	callq  4005e0 <printf@plt>
  401085:	bf 04 00 00 00       	mov    $0x4,%edi
  40108a:	e8 d1 fc ff ff       	callq  400d60 <rank>
  40108f:	bf b0 16 40 00       	mov    $0x4016b0,%edi
  401094:	be 05 00 00 00       	mov    $0x5,%esi
  401099:	31 c0                	xor    %eax,%eax
  40109b:	e8 40 f5 ff ff       	callq  4005e0 <printf@plt>
  4010a0:	bf 05 00 00 00       	mov    $0x5,%edi
  4010a5:	e8 b6 fc ff ff       	callq  400d60 <rank>
  4010aa:	bf b0 16 40 00       	mov    $0x4016b0,%edi
  4010af:	be 06 00 00 00       	mov    $0x6,%esi
  4010b4:	31 c0                	xor    %eax,%eax
  4010b6:	e8 25 f5 ff ff       	callq  4005e0 <printf@plt>
  4010bb:	bf 06 00 00 00       	mov    $0x6,%edi
  4010c0:	e8 9b fc ff ff       	callq  400d60 <rank>
  4010c5:	bf b0 16 40 00       	mov    $0x4016b0,%edi
  4010ca:	be 07 00 00 00       	mov    $0x7,%esi
  4010cf:	31 c0                	xor    %eax,%eax
  4010d1:	e8 0a f5 ff ff       	callq  4005e0 <printf@plt>
  4010d6:	bf 07 00 00 00       	mov    $0x7,%edi
  4010db:	e8 80 fc ff ff       	callq  400d60 <rank>
  4010e0:	bf b0 16 40 00       	mov    $0x4016b0,%edi
  4010e5:	be 08 00 00 00       	mov    $0x8,%esi
  4010ea:	31 c0                	xor    %eax,%eax
  4010ec:	e8 ef f4 ff ff       	callq  4005e0 <printf@plt>
  4010f1:	bf 08 00 00 00       	mov    $0x8,%edi
  4010f6:	e8 65 fc ff ff       	callq  400d60 <rank>
  4010fb:	bf b0 16 40 00       	mov    $0x4016b0,%edi
  401100:	be 09 00 00 00       	mov    $0x9,%esi
  401105:	31 c0                	xor    %eax,%eax
  401107:	e8 d4 f4 ff ff       	callq  4005e0 <printf@plt>
  40110c:	bf 09 00 00 00       	mov    $0x9,%edi
  401111:	e8 4a fc ff ff       	callq  400d60 <rank>
  401116:	bf b0 16 40 00       	mov    $0x4016b0,%edi
  40111b:	be 0a 00 00 00       	mov    $0xa,%esi
  401120:	31 c0                	xor    %eax,%eax
  401122:	e8 b9 f4 ff ff       	callq  4005e0 <printf@plt>
  401127:	bf 0a 00 00 00       	mov    $0xa,%edi
  40112c:	e8 2f fc ff ff       	callq  400d60 <rank>
  401131:	bf 01 00 00 00       	mov    $0x1,%edi
  401136:	31 c0                	xor    %eax,%eax
  401138:	e8 63 03 00 00       	callq  4014a0 <timer_stop>
  40113d:	bf 01 00 00 00       	mov    $0x1,%edi
  401142:	31 c0                	xor    %eax,%eax
  401144:	e8 97 03 00 00       	callq  4014e0 <timer_read>
  401149:	e8 82 f4 ff ff       	callq  4005d0 <clock@plt>
  40114e:	48 89 05 b3 10 20 10 	mov    %rax,0x102010b3(%rip)        # 10602208 <end>
  401155:	48 2b 05 f4 12 20 18 	sub    0x182012f4(%rip),%rax        # 18602450 <start>
  40115c:	f2 48 0f 2a c0       	cvtsi2sd %rax,%xmm0
  401161:	f2 0f 5e 05 a7 04 00 	divsd  0x4a7(%rip),%xmm0        # 401610 <_IO_stdin_used+0x40>
  401168:	00 
  401169:	f2 0f 11 05 bf 10 20 	movsd  %xmm0,0x182010bf(%rip)        # 18602230 <cpu_time_used>
  401170:	18 
  401171:	bf bc 16 40 00       	mov    $0x4016bc,%edi
  401176:	b0 01                	mov    $0x1,%al
  401178:	e8 63 f4 ff ff       	callq  4005e0 <printf@plt>
  40117d:	48 8b 05 bc 10 20 18 	mov    0x182010bc(%rip),%rax        # 18602240 <key_buff_ptr_global>
  401184:	41 b8 ff ff ff 01    	mov    $0x1ffffff,%r8d
  40118a:	66 0f 1f 44 00 00    	nopw   0x0(%rax,%rax,1)
  401190:	48 63 14 9d 30 22 60 	movslq 0x10602230(,%rbx,4),%rdx
  401197:	10 
  401198:	48 8d 73 20          	lea    0x20(%rbx),%rsi
  40119c:	48 81 fe ff ff ff 01 	cmp    $0x1ffffff,%rsi
  4011a3:	49 0f 4f f0          	cmovg  %r8,%rsi
  4011a7:	48 63 34 b5 30 22 60 	movslq 0x10602230(,%rsi,4),%rsi
  4011ae:	10 
  4011af:	48 63 3c 90          	movslq (%rax,%rdx,4),%rdi
  4011b3:	48 8d 4f ff          	lea    -0x1(%rdi),%rcx
  4011b7:	89 0c 90             	mov    %ecx,(%rax,%rdx,4)
  4011ba:	89 14 bd ec 21 60 08 	mov    %edx,0x86021ec(,%rdi,4)
  4011c1:	0f 18 0c 9d 30 23 60 	prefetcht0 0x10602330(,%rbx,4)
  4011c8:	10 
  4011c9:	48 ff c3             	inc    %rbx
  4011cc:	0f 18 0c b0          	prefetcht0 (%rax,%rsi,4)
  4011d0:	48 81 fb 00 00 00 02 	cmp    $0x2000000,%rbx
  4011d7:	75 b7                	jne    401190 <main+0x220>
  4011d9:	48 8b 05 10 10 20 08 	mov    0x8201010(%rip),%rax        # 86021f0 <key_array>
  4011e0:	48 89 c1             	mov    %rax,%rcx
  4011e3:	48 c1 e9 20          	shr    $0x20,%rcx
  4011e7:	31 d2                	xor    %edx,%edx
  4011e9:	39 c8                	cmp    %ecx,%eax
  4011eb:	0f 9f c2             	setg   %dl
  4011ee:	66 0f 6e da          	movd   %edx,%xmm3
  4011f2:	66 0f 6e c1          	movd   %ecx,%xmm0
  4011f6:	66 0f 70 c8 24       	pshufd $0x24,%xmm0,%xmm1
  4011fb:	0f 10 05 f6 0f 20 08 	movups 0x8200ff6(%rip),%xmm0        # 86021f8 <key_array+0x8>
  401202:	0f 10 15 ff 0f 20 08 	movups 0x8200fff(%rip),%xmm2        # 8602208 <key_array+0x18>
  401209:	0f c6 c8 03          	shufps $0x3,%xmm0,%xmm1
  40120d:	0f c6 c8 98          	shufps $0x98,%xmm0,%xmm1
  401211:	66 0f 66 c8          	pcmpgtd %xmm0,%xmm1
  401215:	0f c6 c2 03          	shufps $0x3,%xmm2,%xmm0
  401219:	0f c6 c2 98          	shufps $0x98,%xmm2,%xmm0
  40121d:	66 0f 72 d1 1f       	psrld  $0x1f,%xmm1
  401222:	66 0f 66 c2          	pcmpgtd %xmm2,%xmm0
  401226:	66 0f 72 d0 1f       	psrld  $0x1f,%xmm0
  40122b:	66 0f fe cb          	paddd  %xmm3,%xmm1
  40122f:	31 c0                	xor    %eax,%eax
  401231:	66 66 66 66 66 66 2e 	data16 data16 data16 data16 data16 nopw %cs:0x0(%rax,%rax,1)
  401238:	0f 1f 84 00 00 00 00 
  40123f:	00 
  401240:	0f 10 98 18 22 60 08 	movups 0x8602218(%rax),%xmm3
  401247:	0f c6 d3 03          	shufps $0x3,%xmm3,%xmm2
  40124b:	0f c6 d3 98          	shufps $0x98,%xmm3,%xmm2
  40124f:	66 0f 66 d3          	pcmpgtd %xmm3,%xmm2
  401253:	66 0f 72 d2 1f       	psrld  $0x1f,%xmm2
  401258:	66 0f fe d1          	paddd  %xmm1,%xmm2
  40125c:	0f 10 88 28 22 60 08 	movups 0x8602228(%rax),%xmm1
  401263:	0f c6 d9 03          	shufps $0x3,%xmm1,%xmm3
  401267:	0f c6 d9 98          	shufps $0x98,%xmm1,%xmm3
  40126b:	66 0f 66 d9          	pcmpgtd %xmm1,%xmm3
  40126f:	66 0f 72 d3 1f       	psrld  $0x1f,%xmm3
  401274:	66 0f fe d8          	paddd  %xmm0,%xmm3
  401278:	0f 10 80 38 22 60 08 	movups 0x8602238(%rax),%xmm0
  40127f:	0f c6 c8 03          	shufps $0x3,%xmm0,%xmm1
  401283:	0f c6 c8 98          	shufps $0x98,%xmm0,%xmm1
  401287:	66 0f 66 c8          	pcmpgtd %xmm0,%xmm1
  40128b:	66 0f 72 d1 1f       	psrld  $0x1f,%xmm1
  401290:	66 0f fe ca          	paddd  %xmm2,%xmm1
  401294:	0f 10 90 48 22 60 08 	movups 0x8602248(%rax),%xmm2
  40129b:	0f c6 c2 03          	shufps $0x3,%xmm2,%xmm0
  40129f:	0f c6 c2 98          	shufps $0x98,%xmm2,%xmm0
  4012a3:	66 0f 66 c2          	pcmpgtd %xmm2,%xmm0
  4012a7:	66 0f 72 d0 1f       	psrld  $0x1f,%xmm0
  4012ac:	66 0f fe c3          	paddd  %xmm3,%xmm0
  4012b0:	48 83 c0 40          	add    $0x40,%rax
  4012b4:	48 3d c0 ff ff 07    	cmp    $0x7ffffc0,%rax
  4012ba:	75 84                	jne    401240 <main+0x2d0>
  4012bc:	66 0f fe c1          	paddd  %xmm1,%xmm0
  4012c0:	66 0f 70 c8 4e       	pshufd $0x4e,%xmm0,%xmm1
  4012c5:	66 0f fe c8          	paddd  %xmm0,%xmm1
  4012c9:	66 0f 70 c2 e7       	pshufd $0xe7,%xmm2,%xmm0
  4012ce:	66 0f 7e c0          	movd   %xmm0,%eax
  4012d2:	66 0f 70 c1 e5       	pshufd $0xe5,%xmm1,%xmm0
  4012d7:	66 0f fe c1          	paddd  %xmm1,%xmm0
  4012db:	66 0f 7e c1          	movd   %xmm0,%ecx
  4012df:	ba e8 ff ff 07       	mov    $0x7ffffe8,%edx
  4012e4:	48 8b 92 f0 21 60 08 	mov    0x86021f0(%rdx),%rdx
  4012eb:	31 f6                	xor    %esi,%esi
  4012ed:	39 d0                	cmp    %edx,%eax
  4012ef:	40 0f 9f c6          	setg   %sil
  4012f3:	01 ce                	add    %ecx,%esi
  4012f5:	48 89 d0             	mov    %rdx,%rax
  4012f8:	48 c1 e8 20          	shr    $0x20,%rax
  4012fc:	31 c9                	xor    %ecx,%ecx
  4012fe:	39 c2                	cmp    %eax,%edx
  401300:	0f 9f c1             	setg   %cl
  401303:	01 f1                	add    %esi,%ecx
  401305:	ba f0 ff ff 07       	mov    $0x7fffff0,%edx
  40130a:	48 8b 92 f0 21 60 08 	mov    0x86021f0(%rdx),%rdx
  401311:	31 f6                	xor    %esi,%esi
  401313:	39 d0                	cmp    %edx,%eax
  401315:	40 0f 9f c6          	setg   %sil
  401319:	01 ce                	add    %ecx,%esi
  40131b:	48 89 d0             	mov    %rdx,%rax
  40131e:	48 c1 e8 20          	shr    $0x20,%rax
  401322:	31 c9                	xor    %ecx,%ecx
  401324:	39 c2                	cmp    %eax,%edx
  401326:	0f 9f c1             	setg   %cl
  401329:	01 f1                	add    %esi,%ecx
  40132b:	ba f8 ff ff 07       	mov    $0x7fffff8,%edx
  401330:	48 8b 92 f0 21 60 08 	mov    0x86021f0(%rdx),%rdx
  401337:	31 ff                	xor    %edi,%edi
  401339:	39 d0                	cmp    %edx,%eax
  40133b:	40 0f 9f c7          	setg   %dil
  40133f:	01 cf                	add    %ecx,%edi
  401341:	48 89 d0             	mov    %rdx,%rax
  401344:	48 c1 e8 20          	shr    $0x20,%rax
  401348:	31 f6                	xor    %esi,%esi
  40134a:	39 c2                	cmp    %eax,%edx
  40134c:	40 0f 9f c6          	setg   %sil
  401350:	01 fe                	add    %edi,%esi
  401352:	74 14                	je     401368 <main+0x3f8>
  401354:	bf 20 16 40 00       	mov    $0x401620,%edi
  401359:	31 c0                	xor    %eax,%eax
  40135b:	e8 80 f2 ff ff       	callq  4005e0 <printf@plt>
  401360:	8b 05 d2 0e 20 18    	mov    0x18200ed2(%rip),%eax        # 18602238 <passed_verification>
  401366:	eb 0e                	jmp    401376 <main+0x406>
  401368:	8b 05 ca 0e 20 18    	mov    0x18200eca(%rip),%eax        # 18602238 <passed_verification>
  40136e:	ff c0                	inc    %eax
  401370:	89 05 c2 0e 20 18    	mov    %eax,0x18200ec2(%rip)        # 18602238 <passed_verification>
  401376:	bb 33 00 00 00       	mov    $0x33,%ebx
  40137b:	83 f8 33             	cmp    $0x33,%eax
  40137e:	74 0c                	je     40138c <main+0x41c>
  401380:	c7 05 ae 0e 20 18 00 	movl   $0x0,0x18200eae(%rip)        # 18602238 <passed_verification>
  401387:	00 00 00 
  40138a:	31 db                	xor    %ebx,%ebx
  40138c:	f2 0f 10 05 9c 0e 20 	movsd  0x18200e9c(%rip),%xmm0        # 18602230 <cpu_time_used>
  401393:	18 
  401394:	f2 0f 10 0d 7c 02 00 	movsd  0x27c(%rip),%xmm1        # 401618 <_IO_stdin_used+0x48>
  40139b:	00 
  40139c:	f2 0f 5e c8          	divsd  %xmm0,%xmm1
  4013a0:	f2 0f 5e 0d 68 02 00 	divsd  0x268(%rip),%xmm1        # 401610 <_IO_stdin_used+0x40>
  4013a7:	00 
  4013a8:	48 83 ec 08          	sub    $0x8,%rsp
  4013ac:	bf c7 16 40 00       	mov    $0x4016c7,%edi
  4013b1:	be 42 00 00 00       	mov    $0x42,%esi
  4013b6:	ba 00 00 00 02       	mov    $0x2000000,%edx
  4013bb:	b9 00 00 00 00       	mov    $0x0,%ecx
  4013c0:	41 b8 00 00 00 00    	mov    $0x0,%r8d
  4013c6:	41 b9 0a 00 00 00    	mov    $0xa,%r9d
  4013cc:	b0 02                	mov    $0x2,%al
  4013ce:	68 32 17 40 00       	pushq  $0x401732
  4013d3:	68 1a 17 40 00       	pushq  $0x40171a
  4013d8:	68 fa 16 40 00       	pushq  $0x4016fa
  4013dd:	68 ee 16 40 00       	pushq  $0x4016ee
  4013e2:	68 ea 16 40 00       	pushq  $0x4016ea
  4013e7:	68 e6 16 40 00       	pushq  $0x4016e6
  4013ec:	68 e6 16 40 00       	pushq  $0x4016e6
  4013f1:	68 da 16 40 00       	pushq  $0x4016da
  4013f6:	68 d6 16 40 00       	pushq  $0x4016d6
  4013fb:	53                   	push   %rbx
  4013fc:	68 ca 16 40 00       	pushq  $0x4016ca
  401401:	e8 0a 00 00 00       	callq  401410 <c_print_results>
  401406:	48 83 c4 60          	add    $0x60,%rsp
  40140a:	31 c0                	xor    %eax,%eax
  40140c:	5b                   	pop    %rbx
  40140d:	c3                   	retq   
  40140e:	66 90                	xchg   %ax,%ax

0000000000401410 <c_print_results>:
  401410:	50                   	push   %rax
  401411:	f2 0f 11 04 24       	movsd  %xmm0,(%rsp)
  401416:	48 89 f9             	mov    %rdi,%rcx
  401419:	bf a0 17 40 00       	mov    $0x4017a0,%edi
  40141e:	31 c0                	xor    %eax,%eax
  401420:	48 89 ce             	mov    %rcx,%rsi
  401423:	e8 b8 f1 ff ff       	callq  4005e0 <printf@plt>
  401428:	bf bb 17 40 00       	mov    $0x4017bb,%edi
  40142d:	b0 01                	mov    $0x1,%al
  40142f:	f2 0f 10 04 24       	movsd  (%rsp),%xmm0
  401434:	59                   	pop    %rcx
  401435:	e9 a6 f1 ff ff       	jmpq   4005e0 <printf@plt>
  40143a:	66 0f 1f 44 00 00    	nopw   0x0(%rax,%rax,1)

0000000000401440 <elapsed_time>:
  401440:	50                   	push   %rax
  401441:	48 8d 3c 24          	lea    (%rsp),%rdi
  401445:	e8 a6 00 00 00       	callq  4014f0 <wtime_>
  40144a:	f2 0f 10 04 24       	movsd  (%rsp),%xmm0
  40144f:	58                   	pop    %rax
  401450:	c3                   	retq   
  401451:	66 66 66 66 66 66 2e 	data16 data16 data16 data16 data16 nopw %cs:0x0(%rax,%rax,1)
  401458:	0f 1f 84 00 00 00 00 
  40145f:	00 

0000000000401460 <timer_clear>:
  401460:	48 63 c7             	movslq %edi,%rax
  401463:	48 c7 04 c5 50 22 60 	movq   $0x0,0x18602250(,%rax,8)
  40146a:	18 00 00 00 00 
  40146f:	c3                   	retq   

0000000000401470 <timer_start>:
  401470:	53                   	push   %rbx
  401471:	48 83 ec 10          	sub    $0x10,%rsp
  401475:	89 fb                	mov    %edi,%ebx
  401477:	48 8d 7c 24 08       	lea    0x8(%rsp),%rdi
  40147c:	e8 6f 00 00 00       	callq  4014f0 <wtime_>
  401481:	48 8b 44 24 08       	mov    0x8(%rsp),%rax
  401486:	48 63 cb             	movslq %ebx,%rcx
  401489:	48 89 04 cd 50 24 60 	mov    %rax,0x18602450(,%rcx,8)
  401490:	18 
  401491:	48 83 c4 10          	add    $0x10,%rsp
  401495:	5b                   	pop    %rbx
  401496:	c3                   	retq   
  401497:	66 0f 1f 84 00 00 00 	nopw   0x0(%rax,%rax,1)
  40149e:	00 00 

00000000004014a0 <timer_stop>:
  4014a0:	53                   	push   %rbx
  4014a1:	48 83 ec 10          	sub    $0x10,%rsp
  4014a5:	89 fb                	mov    %edi,%ebx
  4014a7:	48 8d 7c 24 08       	lea    0x8(%rsp),%rdi
  4014ac:	e8 3f 00 00 00       	callq  4014f0 <wtime_>
  4014b1:	f2 0f 10 44 24 08    	movsd  0x8(%rsp),%xmm0
  4014b7:	48 63 c3             	movslq %ebx,%rax
  4014ba:	f2 0f 5c 04 c5 50 24 	subsd  0x18602450(,%rax,8),%xmm0
  4014c1:	60 18 
  4014c3:	f2 0f 58 04 c5 50 22 	addsd  0x18602250(,%rax,8),%xmm0
  4014ca:	60 18 
  4014cc:	f2 0f 11 04 c5 50 22 	movsd  %xmm0,0x18602250(,%rax,8)
  4014d3:	60 18 
  4014d5:	48 83 c4 10          	add    $0x10,%rsp
  4014d9:	5b                   	pop    %rbx
  4014da:	c3                   	retq   
  4014db:	0f 1f 44 00 00       	nopl   0x0(%rax,%rax,1)

00000000004014e0 <timer_read>:
  4014e0:	48 63 c7             	movslq %edi,%rax
  4014e3:	f2 0f 10 04 c5 50 22 	movsd  0x18602250(,%rax,8),%xmm0
  4014ea:	60 18 
  4014ec:	c3                   	retq   
  4014ed:	0f 1f 00             	nopl   (%rax)

00000000004014f0 <wtime_>:
  4014f0:	53                   	push   %rbx
  4014f1:	48 83 ec 10          	sub    $0x10,%rsp
  4014f5:	48 89 fb             	mov    %rdi,%rbx
  4014f8:	48 8d 3c 24          	lea    (%rsp),%rdi
  4014fc:	31 f6                	xor    %esi,%esi
  4014fe:	e8 ed f0 ff ff       	callq  4005f0 <gettimeofday@plt>
  401503:	8b 0d 8b 0c 20 00    	mov    0x200c8b(%rip),%ecx        # 602194 <wtime_.sec>
  401509:	48 8b 04 24          	mov    (%rsp),%rax
  40150d:	85 c9                	test   %ecx,%ecx
  40150f:	79 08                	jns    401519 <wtime_+0x29>
  401511:	89 05 7d 0c 20 00    	mov    %eax,0x200c7d(%rip)        # 602194 <wtime_.sec>
  401517:	89 c1                	mov    %eax,%ecx
  401519:	48 63 c9             	movslq %ecx,%rcx
  40151c:	48 29 c8             	sub    %rcx,%rax
  40151f:	f2 48 0f 2a c0       	cvtsi2sd %rax,%xmm0
  401524:	f2 48 0f 2a 4c 24 08 	cvtsi2sdq 0x8(%rsp),%xmm1
  40152b:	f2 0f 59 0d b5 02 00 	mulsd  0x2b5(%rip),%xmm1        # 4017e8 <_IO_stdin_used+0x218>
  401532:	00 
  401533:	f2 0f 58 c8          	addsd  %xmm0,%xmm1
  401537:	f2 0f 11 0b          	movsd  %xmm1,(%rbx)
  40153b:	48 83 c4 10          	add    $0x10,%rsp
  40153f:	5b                   	pop    %rbx
  401540:	c3                   	retq   
  401541:	66 2e 0f 1f 84 00 00 	nopw   %cs:0x0(%rax,%rax,1)
  401548:	00 00 00 
  40154b:	0f 1f 44 00 00       	nopl   0x0(%rax,%rax,1)

0000000000401550 <__libc_csu_init>:
  401550:	41 57                	push   %r15
  401552:	41 56                	push   %r14
  401554:	41 89 ff             	mov    %edi,%r15d
  401557:	41 55                	push   %r13
  401559:	41 54                	push   %r12
  40155b:	4c 8d 25 9e 08 20 00 	lea    0x20089e(%rip),%r12        # 601e00 <__frame_dummy_init_array_entry>
  401562:	55                   	push   %rbp
  401563:	48 8d 2d 9e 08 20 00 	lea    0x20089e(%rip),%rbp        # 601e08 <__init_array_end>
  40156a:	53                   	push   %rbx
  40156b:	49 89 f6             	mov    %rsi,%r14
  40156e:	49 89 d5             	mov    %rdx,%r13
  401571:	4c 29 e5             	sub    %r12,%rbp
  401574:	48 83 ec 08          	sub    $0x8,%rsp
  401578:	48 c1 fd 03          	sar    $0x3,%rbp
  40157c:	e8 07 f0 ff ff       	callq  400588 <_init>
  401581:	48 85 ed             	test   %rbp,%rbp
  401584:	74 20                	je     4015a6 <__libc_csu_init+0x56>
  401586:	31 db                	xor    %ebx,%ebx
  401588:	0f 1f 84 00 00 00 00 	nopl   0x0(%rax,%rax,1)
  40158f:	00 
  401590:	4c 89 ea             	mov    %r13,%rdx
  401593:	4c 89 f6             	mov    %r14,%rsi
  401596:	44 89 ff             	mov    %r15d,%edi
  401599:	41 ff 14 dc          	callq  *(%r12,%rbx,8)
  40159d:	48 83 c3 01          	add    $0x1,%rbx
  4015a1:	48 39 eb             	cmp    %rbp,%rbx
  4015a4:	75 ea                	jne    401590 <__libc_csu_init+0x40>
  4015a6:	48 83 c4 08          	add    $0x8,%rsp
  4015aa:	5b                   	pop    %rbx
  4015ab:	5d                   	pop    %rbp
  4015ac:	41 5c                	pop    %r12
  4015ae:	41 5d                	pop    %r13
  4015b0:	41 5e                	pop    %r14
  4015b2:	41 5f                	pop    %r15
  4015b4:	c3                   	retq   
  4015b5:	90                   	nop
  4015b6:	66 2e 0f 1f 84 00 00 	nopw   %cs:0x0(%rax,%rax,1)
  4015bd:	00 00 00 

00000000004015c0 <__libc_csu_fini>:
  4015c0:	f3 c3                	repz retq 

Disassembly of section .fini:

00000000004015c4 <_fini>:
  4015c4:	48 83 ec 08          	sub    $0x8,%rsp
  4015c8:	48 83 c4 08          	add    $0x8,%rsp
  4015cc:	c3                   	retq   
