
a.out:     file format elf64-x86-64


Disassembly of section .init:

0000000000400ab0 <_init>:
  400ab0:	48 83 ec 08          	sub    $0x8,%rsp
  400ab4:	48 8b 05 3d 25 27 00 	mov    0x27253d(%rip),%rax        # 672ff8 <_DYNAMIC+0x1e0>
  400abb:	48 85 c0             	test   %rax,%rax
  400abe:	74 05                	je     400ac5 <_init+0x15>
  400ac0:	e8 ab 01 00 00       	callq  400c70 <sqrt@plt+0x10>
  400ac5:	48 83 c4 08          	add    $0x8,%rsp
  400ac9:	c3                   	retq   

Disassembly of section .plt:

0000000000400ad0 <getenv@plt-0x10>:
  400ad0:	ff 35 32 25 27 00    	pushq  0x272532(%rip)        # 673008 <_GLOBAL_OFFSET_TABLE_+0x8>
  400ad6:	ff 25 34 25 27 00    	jmpq   *0x272534(%rip)        # 673010 <_GLOBAL_OFFSET_TABLE_+0x10>
  400adc:	0f 1f 40 00          	nopl   0x0(%rax)

0000000000400ae0 <getenv@plt>:
  400ae0:	ff 25 32 25 27 00    	jmpq   *0x272532(%rip)        # 673018 <_GLOBAL_OFFSET_TABLE_+0x18>
  400ae6:	68 00 00 00 00       	pushq  $0x0
  400aeb:	e9 e0 ff ff ff       	jmpq   400ad0 <_init+0x20>

0000000000400af0 <free@plt>:
  400af0:	ff 25 2a 25 27 00    	jmpq   *0x27252a(%rip)        # 673020 <_GLOBAL_OFFSET_TABLE_+0x20>
  400af6:	68 01 00 00 00       	pushq  $0x1
  400afb:	e9 d0 ff ff ff       	jmpq   400ad0 <_init+0x20>

0000000000400b00 <abort@plt>:
  400b00:	ff 25 22 25 27 00    	jmpq   *0x272522(%rip)        # 673028 <_GLOBAL_OFFSET_TABLE_+0x28>
  400b06:	68 02 00 00 00       	pushq  $0x2
  400b0b:	e9 c0 ff ff ff       	jmpq   400ad0 <_init+0x20>

0000000000400b10 <__errno_location@plt>:
  400b10:	ff 25 1a 25 27 00    	jmpq   *0x27251a(%rip)        # 673030 <_GLOBAL_OFFSET_TABLE_+0x30>
  400b16:	68 03 00 00 00       	pushq  $0x3
  400b1b:	e9 b0 ff ff ff       	jmpq   400ad0 <_init+0x20>

0000000000400b20 <__read_chk@plt>:
  400b20:	ff 25 12 25 27 00    	jmpq   *0x272512(%rip)        # 673038 <_GLOBAL_OFFSET_TABLE_+0x38>
  400b26:	68 04 00 00 00       	pushq  $0x4
  400b2b:	e9 a0 ff ff ff       	jmpq   400ad0 <_init+0x20>

0000000000400b30 <qsort@plt>:
  400b30:	ff 25 0a 25 27 00    	jmpq   *0x27250a(%rip)        # 673040 <_GLOBAL_OFFSET_TABLE_+0x40>
  400b36:	68 05 00 00 00       	pushq  $0x5
  400b3b:	e9 90 ff ff ff       	jmpq   400ad0 <_init+0x20>

0000000000400b40 <strtod@plt>:
  400b40:	ff 25 02 25 27 00    	jmpq   *0x272502(%rip)        # 673048 <_GLOBAL_OFFSET_TABLE_+0x48>
  400b46:	68 06 00 00 00       	pushq  $0x6
  400b4b:	e9 80 ff ff ff       	jmpq   400ad0 <_init+0x20>

0000000000400b50 <clock_gettime@plt>:
  400b50:	ff 25 fa 24 27 00    	jmpq   *0x2724fa(%rip)        # 673050 <_GLOBAL_OFFSET_TABLE_+0x50>
  400b56:	68 07 00 00 00       	pushq  $0x7
  400b5b:	e9 70 ff ff ff       	jmpq   400ad0 <_init+0x20>

0000000000400b60 <__assert_fail@plt>:
  400b60:	ff 25 f2 24 27 00    	jmpq   *0x2724f2(%rip)        # 673058 <_GLOBAL_OFFSET_TABLE_+0x58>
  400b66:	68 08 00 00 00       	pushq  $0x8
  400b6b:	e9 60 ff ff ff       	jmpq   400ad0 <_init+0x20>

0000000000400b70 <memset@plt>:
  400b70:	ff 25 ea 24 27 00    	jmpq   *0x2724ea(%rip)        # 673060 <_GLOBAL_OFFSET_TABLE_+0x60>
  400b76:	68 09 00 00 00       	pushq  $0x9
  400b7b:	e9 50 ff ff ff       	jmpq   400ad0 <_init+0x20>

0000000000400b80 <close@plt>:
  400b80:	ff 25 e2 24 27 00    	jmpq   *0x2724e2(%rip)        # 673068 <_GLOBAL_OFFSET_TABLE_+0x68>
  400b86:	68 0a 00 00 00       	pushq  $0xa
  400b8b:	e9 40 ff ff ff       	jmpq   400ad0 <_init+0x20>

0000000000400b90 <__strdup@plt>:
  400b90:	ff 25 da 24 27 00    	jmpq   *0x2724da(%rip)        # 673070 <_GLOBAL_OFFSET_TABLE_+0x70>
  400b96:	68 0b 00 00 00       	pushq  $0xb
  400b9b:	e9 30 ff ff ff       	jmpq   400ad0 <_init+0x20>

0000000000400ba0 <read@plt>:
  400ba0:	ff 25 d2 24 27 00    	jmpq   *0x2724d2(%rip)        # 673078 <_GLOBAL_OFFSET_TABLE_+0x78>
  400ba6:	68 0c 00 00 00       	pushq  $0xc
  400bab:	e9 20 ff ff ff       	jmpq   400ad0 <_init+0x20>

0000000000400bb0 <__libc_start_main@plt>:
  400bb0:	ff 25 ca 24 27 00    	jmpq   *0x2724ca(%rip)        # 673080 <_GLOBAL_OFFSET_TABLE_+0x80>
  400bb6:	68 0d 00 00 00       	pushq  $0xd
  400bbb:	e9 10 ff ff ff       	jmpq   400ad0 <_init+0x20>

0000000000400bc0 <strtol@plt>:
  400bc0:	ff 25 c2 24 27 00    	jmpq   *0x2724c2(%rip)        # 673088 <_GLOBAL_OFFSET_TABLE_+0x88>
  400bc6:	68 0e 00 00 00       	pushq  $0xe
  400bcb:	e9 00 ff ff ff       	jmpq   400ad0 <_init+0x20>

0000000000400bd0 <memcpy@plt>:
  400bd0:	ff 25 ba 24 27 00    	jmpq   *0x2724ba(%rip)        # 673090 <_GLOBAL_OFFSET_TABLE_+0x90>
  400bd6:	68 0f 00 00 00       	pushq  $0xf
  400bdb:	e9 f0 fe ff ff       	jmpq   400ad0 <_init+0x20>

0000000000400be0 <malloc@plt>:
  400be0:	ff 25 b2 24 27 00    	jmpq   *0x2724b2(%rip)        # 673098 <_GLOBAL_OFFSET_TABLE_+0x98>
  400be6:	68 10 00 00 00       	pushq  $0x10
  400beb:	e9 e0 fe ff ff       	jmpq   400ad0 <_init+0x20>

0000000000400bf0 <__printf_chk@plt>:
  400bf0:	ff 25 aa 24 27 00    	jmpq   *0x2724aa(%rip)        # 6730a0 <_GLOBAL_OFFSET_TABLE_+0xa0>
  400bf6:	68 11 00 00 00       	pushq  $0x11
  400bfb:	e9 d0 fe ff ff       	jmpq   400ad0 <_init+0x20>

0000000000400c00 <open64@plt>:
  400c00:	ff 25 a2 24 27 00    	jmpq   *0x2724a2(%rip)        # 6730a8 <_GLOBAL_OFFSET_TABLE_+0xa8>
  400c06:	68 12 00 00 00       	pushq  $0x12
  400c0b:	e9 c0 fe ff ff       	jmpq   400ad0 <_init+0x20>

0000000000400c10 <perror@plt>:
  400c10:	ff 25 9a 24 27 00    	jmpq   *0x27249a(%rip)        # 6730b0 <_GLOBAL_OFFSET_TABLE_+0xb0>
  400c16:	68 13 00 00 00       	pushq  $0x13
  400c1b:	e9 b0 fe ff ff       	jmpq   400ad0 <_init+0x20>

0000000000400c20 <getopt@plt>:
  400c20:	ff 25 92 24 27 00    	jmpq   *0x272492(%rip)        # 6730b8 <_GLOBAL_OFFSET_TABLE_+0xb8>
  400c26:	68 14 00 00 00       	pushq  $0x14
  400c2b:	e9 a0 fe ff ff       	jmpq   400ad0 <_init+0x20>

0000000000400c30 <floor@plt>:
  400c30:	ff 25 8a 24 27 00    	jmpq   *0x27248a(%rip)        # 6730c0 <_GLOBAL_OFFSET_TABLE_+0xc0>
  400c36:	68 15 00 00 00       	pushq  $0x15
  400c3b:	e9 90 fe ff ff       	jmpq   400ad0 <_init+0x20>

0000000000400c40 <exit@plt>:
  400c40:	ff 25 82 24 27 00    	jmpq   *0x272482(%rip)        # 6730c8 <_GLOBAL_OFFSET_TABLE_+0xc8>
  400c46:	68 16 00 00 00       	pushq  $0x16
  400c4b:	e9 80 fe ff ff       	jmpq   400ad0 <_init+0x20>

0000000000400c50 <__fprintf_chk@plt>:
  400c50:	ff 25 7a 24 27 00    	jmpq   *0x27247a(%rip)        # 6730d0 <_GLOBAL_OFFSET_TABLE_+0xd0>
  400c56:	68 17 00 00 00       	pushq  $0x17
  400c5b:	e9 70 fe ff ff       	jmpq   400ad0 <_init+0x20>

0000000000400c60 <sqrt@plt>:
  400c60:	ff 25 72 24 27 00    	jmpq   *0x272472(%rip)        # 6730d8 <_GLOBAL_OFFSET_TABLE_+0xd8>
  400c66:	68 18 00 00 00       	pushq  $0x18
  400c6b:	e9 60 fe ff ff       	jmpq   400ad0 <_init+0x20>

Disassembly of section .plt.got:

0000000000400c70 <.plt.got>:
  400c70:	ff 25 82 23 27 00    	jmpq   *0x272382(%rip)        # 672ff8 <_DYNAMIC+0x1e0>
  400c76:	66 90                	xchg   %ax,%ax

Disassembly of section .text:

0000000000400c80 <xmalloc.part.0.lto_priv.11>:
  400c80:	48 89 f9             	mov    %rdi,%rcx
  400c83:	50                   	push   %rax
  400c84:	48 8b 3d d5 24 27 00 	mov    0x2724d5(%rip),%rdi        # 673160 <stderr@@GLIBC_2.2.5>
  400c8b:	ba f0 5b 40 00       	mov    $0x405bf0,%edx
  400c90:	be 01 00 00 00       	mov    $0x1,%esi
  400c95:	31 c0                	xor    %eax,%eax
  400c97:	e8 b4 ff ff ff       	callq  400c50 <__fprintf_chk@plt>
  400c9c:	e8 5f fe ff ff       	callq  400b00 <abort@plt>

0000000000400ca1 <scramble.part.1.lto_priv.19>:
  400ca1:	50                   	push   %rax
  400ca2:	b9 30 5d 40 00       	mov    $0x405d30,%ecx
  400ca7:	ba 7d 00 00 00       	mov    $0x7d,%edx
  400cac:	be 48 57 40 00       	mov    $0x405748,%esi
  400cb1:	bf e9 50 40 00       	mov    $0x4050e9,%edi
  400cb6:	e8 a5 fe ff ff       	callq  400b60 <__assert_fail@plt>

0000000000400cbb <mod_mul.part.0.lto_priv.10>:
  400cbb:	50                   	push   %rax
  400cbc:	b9 28 5d 40 00       	mov    $0x405d28,%ecx
  400cc1:	ba 1b 00 00 00       	mov    $0x1b,%edx
  400cc6:	be 28 57 40 00       	mov    $0x405728,%esi
  400ccb:	bf c4 50 40 00       	mov    $0x4050c4,%edi
  400cd0:	e8 8b fe ff ff       	callq  400b60 <__assert_fail@plt>
  400cd5:	66 2e 0f 1f 84 00 00 	nopw   %cs:0x0(%rax,%rax,1)
  400cdc:	00 00 00 
  400cdf:	90                   	nop

0000000000400ce0 <main>:
  400ce0:	41 57                	push   %r15
  400ce2:	41 56                	push   %r14
  400ce4:	41 55                	push   %r13
  400ce6:	41 54                	push   %r12
  400ce8:	55                   	push   %rbp
  400ce9:	53                   	push   %rbx
  400cea:	48 81 ec a8 00 00 00 	sub    $0xa8,%rsp
  400cf1:	83 ff 01             	cmp    $0x1,%edi
  400cf4:	0f 8e e0 00 00 00    	jle    400dda <main+0xfa>
  400cfa:	89 fb                	mov    %edi,%ebx
  400cfc:	bf a2 4e 40 00       	mov    $0x404ea2,%edi
  400d01:	49 89 f4             	mov    %rsi,%r12
  400d04:	e8 d7 fd ff ff       	callq  400ae0 <getenv@plt>
  400d09:	48 85 c0             	test   %rax,%rax
  400d0c:	74 0a                	je     400d18 <main+0x38>
  400d0e:	c7 05 fc 26 27 00 01 	movl   $0x1,0x2726fc(%rip)        # 673414 <VERBOSE>
  400d15:	00 00 00 
  400d18:	45 31 ed             	xor    %r13d,%r13d
  400d1b:	45 31 f6             	xor    %r14d,%r14d
  400d1e:	31 ed                	xor    %ebp,%ebp
  400d20:	ba 43 50 40 00       	mov    $0x405043,%edx
  400d25:	4c 89 e6             	mov    %r12,%rsi
  400d28:	89 df                	mov    %ebx,%edi
  400d2a:	e8 f1 fe ff ff       	callq  400c20 <getopt@plt>
  400d2f:	83 f8 ff             	cmp    $0xffffffff,%eax
  400d32:	74 13                	je     400d47 <main+0x67>
  400d34:	83 e8 3f             	sub    $0x3f,%eax
  400d37:	83 f8 37             	cmp    $0x37,%eax
  400d3a:	0f 87 f8 04 00 00    	ja     401238 <main+0x558>
  400d40:	ff 24 c5 78 58 40 00 	jmpq   *0x405878(,%rax,8)
  400d47:	85 ed                	test   %ebp,%ebp
  400d49:	0f 85 19 19 00 00    	jne    402668 <main+0x1988>
  400d4f:	41 83 fe 03          	cmp    $0x3,%r14d
  400d53:	0f 84 5c 18 00 00    	je     4025b5 <main+0x18d5>
  400d59:	45 85 f6             	test   %r14d,%r14d
  400d5c:	74 7c                	je     400dda <main+0xfa>
  400d5e:	dd 05 9c 23 27 00    	fldl   0x27239c(%rip)        # 673100 <A>
  400d64:	dd 05 9e 23 27 00    	fldl   0x27239e(%rip)        # 673108 <B>
  400d6a:	d9 c1                	fld    %st(1)
  400d6c:	d8 c1                	fadd   %st(1),%st
  400d6e:	dd 05 9c 23 27 00    	fldl   0x27239c(%rip)        # 673110 <C>
  400d74:	dc c1                	fadd   %st,%st(1)
  400d76:	d9 c9                	fxch   %st(1)
  400d78:	dc 05 72 23 27 00    	faddl  0x272372(%rip)        # 6730f0 <D>
  400d7e:	dc fb                	fdivr  %st,%st(3)
  400d80:	d9 cb                	fxch   %st(3)
  400d82:	dd 5c 24 58          	fstpl  0x58(%rsp)
  400d86:	d9 c9                	fxch   %st(1)
  400d88:	d8 f2                	fdiv   %st(2),%st
  400d8a:	f2 0f 10 54 24 58    	movsd  0x58(%rsp),%xmm2
  400d90:	f2 0f 11 15 68 23 27 	movsd  %xmm2,0x272368(%rip)        # 673100 <A>
  400d97:	00 
  400d98:	dd 5c 24 58          	fstpl  0x58(%rsp)
  400d9c:	de f1                	fdivp  %st,%st(1)
  400d9e:	f2 0f 10 4c 24 58    	movsd  0x58(%rsp),%xmm1
  400da4:	f2 0f 11 0d 5c 23 27 	movsd  %xmm1,0x27235c(%rip)        # 673108 <B>
  400dab:	00 
  400dac:	f2 0f 58 ca          	addsd  %xmm2,%xmm1
  400db0:	dd 5c 24 58          	fstpl  0x58(%rsp)
  400db4:	f2 0f 10 44 24 58    	movsd  0x58(%rsp),%xmm0
  400dba:	f2 0f 11 05 4e 23 27 	movsd  %xmm0,0x27234e(%rip)        # 673110 <C>
  400dc1:	00 
  400dc2:	f2 0f 58 c1          	addsd  %xmm1,%xmm0
  400dc6:	f2 0f 10 0d b2 4c 00 	movsd  0x4cb2(%rip),%xmm1        # 405a80 <__PRETTY_FUNCTION__.5645+0x20>
  400dcd:	00 
  400dce:	f2 0f 5c c8          	subsd  %xmm0,%xmm1
  400dd2:	f2 0f 11 0d 16 23 27 	movsd  %xmm1,0x272316(%rip)        # 6730f0 <D>
  400dd9:	00 
  400dda:	48 8b 0d 3f 23 27 00 	mov    0x27233f(%rip),%rcx        # 673120 <SCALE>
  400de1:	bb 01 00 00 00       	mov    $0x1,%ebx
  400de6:	bf 61 50 40 00       	mov    $0x405061,%edi
  400deb:	48 d3 e3             	shl    %cl,%rbx
  400dee:	48 89 1d 2b 26 27 00 	mov    %rbx,0x27262b(%rip)        # 673420 <nvtx_scale>
  400df5:	e8 e6 fc ff ff       	callq  400ae0 <getenv@plt>
  400dfa:	48 85 c0             	test   %rax,%rax
  400dfd:	0f 84 2b 04 00 00    	je     40122e <main+0x54e>
  400e03:	e8 08 fd ff ff       	callq  400b10 <__errno_location@plt>
  400e08:	bf 61 50 40 00       	mov    $0x405061,%edi
  400e0d:	c7 00 00 00 00 00    	movl   $0x0,(%rax)
  400e13:	48 89 c5             	mov    %rax,%rbp
  400e16:	e8 c5 fc ff ff       	callq  400ae0 <getenv@plt>
  400e1b:	31 f6                	xor    %esi,%esi
  400e1d:	ba 0a 00 00 00       	mov    $0xa,%edx
  400e22:	48 89 c7             	mov    %rax,%rdi
  400e25:	e8 96 fd ff ff       	callq  400bc0 <strtol@plt>
  400e2a:	83 7d 00 00          	cmpl   $0x0,0x0(%rbp)
  400e2e:	0f 85 fa 03 00 00    	jne    40122e <main+0x54e>
  400e34:	48 85 c0             	test   %rax,%rax
  400e37:	0f 88 f1 03 00 00    	js     40122e <main+0x54e>
  400e3d:	48 89 c1             	mov    %rax,%rcx
  400e40:	48 89 c2             	mov    %rax,%rdx
  400e43:	48 89 05 a6 25 27 00 	mov    %rax,0x2725a6(%rip)        # 6733f0 <userseed>
  400e4a:	48 c1 e8 3c          	shr    $0x3c,%rax
  400e4e:	48 89 df             	mov    %rbx,%rdi
  400e51:	48 c1 ea 1e          	shr    $0x1e,%rdx
  400e55:	48 89 c6             	mov    %rax,%rsi
  400e58:	81 e1 ff ff ff 3f    	and    $0x3fffffff,%ecx
  400e5e:	81 e2 ff ff ff 3f    	and    $0x3fffffff,%edx
  400e64:	48 c1 e6 04          	shl    $0x4,%rsi
  400e68:	48 83 c1 01          	add    $0x1,%rcx
  400e6c:	48 83 c2 01          	add    $0x1,%rdx
  400e70:	48 8d 44 30 01       	lea    0x1(%rax,%rsi,1),%rax
  400e75:	48 89 0d 24 23 27 00 	mov    %rcx,0x272324(%rip)        # 6731a0 <prng_seed>
  400e7c:	48 89 15 25 23 27 00 	mov    %rdx,0x272325(%rip)        # 6731a8 <prng_seed+0x8>
  400e83:	48 89 0d 26 23 27 00 	mov    %rcx,0x272326(%rip)        # 6731b0 <prng_seed+0x10>
  400e8a:	48 89 15 27 23 27 00 	mov    %rdx,0x272327(%rip)        # 6731b8 <prng_seed+0x18>
  400e91:	48 89 05 28 23 27 00 	mov    %rax,0x272328(%rip)        # 6731c0 <prng_seed+0x20>
  400e98:	48 89 05 c1 25 27 00 	mov    %rax,0x2725c1(%rip)        # 673460 <prng_state_store.lto_priv.18+0x20>
  400e9f:	48 8b 05 72 22 27 00 	mov    0x272272(%rip),%rax        # 673118 <edgefactor>
  400ea6:	48 89 0d 93 25 27 00 	mov    %rcx,0x272593(%rip)        # 673440 <prng_state_store.lto_priv.18>
  400ead:	48 89 15 94 25 27 00 	mov    %rdx,0x272594(%rip)        # 673448 <prng_state_store.lto_priv.18+0x8>
  400eb4:	48 89 0d 95 25 27 00 	mov    %rcx,0x272595(%rip)        # 673450 <prng_state_store.lto_priv.18+0x10>
  400ebb:	48 89 15 96 25 27 00 	mov    %rdx,0x272596(%rip)        # 673458 <prng_state_store.lto_priv.18+0x18>
  400ec2:	48 0f af f8          	imul   %rax,%rdi
  400ec6:	48 39 fb             	cmp    %rdi,%rbx
  400ec9:	48 89 7c 24 20       	mov    %rdi,0x20(%rsp)
  400ece:	0f 8f bd 18 00 00    	jg     402791 <main+0x1ab1>
  400ed4:	48 3b 44 24 20       	cmp    0x20(%rsp),%rax
  400ed9:	0f 8f cb 18 00 00    	jg     4027aa <main+0x1aca>
  400edf:	48 8b 3d 32 25 27 00 	mov    0x272532(%rip),%rdi        # 673418 <dumpname>
  400ee6:	48 85 ff             	test   %rdi,%rdi
  400ee9:	0f 84 53 05 00 00    	je     401442 <main+0x762>
  400eef:	31 f6                	xor    %esi,%esi
  400ef1:	31 c0                	xor    %eax,%eax
  400ef3:	e8 08 fd ff ff       	callq  400c00 <open64@plt>
  400ef8:	85 c0                	test   %eax,%eax
  400efa:	89 c5                	mov    %eax,%ebp
  400efc:	0f 88 72 16 00 00    	js     402574 <main+0x1894>
  400f02:	48 8b 1d ff 24 27 00 	mov    0x2724ff(%rip),%rbx        # 673408 <nedge>
  400f09:	48 8b 35 f0 24 27 00 	mov    0x2724f0(%rip),%rsi        # 673400 <IJ>
  400f10:	89 c7                	mov    %eax,%edi
  400f12:	48 c1 e3 04          	shl    $0x4,%rbx
  400f16:	48 89 da             	mov    %rbx,%rdx
  400f19:	e8 82 fc ff ff       	callq  400ba0 <read@plt>
  400f1e:	48 39 c3             	cmp    %rax,%rbx
  400f21:	0f 84 07 0d 00 00    	je     401c2e <main+0xf4e>
  400f27:	bf 68 57 40 00       	mov    $0x405768,%edi
  400f2c:	e8 df fc ff ff       	callq  400c10 <perror@plt>
  400f31:	b8 01 00 00 00       	mov    $0x1,%eax
  400f36:	48 81 c4 a8 00 00 00 	add    $0xa8,%rsp
  400f3d:	5b                   	pop    %rbx
  400f3e:	5d                   	pop    %rbp
  400f3f:	41 5c                	pop    %r12
  400f41:	41 5d                	pop    %r13
  400f43:	41 5e                	pop    %r14
  400f45:	41 5f                	pop    %r15
  400f47:	c3                   	retq   
  400f48:	bf 01 00 00 00       	mov    $0x1,%edi
  400f4d:	31 c9                	xor    %ecx,%ecx
  400f4f:	ba aa 4e 40 00       	mov    $0x404eaa,%edx
  400f54:	be c3 4e 40 00       	mov    $0x404ec3,%esi
  400f59:	31 c0                	xor    %eax,%eax
  400f5b:	e8 90 fc ff ff       	callq  400bf0 <__printf_chk@plt>
  400f60:	31 ff                	xor    %edi,%edi
  400f62:	e8 d9 fc ff ff       	callq  400c40 <exit@plt>
  400f67:	e8 a4 fb ff ff       	callq  400b10 <__errno_location@plt>
  400f6c:	48 8b 3d cd 21 27 00 	mov    0x2721cd(%rip),%rdi        # 673140 <optarg@@GLIBC_2.2.5>
  400f73:	49 89 c7             	mov    %rax,%r15
  400f76:	31 f6                	xor    %esi,%esi
  400f78:	c7 00 00 00 00 00    	movl   $0x0,(%rax)
  400f7e:	ba 0a 00 00 00       	mov    $0xa,%edx
  400f83:	e8 38 fc ff ff       	callq  400bc0 <strtol@plt>
  400f88:	41 83 3f 00          	cmpl   $0x0,(%r15)
  400f8c:	48 89 05 8d 21 27 00 	mov    %rax,0x27218d(%rip)        # 673120 <SCALE>
  400f93:	0f 85 02 04 00 00    	jne    40139b <main+0x6bb>
  400f99:	48 83 3d 7f 21 27 00 	cmpq   $0x0,0x27217f(%rip)        # 673120 <SCALE>
  400fa0:	00 
  400fa1:	ba 07 4f 40 00       	mov    $0x404f07,%edx
  400fa6:	0f 8f 74 fd ff ff    	jg     400d20 <main+0x40>
  400fac:	e9 8c 02 00 00       	jmpq   40123d <main+0x55d>
  400fb1:	48 8b 3d 88 21 27 00 	mov    0x272188(%rip),%rdi        # 673140 <optarg@@GLIBC_2.2.5>
  400fb8:	e8 d3 fb ff ff       	callq  400b90 <__strdup@plt>
  400fbd:	48 85 c0             	test   %rax,%rax
  400fc0:	48 89 05 19 24 27 00 	mov    %rax,0x272419(%rip)        # 6733e0 <rootname>
  400fc7:	0f 85 53 fd ff ff    	jne    400d20 <main+0x40>
  400fcd:	48 8b 3d 8c 21 27 00 	mov    0x27218c(%rip),%rdi        # 673160 <stderr@@GLIBC_2.2.5>
  400fd4:	ba 48 56 40 00       	mov    $0x405648,%edx
  400fd9:	be 01 00 00 00       	mov    $0x1,%esi
  400fde:	bd 01 00 00 00       	mov    $0x1,%ebp
  400fe3:	e8 68 fc ff ff       	callq  400c50 <__fprintf_chk@plt>
  400fe8:	e9 33 fd ff ff       	jmpq   400d20 <main+0x40>
  400fed:	e8 1e fb ff ff       	callq  400b10 <__errno_location@plt>
  400ff2:	48 8b 3d 47 21 27 00 	mov    0x272147(%rip),%rdi        # 673140 <optarg@@GLIBC_2.2.5>
  400ff9:	49 89 c7             	mov    %rax,%r15
  400ffc:	31 f6                	xor    %esi,%esi
  400ffe:	c7 00 00 00 00 00    	movl   $0x0,(%rax)
  401004:	ba 0a 00 00 00       	mov    $0xa,%edx
  401009:	e8 b2 fb ff ff       	callq  400bc0 <strtol@plt>
  40100e:	41 83 3f 00          	cmpl   $0x0,(%r15)
  401012:	48 89 05 ff 20 27 00 	mov    %rax,0x2720ff(%rip)        # 673118 <edgefactor>
  401019:	0f 85 55 03 00 00    	jne    401374 <main+0x694>
  40101f:	48 83 3d f1 20 27 00 	cmpq   $0x0,0x2720f1(%rip)        # 673118 <edgefactor>
  401026:	00 
  401027:	ba 70 56 40 00       	mov    $0x405670,%edx
  40102c:	0f 8f ee fc ff ff    	jg     400d20 <main+0x40>
  401032:	e9 06 02 00 00       	jmpq   40123d <main+0x55d>
  401037:	c7 05 d3 23 27 00 01 	movl   $0x1,0x2723d3(%rip)        # 673414 <VERBOSE>
  40103e:	00 00 00 
  401041:	e9 da fc ff ff       	jmpq   400d20 <main+0x40>
  401046:	48 8b 3d f3 20 27 00 	mov    0x2720f3(%rip),%rdi        # 673140 <optarg@@GLIBC_2.2.5>
  40104d:	e8 3e fb ff ff       	callq  400b90 <__strdup@plt>
  401052:	48 85 c0             	test   %rax,%rax
  401055:	48 89 05 bc 23 27 00 	mov    %rax,0x2723bc(%rip)        # 673418 <dumpname>
  40105c:	0f 85 be fc ff ff    	jne    400d20 <main+0x40>
  401062:	48 8b 3d f7 20 27 00 	mov    0x2720f7(%rip),%rdi        # 673160 <stderr@@GLIBC_2.2.5>
  401069:	ba d2 4e 40 00       	mov    $0x404ed2,%edx
  40106e:	be 01 00 00 00       	mov    $0x1,%esi
  401073:	bd 01 00 00 00       	mov    $0x1,%ebp
  401078:	e8 d3 fb ff ff       	callq  400c50 <__fprintf_chk@plt>
  40107d:	e9 9e fc ff ff       	jmpq   400d20 <main+0x40>
  401082:	c7 05 84 23 27 00 01 	movl   $0x1,0x272384(%rip)        # 673410 <use_RMAT>
  401089:	00 00 00 
  40108c:	e9 8f fc ff ff       	jmpq   400d20 <main+0x40>
  401091:	e8 7a fa ff ff       	callq  400b10 <__errno_location@plt>
  401096:	48 8b 3d a3 20 27 00 	mov    0x2720a3(%rip),%rdi        # 673140 <optarg@@GLIBC_2.2.5>
  40109d:	31 f6                	xor    %esi,%esi
  40109f:	c7 00 00 00 00 00    	movl   $0x0,(%rax)
  4010a5:	49 89 c7             	mov    %rax,%r15
  4010a8:	e8 93 fa ff ff       	callq  400b40 <strtod@plt>
  4010ad:	41 f6 c5 08          	test   $0x8,%r13b
  4010b1:	f2 0f 11 05 37 20 27 	movsd  %xmm0,0x272037(%rip)        # 6730f0 <D>
  4010b8:	00 
  4010b9:	0f 85 95 02 00 00    	jne    401354 <main+0x674>
  4010bf:	41 83 3f 00          	cmpl   $0x0,(%r15)
  4010c3:	0f 85 04 02 00 00    	jne    4012cd <main+0x5ed>
  4010c9:	66 0f ef ed          	pxor   %xmm5,%xmm5
  4010cd:	66 0f 2e 2d 1b 20 27 	ucomisd 0x27201b(%rip),%xmm5        # 6730f0 <D>
  4010d4:	00 
  4010d5:	0f 87 27 03 00 00    	ja     401402 <main+0x722>
  4010db:	41 83 cd 08          	or     $0x8,%r13d
  4010df:	41 83 c6 01          	add    $0x1,%r14d
  4010e3:	e9 38 fc ff ff       	jmpq   400d20 <main+0x40>
  4010e8:	e8 23 fa ff ff       	callq  400b10 <__errno_location@plt>
  4010ed:	48 8b 3d 4c 20 27 00 	mov    0x27204c(%rip),%rdi        # 673140 <optarg@@GLIBC_2.2.5>
  4010f4:	31 f6                	xor    %esi,%esi
  4010f6:	c7 00 00 00 00 00    	movl   $0x0,(%rax)
  4010fc:	49 89 c7             	mov    %rax,%r15
  4010ff:	e8 3c fa ff ff       	callq  400b40 <strtod@plt>
  401104:	41 f6 c5 04          	test   $0x4,%r13b
  401108:	f2 0f 11 05 00 20 27 	movsd  %xmm0,0x272000(%rip)        # 673110 <C>
  40110f:	00 
  401110:	0f 85 1e 02 00 00    	jne    401334 <main+0x654>
  401116:	41 83 3f 00          	cmpl   $0x0,(%r15)
  40111a:	0f 85 5f 01 00 00    	jne    40127f <main+0x59f>
  401120:	66 0f ef e4          	pxor   %xmm4,%xmm4
  401124:	66 0f 2e 25 e4 1f 27 	ucomisd 0x271fe4(%rip),%xmm4        # 673110 <C>
  40112b:	00 
  40112c:	0f 87 90 02 00 00    	ja     4013c2 <main+0x6e2>
  401132:	41 83 cd 04          	or     $0x4,%r13d
  401136:	41 83 c6 01          	add    $0x1,%r14d
  40113a:	e9 e1 fb ff ff       	jmpq   400d20 <main+0x40>
  40113f:	e8 cc f9 ff ff       	callq  400b10 <__errno_location@plt>
  401144:	48 8b 3d f5 1f 27 00 	mov    0x271ff5(%rip),%rdi        # 673140 <optarg@@GLIBC_2.2.5>
  40114b:	31 f6                	xor    %esi,%esi
  40114d:	c7 00 00 00 00 00    	movl   $0x0,(%rax)
  401153:	49 89 c7             	mov    %rax,%r15
  401156:	e8 e5 f9 ff ff       	callq  400b40 <strtod@plt>
  40115b:	41 f6 c5 01          	test   $0x1,%r13b
  40115f:	f2 0f 11 05 99 1f 27 	movsd  %xmm0,0x271f99(%rip)        # 673100 <A>
  401166:	00 
  401167:	0f 85 a7 01 00 00    	jne    401314 <main+0x634>
  40116d:	41 83 3f 00          	cmpl   $0x0,(%r15)
  401171:	0f 85 2f 01 00 00    	jne    4012a6 <main+0x5c6>
  401177:	66 0f ef f6          	pxor   %xmm6,%xmm6
  40117b:	66 0f 2e 35 7d 1f 27 	ucomisd 0x271f7d(%rip),%xmm6        # 673100 <A>
  401182:	00 
  401183:	0f 87 59 02 00 00    	ja     4013e2 <main+0x702>
  401189:	41 83 cd 01          	or     $0x1,%r13d
  40118d:	41 83 c6 01          	add    $0x1,%r14d
  401191:	e9 8a fb ff ff       	jmpq   400d20 <main+0x40>
  401196:	e8 75 f9 ff ff       	callq  400b10 <__errno_location@plt>
  40119b:	48 8b 3d 9e 1f 27 00 	mov    0x271f9e(%rip),%rdi        # 673140 <optarg@@GLIBC_2.2.5>
  4011a2:	31 f6                	xor    %esi,%esi
  4011a4:	c7 00 00 00 00 00    	movl   $0x0,(%rax)
  4011aa:	49 89 c7             	mov    %rax,%r15
  4011ad:	e8 8e f9 ff ff       	callq  400b40 <strtod@plt>
  4011b2:	41 f6 c5 02          	test   $0x2,%r13b
  4011b6:	f2 0f 11 05 4a 1f 27 	movsd  %xmm0,0x271f4a(%rip)        # 673108 <B>
  4011bd:	00 
  4011be:	0f 85 30 01 00 00    	jne    4012f4 <main+0x614>
  4011c4:	41 83 3f 00          	cmpl   $0x0,(%r15)
  4011c8:	0f 85 8a 00 00 00    	jne    401258 <main+0x578>
  4011ce:	66 0f ef ff          	pxor   %xmm7,%xmm7
  4011d2:	66 0f 2e 3d 2e 1f 27 	ucomisd 0x271f2e(%rip),%xmm7        # 673108 <B>
  4011d9:	00 
  4011da:	0f 87 42 02 00 00    	ja     401422 <main+0x742>
  4011e0:	41 83 cd 02          	or     $0x2,%r13d
  4011e4:	41 83 c6 01          	add    $0x1,%r14d
  4011e8:	e9 33 fb ff ff       	jmpq   400d20 <main+0x40>
  4011ed:	f2 0f 10 15 7b 48 00 	movsd  0x487b(%rip),%xmm2        # 405a70 <__PRETTY_FUNCTION__.5645+0x10>
  4011f4:	00 
  4011f5:	bf 01 00 00 00       	mov    $0x1,%edi
  4011fa:	f2 0f 10 1d 66 48 00 	movsd  0x4866(%rip),%xmm3        # 405a68 <__PRETTY_FUNCTION__.5645+0x8>
  401201:	00 
  401202:	b9 10 00 00 00       	mov    $0x10,%ecx
  401207:	66 0f 28 ca          	movapd %xmm2,%xmm1
  40120b:	ba 0e 00 00 00       	mov    $0xe,%edx
  401210:	f2 0f 10 05 60 48 00 	movsd  0x4860(%rip),%xmm0        # 405a78 <__PRETTY_FUNCTION__.5645+0x18>
  401217:	00 
  401218:	be 08 52 40 00       	mov    $0x405208,%esi
  40121d:	b8 04 00 00 00       	mov    $0x4,%eax
  401222:	e8 c9 f9 ff ff       	callq  400bf0 <__printf_chk@plt>
  401227:	31 ff                	xor    %edi,%edi
  401229:	e8 12 fa ff ff       	callq  400c40 <exit@plt>
  40122e:	b8 ad fb ca de       	mov    $0xdecafbad,%eax
  401233:	e9 05 fc ff ff       	jmpq   400e3d <main+0x15d>
  401238:	ba 2e 50 40 00       	mov    $0x40502e,%edx
  40123d:	48 8b 3d 1c 1f 27 00 	mov    0x271f1c(%rip),%rdi        # 673160 <stderr@@GLIBC_2.2.5>
  401244:	be 01 00 00 00       	mov    $0x1,%esi
  401249:	31 c0                	xor    %eax,%eax
  40124b:	83 cd ff             	or     $0xffffffff,%ebp
  40124e:	e8 fd f9 ff ff       	callq  400c50 <__fprintf_chk@plt>
  401253:	e9 c8 fa ff ff       	jmpq   400d20 <main+0x40>
  401258:	48 8b 0d e1 1e 27 00 	mov    0x271ee1(%rip),%rcx        # 673140 <optarg@@GLIBC_2.2.5>
  40125f:	48 8b 3d fa 1e 27 00 	mov    0x271efa(%rip),%rdi        # 673160 <stderr@@GLIBC_2.2.5>
  401266:	ba 8c 4f 40 00       	mov    $0x404f8c,%edx
  40126b:	be 01 00 00 00       	mov    $0x1,%esi
  401270:	31 c0                	xor    %eax,%eax
  401272:	83 cd ff             	or     $0xffffffff,%ebp
  401275:	e8 d6 f9 ff ff       	callq  400c50 <__fprintf_chk@plt>
  40127a:	e9 4f ff ff ff       	jmpq   4011ce <main+0x4ee>
  40127f:	48 8b 0d ba 1e 27 00 	mov    0x271eba(%rip),%rcx        # 673140 <optarg@@GLIBC_2.2.5>
  401286:	48 8b 3d d3 1e 27 00 	mov    0x271ed3(%rip),%rdi        # 673160 <stderr@@GLIBC_2.2.5>
  40128d:	ba c7 4f 40 00       	mov    $0x404fc7,%edx
  401292:	be 01 00 00 00       	mov    $0x1,%esi
  401297:	31 c0                	xor    %eax,%eax
  401299:	83 cd ff             	or     $0xffffffff,%ebp
  40129c:	e8 af f9 ff ff       	callq  400c50 <__fprintf_chk@plt>
  4012a1:	e9 7a fe ff ff       	jmpq   401120 <main+0x440>
  4012a6:	48 8b 0d 93 1e 27 00 	mov    0x271e93(%rip),%rcx        # 673140 <optarg@@GLIBC_2.2.5>
  4012ad:	48 8b 3d ac 1e 27 00 	mov    0x271eac(%rip),%rdi        # 673160 <stderr@@GLIBC_2.2.5>
  4012b4:	ba 51 4f 40 00       	mov    $0x404f51,%edx
  4012b9:	be 01 00 00 00       	mov    $0x1,%esi
  4012be:	31 c0                	xor    %eax,%eax
  4012c0:	83 cd ff             	or     $0xffffffff,%ebp
  4012c3:	e8 88 f9 ff ff       	callq  400c50 <__fprintf_chk@plt>
  4012c8:	e9 aa fe ff ff       	jmpq   401177 <main+0x497>
  4012cd:	48 8b 0d 6c 1e 27 00 	mov    0x271e6c(%rip),%rcx        # 673140 <optarg@@GLIBC_2.2.5>
  4012d4:	48 8b 3d 85 1e 27 00 	mov    0x271e85(%rip),%rdi        # 673160 <stderr@@GLIBC_2.2.5>
  4012db:	ba 02 50 40 00       	mov    $0x405002,%edx
  4012e0:	be 01 00 00 00       	mov    $0x1,%esi
  4012e5:	31 c0                	xor    %eax,%eax
  4012e7:	83 cd ff             	or     $0xffffffff,%ebp
  4012ea:	e8 61 f9 ff ff       	callq  400c50 <__fprintf_chk@plt>
  4012ef:	e9 d5 fd ff ff       	jmpq   4010c9 <main+0x3e9>
  4012f4:	48 8b 3d 65 1e 27 00 	mov    0x271e65(%rip),%rdi        # 673160 <stderr@@GLIBC_2.2.5>
  4012fb:	ba 7d 4f 40 00       	mov    $0x404f7d,%edx
  401300:	be 01 00 00 00       	mov    $0x1,%esi
  401305:	31 c0                	xor    %eax,%eax
  401307:	83 cd ff             	or     $0xffffffff,%ebp
  40130a:	e8 41 f9 ff ff       	callq  400c50 <__fprintf_chk@plt>
  40130f:	e9 b0 fe ff ff       	jmpq   4011c4 <main+0x4e4>
  401314:	48 8b 3d 45 1e 27 00 	mov    0x271e45(%rip),%rdi        # 673160 <stderr@@GLIBC_2.2.5>
  40131b:	ba 42 4f 40 00       	mov    $0x404f42,%edx
  401320:	be 01 00 00 00       	mov    $0x1,%esi
  401325:	31 c0                	xor    %eax,%eax
  401327:	83 cd ff             	or     $0xffffffff,%ebp
  40132a:	e8 21 f9 ff ff       	callq  400c50 <__fprintf_chk@plt>
  40132f:	e9 39 fe ff ff       	jmpq   40116d <main+0x48d>
  401334:	48 8b 3d 25 1e 27 00 	mov    0x271e25(%rip),%rdi        # 673160 <stderr@@GLIBC_2.2.5>
  40133b:	ba b8 4f 40 00       	mov    $0x404fb8,%edx
  401340:	be 01 00 00 00       	mov    $0x1,%esi
  401345:	31 c0                	xor    %eax,%eax
  401347:	83 cd ff             	or     $0xffffffff,%ebp
  40134a:	e8 01 f9 ff ff       	callq  400c50 <__fprintf_chk@plt>
  40134f:	e9 c2 fd ff ff       	jmpq   401116 <main+0x436>
  401354:	48 8b 3d 05 1e 27 00 	mov    0x271e05(%rip),%rdi        # 673160 <stderr@@GLIBC_2.2.5>
  40135b:	ba f3 4f 40 00       	mov    $0x404ff3,%edx
  401360:	be 01 00 00 00       	mov    $0x1,%esi
  401365:	31 c0                	xor    %eax,%eax
  401367:	83 cd ff             	or     $0xffffffff,%ebp
  40136a:	e8 e1 f8 ff ff       	callq  400c50 <__fprintf_chk@plt>
  40136f:	e9 4b fd ff ff       	jmpq   4010bf <main+0x3df>
  401374:	48 8b 0d c5 1d 27 00 	mov    0x271dc5(%rip),%rcx        # 673140 <optarg@@GLIBC_2.2.5>
  40137b:	48 8b 3d de 1d 27 00 	mov    0x271dde(%rip),%rdi        # 673160 <stderr@@GLIBC_2.2.5>
  401382:	ba 24 4f 40 00       	mov    $0x404f24,%edx
  401387:	be 01 00 00 00       	mov    $0x1,%esi
  40138c:	31 c0                	xor    %eax,%eax
  40138e:	83 cd ff             	or     $0xffffffff,%ebp
  401391:	e8 ba f8 ff ff       	callq  400c50 <__fprintf_chk@plt>
  401396:	e9 84 fc ff ff       	jmpq   40101f <main+0x33f>
  40139b:	48 8b 0d 9e 1d 27 00 	mov    0x271d9e(%rip),%rcx        # 673140 <optarg@@GLIBC_2.2.5>
  4013a2:	48 8b 3d b7 1d 27 00 	mov    0x271db7(%rip),%rdi        # 673160 <stderr@@GLIBC_2.2.5>
  4013a9:	ba ef 4e 40 00       	mov    $0x404eef,%edx
  4013ae:	be 01 00 00 00       	mov    $0x1,%esi
  4013b3:	31 c0                	xor    %eax,%eax
  4013b5:	83 cd ff             	or     $0xffffffff,%ebp
  4013b8:	e8 93 f8 ff ff       	callq  400c50 <__fprintf_chk@plt>
  4013bd:	e9 d7 fb ff ff       	jmpq   400f99 <main+0x2b9>
  4013c2:	48 8b 3d 97 1d 27 00 	mov    0x271d97(%rip),%rdi        # 673160 <stderr@@GLIBC_2.2.5>
  4013c9:	ba db 4f 40 00       	mov    $0x404fdb,%edx
  4013ce:	be 01 00 00 00       	mov    $0x1,%esi
  4013d3:	31 c0                	xor    %eax,%eax
  4013d5:	83 cd ff             	or     $0xffffffff,%ebp
  4013d8:	e8 73 f8 ff ff       	callq  400c50 <__fprintf_chk@plt>
  4013dd:	e9 50 fd ff ff       	jmpq   401132 <main+0x452>
  4013e2:	48 8b 3d 77 1d 27 00 	mov    0x271d77(%rip),%rdi        # 673160 <stderr@@GLIBC_2.2.5>
  4013e9:	ba 65 4f 40 00       	mov    $0x404f65,%edx
  4013ee:	be 01 00 00 00       	mov    $0x1,%esi
  4013f3:	31 c0                	xor    %eax,%eax
  4013f5:	83 cd ff             	or     $0xffffffff,%ebp
  4013f8:	e8 53 f8 ff ff       	callq  400c50 <__fprintf_chk@plt>
  4013fd:	e9 87 fd ff ff       	jmpq   401189 <main+0x4a9>
  401402:	48 8b 3d 57 1d 27 00 	mov    0x271d57(%rip),%rdi        # 673160 <stderr@@GLIBC_2.2.5>
  401409:	ba 16 50 40 00       	mov    $0x405016,%edx
  40140e:	be 01 00 00 00       	mov    $0x1,%esi
  401413:	31 c0                	xor    %eax,%eax
  401415:	83 cd ff             	or     $0xffffffff,%ebp
  401418:	e8 33 f8 ff ff       	callq  400c50 <__fprintf_chk@plt>
  40141d:	e9 b9 fc ff ff       	jmpq   4010db <main+0x3fb>
  401422:	48 8b 3d 37 1d 27 00 	mov    0x271d37(%rip),%rdi        # 673160 <stderr@@GLIBC_2.2.5>
  401429:	ba a0 4f 40 00       	mov    $0x404fa0,%edx
  40142e:	be 01 00 00 00       	mov    $0x1,%esi
  401433:	31 c0                	xor    %eax,%eax
  401435:	83 cd ff             	or     $0xffffffff,%ebp
  401438:	e8 13 f8 ff ff       	callq  400c50 <__fprintf_chk@plt>
  40143d:	e9 9e fd ff ff       	jmpq   4011e0 <main+0x500>
  401442:	83 3d cb 1f 27 00 00 	cmpl   $0x0,0x271fcb(%rip)        # 673414 <VERBOSE>
  401449:	0f 85 2d 0f 00 00    	jne    40237c <main+0x169c>
  40144f:	83 3d ba 1f 27 00 00 	cmpl   $0x0,0x271fba(%rip)        # 673410 <use_RMAT>
  401456:	0f 84 2b 08 00 00    	je     401c87 <main+0xfa7>
  40145c:	48 8b 44 24 20       	mov    0x20(%rsp),%rax
  401461:	48 89 05 a0 1f 27 00 	mov    %rax,0x271fa0(%rip)        # 673408 <nedge>
  401468:	48 c1 e0 04          	shl    $0x4,%rax
  40146c:	48 89 c7             	mov    %rax,%rdi
  40146f:	e8 9c 38 00 00       	callq  404d10 <xmalloc>
  401474:	be 70 34 67 00       	mov    $0x673470,%esi
  401479:	bf 01 00 00 00       	mov    $0x1,%edi
  40147e:	48 89 05 7b 1f 27 00 	mov    %rax,0x271f7b(%rip)        # 673400 <IJ>
  401485:	e8 c6 f6 ff ff       	callq  400b50 <clock_gettime@plt>
  40148a:	8b 15 90 1c 27 00    	mov    0x271c90(%rip),%edx        # 673120 <SCALE>
  401490:	48 8b 35 71 1f 27 00 	mov    0x271f71(%rip),%rsi        # 673408 <nedge>
  401497:	48 8b 3d 62 1f 27 00 	mov    0x271f62(%rip),%rdi        # 673400 <IJ>
  40149e:	f2 0f 10 15 6a 1c 27 	movsd  0x271c6a(%rip),%xmm2        # 673110 <C>
  4014a5:	00 
  4014a6:	f2 0f 10 0d 5a 1c 27 	movsd  0x271c5a(%rip),%xmm1        # 673108 <B>
  4014ad:	00 
  4014ae:	f2 0f 10 05 4a 1c 27 	movsd  0x271c4a(%rip),%xmm0        # 673100 <A>
  4014b5:	00 
  4014b6:	e8 a5 1c 00 00       	callq  403160 <rmat_edgelist>
  4014bb:	e8 70 32 00 00       	callq  404730 <toc>
  4014c0:	f2 0f 11 05 30 1f 27 	movsd  %xmm0,0x271f30(%rip)        # 6733f8 <generation_time>
  4014c7:	00 
  4014c8:	83 3d 45 1f 27 00 00 	cmpl   $0x0,0x271f45(%rip)        # 673414 <VERBOSE>
  4014cf:	0f 85 d6 0e 00 00    	jne    4023ab <main+0x16cb>
  4014d5:	be 70 34 67 00       	mov    $0x673470,%esi
  4014da:	bf 01 00 00 00       	mov    $0x1,%edi
  4014df:	e8 6c f6 ff ff       	callq  400b50 <clock_gettime@plt>
  4014e4:	48 8b 35 1d 1f 27 00 	mov    0x271f1d(%rip),%rsi        # 673408 <nedge>
  4014eb:	48 8b 3d 0e 1f 27 00 	mov    0x271f0e(%rip),%rdi        # 673400 <IJ>
  4014f2:	e8 39 15 00 00       	callq  402a30 <create_graph_from_edgelist>
  4014f7:	89 c3                	mov    %eax,%ebx
  4014f9:	e8 32 32 00 00       	callq  404730 <toc>
  4014fe:	83 3d 0f 1f 27 00 00 	cmpl   $0x0,0x271f0f(%rip)        # 673414 <VERBOSE>
  401505:	f2 0f 11 05 db 1e 27 	movsd  %xmm0,0x271edb(%rip)        # 6733e8 <construction_time>
  40150c:	00 
  40150d:	0f 85 33 0e 00 00    	jne    402346 <main+0x1666>
  401513:	85 db                	test   %ebx,%ebx
  401515:	ba 30 51 40 00       	mov    $0x405130,%edx
  40151a:	0f 85 bd 11 00 00    	jne    4026dd <main+0x19fd>
  401520:	48 8b 3d b9 1e 27 00 	mov    0x271eb9(%rip),%rdi        # 6733e0 <rootname>
  401527:	48 85 ff             	test   %rdi,%rdi
  40152a:	0f 84 98 0e 00 00    	je     4023c8 <main+0x16e8>
  401530:	31 f6                	xor    %esi,%esi
  401532:	31 c0                	xor    %eax,%eax
  401534:	e8 c7 f6 ff ff       	callq  400c00 <open64@plt>
  401539:	85 c0                	test   %eax,%eax
  40153b:	89 c5                	mov    %eax,%ebp
  40153d:	0f 88 d1 12 00 00    	js     402814 <main+0x1b34>
  401543:	48 63 1d ae 1b 27 00 	movslq 0x271bae(%rip),%rbx        # 6730f8 <NBFS>
  40154a:	b9 00 02 00 00       	mov    $0x200,%ecx
  40154f:	be e0 31 67 00       	mov    $0x6731e0,%esi
  401554:	89 c7                	mov    %eax,%edi
  401556:	48 c1 e3 03          	shl    $0x3,%rbx
  40155a:	48 89 da             	mov    %rbx,%rdx
  40155d:	e8 be f5 ff ff       	callq  400b20 <__read_chk@plt>
  401562:	48 39 c3             	cmp    %rax,%rbx
  401565:	0f 85 bd 12 00 00    	jne    402828 <main+0x1b48>
  40156b:	89 ef                	mov    %ebp,%edi
  40156d:	e8 0e f6 ff ff       	callq  400b80 <close@plt>
  401572:	45 31 ff             	xor    %r15d,%r15d
  401575:	83 3d 7c 1b 27 00 00 	cmpl   $0x0,0x271b7c(%rip)        # 6730f8 <NBFS>
  40157c:	c7 04 24 00 00 00 00 	movl   $0x0,(%rsp)
  401583:	0f 8e a3 02 00 00    	jle    40182c <main+0xb4c>
  401589:	0f 1f 80 00 00 00 00 	nopl   0x0(%rax)
  401590:	48 8b 1d 89 1e 27 00 	mov    0x271e89(%rip),%rbx        # 673420 <nvtx_scale>
  401597:	4c 8d 24 dd 00 00 00 	lea    0x0(,%rbx,8),%r12
  40159e:	00 
  40159f:	4c 89 e7             	mov    %r12,%rdi
  4015a2:	e8 39 f6 ff ff       	callq  400be0 <malloc@plt>
  4015a7:	48 85 c0             	test   %rax,%rax
  4015aa:	48 89 c5             	mov    %rax,%rbp
  4015ad:	0f 84 59 12 00 00    	je     40280c <main+0x1b2c>
  4015b3:	49 3b 9f e0 31 67 00 	cmp    0x6731e0(%r15),%rbx
  4015ba:	0f 8e 33 12 00 00    	jle    4027f3 <main+0x1b13>
  4015c0:	44 8b 05 4d 1e 27 00 	mov    0x271e4d(%rip),%r8d        # 673414 <VERBOSE>
  4015c7:	45 85 c0             	test   %r8d,%r8d
  4015ca:	0f 85 5e 05 00 00    	jne    401b2e <main+0xe4e>
  4015d0:	be 70 34 67 00       	mov    $0x673470,%esi
  4015d5:	bf 01 00 00 00       	mov    $0x1,%edi
  4015da:	e8 71 f5 ff ff       	callq  400b50 <clock_gettime@plt>
  4015df:	49 8b 97 e0 31 67 00 	mov    0x6731e0(%r15),%rdx
  4015e6:	48 8d 74 24 68       	lea    0x68(%rsp),%rsi
  4015eb:	48 89 ef             	mov    %rbp,%rdi
  4015ee:	e8 5d 19 00 00       	callq  402f50 <make_bfs_tree>
  4015f3:	48 8d 74 24 70       	lea    0x70(%rsp),%rsi
  4015f8:	bf 01 00 00 00       	mov    $0x1,%edi
  4015fd:	89 c3                	mov    %eax,%ebx
  4015ff:	e8 4c f5 ff ff       	callq  400b50 <clock_gettime@plt>
  401604:	66 0f ef c0          	pxor   %xmm0,%xmm0
  401608:	8b 3d 06 1e 27 00    	mov    0x271e06(%rip),%edi        # 673414 <VERBOSE>
  40160e:	66 0f ef c9          	pxor   %xmm1,%xmm1
  401612:	66 0f ef d2          	pxor   %xmm2,%xmm2
  401616:	f2 48 0f 2a 44 24 78 	cvtsi2sdq 0x78(%rsp),%xmm0
  40161d:	85 ff                	test   %edi,%edi
  40161f:	f2 48 0f 2a 0d 50 1e 	cvtsi2sdq 0x271e50(%rip),%xmm1        # 673478 <tic_ts.lto_priv.16+0x8>
  401626:	27 00 
  401628:	f2 0f 5c c1          	subsd  %xmm1,%xmm0
  40162c:	f2 0f 10 0d 64 44 00 	movsd  0x4464(%rip),%xmm1        # 405a98 <__PRETTY_FUNCTION__.5645+0x38>
  401633:	00 
  401634:	f2 48 0f 2a 15 33 1e 	cvtsi2sdq 0x271e33(%rip),%xmm2        # 673470 <tic_ts.lto_priv.16>
  40163b:	27 00 
  40163d:	f2 0f 59 c8          	mulsd  %xmm0,%xmm1
  401641:	66 0f ef c0          	pxor   %xmm0,%xmm0
  401645:	f2 48 0f 2a 44 24 70 	cvtsi2sdq 0x70(%rsp),%xmm0
  40164c:	f2 0f 5c c2          	subsd  %xmm2,%xmm0
  401650:	f2 0f 58 c1          	addsd  %xmm1,%xmm0
  401654:	f2 41 0f 11 87 80 36 	movsd  %xmm0,0x673680(%r15)
  40165b:	67 00 
  40165d:	0f 85 7d 04 00 00    	jne    401ae0 <main+0xe00>
  401663:	85 db                	test   %ebx,%ebx
  401665:	0f 85 79 11 00 00    	jne    4027e4 <main+0x1b04>
  40166b:	4c 8b 74 24 68       	mov    0x68(%rsp),%r14
  401670:	4d 8b af e0 31 67 00 	mov    0x6731e0(%r15),%r13
  401677:	4d 39 f5             	cmp    %r14,%r13
  40167a:	4d 8d 66 01          	lea    0x1(%r14),%r12
  40167e:	0f 8f e1 04 00 00    	jg     401b65 <main+0xe85>
  401684:	4e 3b 6c ed 00       	cmp    0x0(%rbp,%r13,8),%r13
  401689:	0f 85 d6 04 00 00    	jne    401b65 <main+0xe85>
  40168f:	48 8b 05 72 1d 27 00 	mov    0x271d72(%rip),%rax        # 673408 <nedge>
  401696:	4c 89 e3             	mov    %r12,%rbx
  401699:	48 c1 e3 04          	shl    $0x4,%rbx
  40169d:	48 89 df             	mov    %rbx,%rdi
  4016a0:	48 89 44 24 10       	mov    %rax,0x10(%rsp)
  4016a5:	48 8b 05 54 1d 27 00 	mov    0x271d54(%rip),%rax        # 673400 <IJ>
  4016ac:	48 89 44 24 18       	mov    %rax,0x18(%rsp)
  4016b1:	e8 2a f5 ff ff       	callq  400be0 <malloc@plt>
  4016b6:	48 85 c0             	test   %rax,%rax
  4016b9:	48 89 44 24 08       	mov    %rax,0x8(%rsp)
  4016be:	0f 84 18 11 00 00    	je     4027dc <main+0x1afc>
  4016c4:	4d 85 e4             	test   %r12,%r12
  4016c7:	4a 8d 1c e0          	lea    (%rax,%r12,8),%rbx
  4016cb:	0f 8e aa 02 00 00    	jle    40197b <main+0xc9b>
  4016d1:	31 c0                	xor    %eax,%eax
  4016d3:	0f 1f 00             	nopl   (%rax)
  4016d6:	66 2e 0f 1f 84 00 00 	nopw   %cs:0x0(%rax,%rax,1)
  4016dd:	00 00 00 
  4016e0:	31 d2                	xor    %edx,%edx
  4016e2:	49 39 c5             	cmp    %rax,%r13
  4016e5:	0f 95 c2             	setne  %dl
  4016e8:	48 f7 da             	neg    %rdx
  4016eb:	48 89 14 c3          	mov    %rdx,(%rbx,%rax,8)
  4016ef:	48 83 c0 01          	add    $0x1,%rax
  4016f3:	49 39 c4             	cmp    %rax,%r12
  4016f6:	75 e8                	jne    4016e0 <main+0xa00>
  4016f8:	49 89 d8             	mov    %rbx,%r8
  4016fb:	45 31 d2             	xor    %r10d,%r10d
  4016fe:	31 ff                	xor    %edi,%edi
  401700:	eb 1f                	jmp    401721 <main+0xa41>
  401702:	0f 1f 40 00          	nopl   0x0(%rax)
  401706:	66 2e 0f 1f 84 00 00 	nopw   %cs:0x0(%rax,%rax,1)
  40170d:	00 00 00 
  401710:	48 83 c7 01          	add    $0x1,%rdi
  401714:	49 83 c0 08          	add    $0x8,%r8
  401718:	49 39 fc             	cmp    %rdi,%r12
  40171b:	0f 84 8f 00 00 00    	je     4017b0 <main+0xad0>
  401721:	49 83 38 00          	cmpq   $0x0,(%r8)
  401725:	79 e9                	jns    401710 <main+0xa30>
  401727:	45 85 d2             	test   %r10d,%r10d
  40172a:	75 e4                	jne    401710 <main+0xa30>
  40172c:	49 39 fd             	cmp    %rdi,%r13
  40172f:	48 8b 4c fd 00       	mov    0x0(%rbp,%rdi,8),%rcx
  401734:	74 da                	je     401710 <main+0xa30>
  401736:	48 85 c9             	test   %rcx,%rcx
  401739:	78 d5                	js     401710 <main+0xa30>
  40173b:	48 89 fa             	mov    %rdi,%rdx
  40173e:	31 f6                	xor    %esi,%esi
  401740:	48 89 c8             	mov    %rcx,%rax
  401743:	eb 38                	jmp    40177d <main+0xa9d>
  401745:	90                   	nop
  401746:	66 2e 0f 1f 84 00 00 	nopw   %cs:0x0(%rax,%rax,1)
  40174d:	00 00 00 
  401750:	49 39 f4             	cmp    %rsi,%r12
  401753:	4c 8d 0c c5 00 00 00 	lea    0x0(,%rax,8),%r9
  40175a:	00 
  40175b:	48 8b 14 c3          	mov    (%rbx,%rax,8),%rdx
  40175f:	0f 8e 3b 01 00 00    	jle    4018a0 <main+0xbc0>
  401765:	49 89 d3             	mov    %rdx,%r11
  401768:	49 c1 eb 3f          	shr    $0x3f,%r11
  40176c:	45 84 db             	test   %r11b,%r11b
  40176f:	0f 84 2b 01 00 00    	je     4018a0 <main+0xbc0>
  401775:	48 89 c2             	mov    %rax,%rdx
  401778:	4a 8b 44 0d 00       	mov    0x0(%rbp,%r9,1),%rax
  40177d:	48 39 c2             	cmp    %rax,%rdx
  401780:	0f 84 a7 0b 00 00    	je     40232d <main+0x164d>
  401786:	48 83 c6 01          	add    $0x1,%rsi
  40178a:	48 85 c0             	test   %rax,%rax
  40178d:	79 c1                	jns    401750 <main+0xa70>
  40178f:	48 83 c7 01          	add    $0x1,%rdi
  401793:	49 83 c0 08          	add    $0x8,%r8
  401797:	41 ba fe ff ff ff    	mov    $0xfffffffe,%r10d
  40179d:	49 39 fc             	cmp    %rdi,%r12
  4017a0:	0f 85 7b ff ff ff    	jne    401721 <main+0xa41>
  4017a6:	66 2e 0f 1f 84 00 00 	nopw   %cs:0x0(%rax,%rax,1)
  4017ad:	00 00 00 
  4017b0:	45 85 d2             	test   %r10d,%r10d
  4017b3:	0f 84 a2 01 00 00    	je     40195b <main+0xc7b>
  4017b9:	48 8b 7c 24 08       	mov    0x8(%rsp),%rdi
  4017be:	44 89 54 24 10       	mov    %r10d,0x10(%rsp)
  4017c3:	e8 28 f3 ff ff       	callq  400af0 <free@plt>
  4017c8:	44 8b 54 24 10       	mov    0x10(%rsp),%r10d
  4017cd:	8b 0d 41 1c 27 00    	mov    0x271c41(%rip),%ecx        # 673414 <VERBOSE>
  4017d3:	4d 63 ca             	movslq %r10d,%r9
  4017d6:	4d 89 8f 80 34 67 00 	mov    %r9,0x673480(%r15)
  4017dd:	85 c9                	test   %ecx,%ecx
  4017df:	0f 84 a0 03 00 00    	je     401b85 <main+0xea5>
  4017e5:	48 8b 3d 74 19 27 00 	mov    0x271974(%rip),%rdi        # 673160 <stderr@@GLIBC_2.2.5>
  4017ec:	31 c0                	xor    %eax,%eax
  4017ee:	ba 74 51 40 00       	mov    $0x405174,%edx
  4017f3:	be 01 00 00 00       	mov    $0x1,%esi
  4017f8:	e8 53 f4 ff ff       	callq  400c50 <__fprintf_chk@plt>
  4017fd:	4d 8b 8f 80 34 67 00 	mov    0x673480(%r15),%r9
  401804:	4d 85 c9             	test   %r9,%r9
  401807:	0f 88 78 03 00 00    	js     401b85 <main+0xea5>
  40180d:	48 89 ef             	mov    %rbp,%rdi
  401810:	49 83 c7 08          	add    $0x8,%r15
  401814:	e8 d7 f2 ff ff       	callq  400af0 <free@plt>
  401819:	83 04 24 01          	addl   $0x1,(%rsp)
  40181d:	8b 04 24             	mov    (%rsp),%eax
  401820:	3b 05 d2 18 27 00    	cmp    0x2718d2(%rip),%eax        # 6730f8 <NBFS>
  401826:	0f 8c 64 fd ff ff    	jl     401590 <main+0x8b0>
  40182c:	e8 7f 18 00 00       	callq  4030b0 <destroy_graph>
  401831:	48 8b 3d c8 1b 27 00 	mov    0x271bc8(%rip),%rdi        # 673400 <IJ>
  401838:	e8 b3 f2 ff ff       	callq  400af0 <free@plt>
  40183d:	8b 0d b5 18 27 00    	mov    0x2718b5(%rip),%ecx        # 6730f8 <NBFS>
  401843:	48 8b 15 ce 18 27 00 	mov    0x2718ce(%rip),%rdx        # 673118 <edgefactor>
  40184a:	48 8b 35 cf 1b 27 00 	mov    0x271bcf(%rip),%rsi        # 673420 <nvtx_scale>
  401851:	48 8b 3d c8 18 27 00 	mov    0x2718c8(%rip),%rdi        # 673120 <SCALE>
  401858:	f2 0f 10 2d 88 1b 27 	movsd  0x271b88(%rip),%xmm5        # 6733e8 <construction_time>
  40185f:	00 
  401860:	f2 0f 10 25 90 1b 27 	movsd  0x271b90(%rip),%xmm4        # 6733f8 <generation_time>
  401867:	00 
  401868:	f2 0f 10 1d 80 18 27 	movsd  0x271880(%rip),%xmm3        # 6730f0 <D>
  40186f:	00 
  401870:	f2 0f 10 15 98 18 27 	movsd  0x271898(%rip),%xmm2        # 673110 <C>
  401877:	00 
  401878:	f2 0f 10 0d 88 18 27 	movsd  0x271888(%rip),%xmm1        # 673108 <B>
  40187f:	00 
  401880:	f2 0f 10 05 78 18 27 	movsd  0x271878(%rip),%xmm0        # 673100 <A>
  401887:	00 
  401888:	e8 53 2f 00 00       	callq  4047e0 <output_results.constprop.5>
  40188d:	31 c0                	xor    %eax,%eax
  40188f:	e9 a2 f6 ff ff       	jmpq   400f36 <main+0x256>
  401894:	66 90                	xchg   %ax,%ax
  401896:	66 2e 0f 1f 84 00 00 	nopw   %cs:0x0(%rax,%rax,1)
  40189d:	00 00 00 
  4018a0:	49 39 f4             	cmp    %rsi,%r12
  4018a3:	0f 8e a7 00 00 00    	jle    401950 <main+0xc70>
  4018a9:	48 8d 04 16          	lea    (%rsi,%rdx,1),%rax
  4018ad:	48 85 c0             	test   %rax,%rax
  4018b0:	0f 8e ad 0a 00 00    	jle    402363 <main+0x1683>
  4018b6:	48 89 c2             	mov    %rax,%rdx
  4018b9:	4c 89 c6             	mov    %r8,%rsi
  4018bc:	48 89 c8             	mov    %rcx,%rax
  4018bf:	eb 20                	jmp    4018e1 <main+0xc01>
  4018c1:	0f 1f 44 00 00       	nopl   0x0(%rax,%rax,1)
  4018c6:	66 2e 0f 1f 84 00 00 	nopw   %cs:0x0(%rax,%rax,1)
  4018cd:	00 00 00 
  4018d0:	4d 85 c9             	test   %r9,%r9
  4018d3:	0f 84 8a 0a 00 00    	je     402363 <main+0x1683>
  4018d9:	48 8b 44 05 00       	mov    0x0(%rbp,%rax,1),%rax
  4018de:	4c 89 ca             	mov    %r9,%rdx
  4018e1:	48 c1 e0 03          	shl    $0x3,%rax
  4018e5:	48 89 16             	mov    %rdx,(%rsi)
  4018e8:	4c 8d 4a ff          	lea    -0x1(%rdx),%r9
  4018ec:	48 8d 34 03          	lea    (%rbx,%rax,1),%rsi
  4018f0:	48 8b 16             	mov    (%rsi),%rdx
  4018f3:	48 85 d2             	test   %rdx,%rdx
  4018f6:	78 d8                	js     4018d0 <main+0xbf0>
  4018f8:	49 39 d1             	cmp    %rdx,%r9
  4018fb:	0f 85 c2 0e 00 00    	jne    4027c3 <main+0x1ae3>
  401901:	49 8b 10             	mov    (%r8),%rdx
  401904:	48 85 d2             	test   %rdx,%rdx
  401907:	7f 0f                	jg     401918 <main+0xc38>
  401909:	e9 02 fe ff ff       	jmpq   401710 <main+0xa30>
  40190e:	66 90                	xchg   %ax,%ax
  401910:	48 8b 4c 35 00       	mov    0x0(%rbp,%rsi,1),%rcx
  401915:	48 89 c2             	mov    %rax,%rdx
  401918:	48 8b 04 cb          	mov    (%rbx,%rcx,8),%rax
  40191c:	48 8d 34 cd 00 00 00 	lea    0x0(,%rcx,8),%rsi
  401923:	00 
  401924:	48 85 c0             	test   %rax,%rax
  401927:	0f 8e e3 fd ff ff    	jle    401710 <main+0xa30>
  40192d:	48 8d 48 01          	lea    0x1(%rax),%rcx
  401931:	48 39 d1             	cmp    %rdx,%rcx
  401934:	74 da                	je     401910 <main+0xc30>
  401936:	b9 48 5a 40 00       	mov    $0x405a48,%ecx
  40193b:	ba 40 00 00 00       	mov    $0x40,%edx
  401940:	be a3 51 40 00       	mov    $0x4051a3,%esi
  401945:	bf e9 51 40 00       	mov    $0x4051e9,%edi
  40194a:	e8 11 f2 ff ff       	callq  400b60 <__assert_fail@plt>
  40194f:	90                   	nop
  401950:	41 ba ff ff ff ff    	mov    $0xffffffff,%r10d
  401956:	e9 b5 fd ff ff       	jmpq   401710 <main+0xa30>
  40195b:	4d 85 f6             	test   %r14,%r14
  40195e:	b8 00 00 00 00       	mov    $0x0,%eax
  401963:	48 8b 7c 24 08       	mov    0x8(%rsp),%rdi
  401968:	49 0f 49 c6          	cmovns %r14,%rax
  40196c:	31 f6                	xor    %esi,%esi
  40196e:	48 8d 14 c5 08 00 00 	lea    0x8(,%rax,8),%rdx
  401975:	00 
  401976:	e8 f5 f1 ff ff       	callq  400b70 <memset@plt>
  40197b:	48 8b 54 24 10       	mov    0x10(%rsp),%rdx
  401980:	48 01 d2             	add    %rdx,%rdx
  401983:	48 85 d2             	test   %rdx,%rdx
  401986:	0f 8e d3 02 00 00    	jle    401c5f <main+0xf7f>
  40198c:	48 8b 7c 24 18       	mov    0x18(%rsp),%rdi
  401991:	45 31 d2             	xor    %r10d,%r10d
  401994:	45 31 c0             	xor    %r8d,%r8d
  401997:	45 31 db             	xor    %r11d,%r11d
  40199a:	48 89 f8             	mov    %rdi,%rax
  40199d:	48 8d 7c d7 08       	lea    0x8(%rdi,%rdx,8),%rdi
  4019a2:	48 83 c0 08          	add    $0x8,%rax
  4019a6:	eb 38                	jmp    4019e0 <main+0xd00>
  4019a8:	0f 1f 84 00 00 00 00 	nopl   0x0(%rax,%rax,1)
  4019af:	00 
  4019b0:	40 84 f6             	test   %sil,%sil
  4019b3:	74 4f                	je     401a04 <main+0xd24>
  4019b5:	49 39 d6             	cmp    %rdx,%r14
  4019b8:	7d 5c                	jge    401a16 <main+0xd36>
  4019ba:	49 39 ce             	cmp    %rcx,%r14
  4019bd:	41 ba f5 ff ff ff    	mov    $0xfffffff5,%r10d
  4019c3:	7c 51                	jl     401a16 <main+0xd36>
  4019c5:	90                   	nop
  4019c6:	66 2e 0f 1f 84 00 00 	nopw   %cs:0x0(%rax,%rax,1)
  4019cd:	00 00 00 
  4019d0:	44 89 d2             	mov    %r10d,%edx
  4019d3:	48 83 c0 10          	add    $0x10,%rax
  4019d7:	48 39 f8             	cmp    %rdi,%rax
  4019da:	0f 84 a8 00 00 00    	je     401a88 <main+0xda8>
  4019e0:	48 8b 48 f8          	mov    -0x8(%rax),%rcx
  4019e4:	48 8b 10             	mov    (%rax),%rdx
  4019e7:	48 85 c9             	test   %rcx,%rcx
  4019ea:	78 e4                	js     4019d0 <main+0xcf0>
  4019ec:	48 89 d6             	mov    %rdx,%rsi
  4019ef:	48 c1 ee 3f          	shr    $0x3f,%rsi
  4019f3:	40 84 f6             	test   %sil,%sil
  4019f6:	75 d8                	jne    4019d0 <main+0xcf0>
  4019f8:	49 39 ce             	cmp    %rcx,%r14
  4019fb:	40 0f 9c c6          	setl   %sil
  4019ff:	49 39 d6             	cmp    %rdx,%r14
  401a02:	7d ac                	jge    4019b0 <main+0xcd0>
  401a04:	49 39 d6             	cmp    %rdx,%r14
  401a07:	7d 15                	jge    401a1e <main+0xd3e>
  401a09:	49 39 ce             	cmp    %rcx,%r14
  401a0c:	7c 10                	jl     401a1e <main+0xd3e>
  401a0e:	41 ba f5 ff ff ff    	mov    $0xfffffff5,%r10d
  401a14:	eb ba                	jmp    4019d0 <main+0xcf0>
  401a16:	41 ba f6 ff ff ff    	mov    $0xfffffff6,%r10d
  401a1c:	eb b2                	jmp    4019d0 <main+0xcf0>
  401a1e:	45 85 d2             	test   %r10d,%r10d
  401a21:	75 ad                	jne    4019d0 <main+0xcf0>
  401a23:	40 84 f6             	test   %sil,%sil
  401a26:	75 a8                	jne    4019d0 <main+0xcf0>
  401a28:	48 8b 74 cd 00       	mov    0x0(%rbp,%rcx,8),%rsi
  401a2d:	48 85 f6             	test   %rsi,%rsi
  401a30:	0f 88 18 01 00 00    	js     401b4e <main+0xe6e>
  401a36:	4c 8b 4c d5 00       	mov    0x0(%rbp,%rdx,8),%r9
  401a3b:	4d 85 c9             	test   %r9,%r9
  401a3e:	0f 88 6c 01 00 00    	js     401bb0 <main+0xed0>
  401a44:	41 83 c0 01          	add    $0x1,%r8d
  401a48:	48 39 d1             	cmp    %rdx,%rcx
  401a4b:	74 12                	je     401a5f <main+0xd7f>
  401a4d:	48 39 f2             	cmp    %rsi,%rdx
  401a50:	0f 84 c6 01 00 00    	je     401c1c <main+0xf3c>
  401a56:	4c 39 c9             	cmp    %r9,%rcx
  401a59:	0f 84 ab 01 00 00    	je     401c0a <main+0xf2a>
  401a5f:	48 8b 0c cb          	mov    (%rbx,%rcx,8),%rcx
  401a63:	48 2b 0c d3          	sub    (%rbx,%rdx,8),%rcx
  401a67:	ba f2 ff ff ff       	mov    $0xfffffff2,%edx
  401a6c:	48 83 c1 01          	add    $0x1,%rcx
  401a70:	48 83 f9 02          	cmp    $0x2,%rcx
  401a74:	41 0f 46 d3          	cmovbe %r11d,%edx
  401a78:	48 83 c0 10          	add    $0x10,%rax
  401a7c:	48 39 f8             	cmp    %rdi,%rax
  401a7f:	41 89 d2             	mov    %edx,%r10d
  401a82:	0f 85 58 ff ff ff    	jne    4019e0 <main+0xd00>
  401a88:	85 d2                	test   %edx,%edx
  401a8a:	0f 84 2b 01 00 00    	je     401bbb <main+0xedb>
  401a90:	48 8b 7c 24 08       	mov    0x8(%rsp),%rdi
  401a95:	44 89 54 24 18       	mov    %r10d,0x18(%rsp)
  401a9a:	44 89 44 24 10       	mov    %r8d,0x10(%rsp)
  401a9f:	e8 4c f0 ff ff       	callq  400af0 <free@plt>
  401aa4:	44 8b 54 24 18       	mov    0x18(%rsp),%r10d
  401aa9:	4c 63 44 24 10       	movslq 0x10(%rsp),%r8
  401aae:	45 85 d2             	test   %r10d,%r10d
  401ab1:	0f 85 16 fd ff ff    	jne    4017cd <main+0xaed>
  401ab7:	8b 15 57 19 27 00    	mov    0x271957(%rip),%edx        # 673414 <VERBOSE>
  401abd:	4d 89 87 80 34 67 00 	mov    %r8,0x673480(%r15)
  401ac4:	85 d2                	test   %edx,%edx
  401ac6:	0f 84 41 fd ff ff    	je     40180d <main+0xb2d>
  401acc:	e9 14 fd ff ff       	jmpq   4017e5 <main+0xb05>
  401ad1:	0f 1f 44 00 00       	nopl   0x0(%rax,%rax,1)
  401ad6:	66 2e 0f 1f 84 00 00 	nopw   %cs:0x0(%rax,%rax,1)
  401add:	00 00 00 
  401ae0:	48 8b 3d 79 16 27 00 	mov    0x271679(%rip),%rdi        # 673160 <stderr@@GLIBC_2.2.5>
  401ae7:	31 c0                	xor    %eax,%eax
  401ae9:	ba 74 51 40 00       	mov    $0x405174,%edx
  401aee:	be 01 00 00 00       	mov    $0x1,%esi
  401af3:	e8 58 f1 ff ff       	callq  400c50 <__fprintf_chk@plt>
  401af8:	85 db                	test   %ebx,%ebx
  401afa:	0f 85 e4 0c 00 00    	jne    4027e4 <main+0x1b04>
  401b00:	8b 35 0e 19 27 00    	mov    0x27190e(%rip),%esi        # 673414 <VERBOSE>
  401b06:	85 f6                	test   %esi,%esi
  401b08:	0f 84 5d fb ff ff    	je     40166b <main+0x98b>
  401b0e:	8b 0c 24             	mov    (%rsp),%ecx
  401b11:	48 8b 3d 48 16 27 00 	mov    0x271648(%rip),%rdi        # 673160 <stderr@@GLIBC_2.2.5>
  401b18:	ba 8f 51 40 00       	mov    $0x40518f,%edx
  401b1d:	be 01 00 00 00       	mov    $0x1,%esi
  401b22:	31 c0                	xor    %eax,%eax
  401b24:	e8 27 f1 ff ff       	callq  400c50 <__fprintf_chk@plt>
  401b29:	e9 3d fb ff ff       	jmpq   40166b <main+0x98b>
  401b2e:	8b 0c 24             	mov    (%rsp),%ecx
  401b31:	48 8b 3d 28 16 27 00 	mov    0x271628(%rip),%rdi        # 673160 <stderr@@GLIBC_2.2.5>
  401b38:	ba 62 51 40 00       	mov    $0x405162,%edx
  401b3d:	be 01 00 00 00       	mov    $0x1,%esi
  401b42:	31 c0                	xor    %eax,%eax
  401b44:	e8 07 f1 ff ff       	callq  400c50 <__fprintf_chk@plt>
  401b49:	e9 82 fa ff ff       	jmpq   4015d0 <main+0x8f0>
  401b4e:	48 83 7c d5 00 00    	cmpq   $0x0,0x0(%rbp,%rdx,8)
  401b54:	0f 88 a4 0d 00 00    	js     4028fe <main+0x1c1e>
  401b5a:	41 ba f3 ff ff ff    	mov    $0xfffffff3,%r10d
  401b60:	e9 6b fe ff ff       	jmpq   4019d0 <main+0xcf0>
  401b65:	8b 05 a9 18 27 00    	mov    0x2718a9(%rip),%eax        # 673414 <VERBOSE>
  401b6b:	49 c7 87 80 34 67 00 	movq   $0xfffffffffffffc19,0x673480(%r15)
  401b72:	19 fc ff ff 
  401b76:	85 c0                	test   %eax,%eax
  401b78:	0f 85 67 fc ff ff    	jne    4017e5 <main+0xb05>
  401b7e:	49 c7 c1 19 fc ff ff 	mov    $0xfffffffffffffc19,%r9
  401b85:	8b 0c 24             	mov    (%rsp),%ecx
  401b88:	48 8b 3d d1 15 27 00 	mov    0x2715d1(%rip),%rdi        # 673160 <stderr@@GLIBC_2.2.5>
  401b8f:	ba 48 58 40 00       	mov    $0x405848,%edx
  401b94:	be 01 00 00 00       	mov    $0x1,%esi
  401b99:	48 63 c1             	movslq %ecx,%rax
  401b9c:	4c 8b 04 c5 e0 31 67 	mov    0x6731e0(,%rax,8),%r8
  401ba3:	00 
  401ba4:	31 c0                	xor    %eax,%eax
  401ba6:	e8 a5 f0 ff ff       	callq  400c50 <__fprintf_chk@plt>
  401bab:	e8 50 ef ff ff       	callq  400b00 <abort@plt>
  401bb0:	41 ba f4 ff ff ff    	mov    $0xfffffff4,%r10d
  401bb6:	e9 15 fe ff ff       	jmpq   4019d0 <main+0xcf0>
  401bbb:	4d 85 e4             	test   %r12,%r12
  401bbe:	0f 8e cc fe ff ff    	jle    401a90 <main+0xdb0>
  401bc4:	48 8b 4c 24 08       	mov    0x8(%rsp),%rcx
  401bc9:	31 c0                	xor    %eax,%eax
  401bcb:	0f 1f 44 00 00       	nopl   0x0(%rax,%rax,1)
  401bd0:	45 85 d2             	test   %r10d,%r10d
  401bd3:	75 27                	jne    401bfc <main+0xf1c>
  401bd5:	4c 39 e8             	cmp    %r13,%rax
  401bd8:	74 22                	je     401bfc <main+0xf1c>
  401bda:	48 8b 54 c5 00       	mov    0x0(%rbp,%rax,8),%rdx
  401bdf:	48 85 d2             	test   %rdx,%rdx
  401be2:	78 18                	js     401bfc <main+0xf1c>
  401be4:	48 83 3c c1 01       	cmpq   $0x1,(%rcx,%rax,8)
  401be9:	bb f0 ff ff ff       	mov    $0xfffffff0,%ebx
  401bee:	45 19 d2             	sbb    %r10d,%r10d
  401bf1:	41 83 e2 f1          	and    $0xfffffff1,%r10d
  401bf5:	48 39 d0             	cmp    %rdx,%rax
  401bf8:	44 0f 44 d3          	cmove  %ebx,%r10d
  401bfc:	48 83 c0 01          	add    $0x1,%rax
  401c00:	49 39 c4             	cmp    %rax,%r12
  401c03:	75 cb                	jne    401bd0 <main+0xef0>
  401c05:	e9 86 fe ff ff       	jmpq   401a90 <main+0xdb0>
  401c0a:	48 8b 74 24 08       	mov    0x8(%rsp),%rsi
  401c0f:	48 c7 04 d6 01 00 00 	movq   $0x1,(%rsi,%rdx,8)
  401c16:	00 
  401c17:	e9 43 fe ff ff       	jmpq   401a5f <main+0xd7f>
  401c1c:	48 8b 74 24 08       	mov    0x8(%rsp),%rsi
  401c21:	48 c7 04 ce 01 00 00 	movq   $0x1,(%rsi,%rcx,8)
  401c28:	00 
  401c29:	e9 28 fe ff ff       	jmpq   401a56 <main+0xd76>
  401c2e:	89 ef                	mov    %ebp,%edi
  401c30:	e8 4b ef ff ff       	callq  400b80 <close@plt>
  401c35:	83 3d d8 17 27 00 00 	cmpl   $0x0,0x2717d8(%rip)        # 673414 <VERBOSE>
  401c3c:	0f 84 93 f8 ff ff    	je     4014d5 <main+0x7f5>
  401c42:	48 8b 3d 17 15 27 00 	mov    0x271517(%rip),%rdi        # 673160 <stderr@@GLIBC_2.2.5>
  401c49:	ba 1e 51 40 00       	mov    $0x40511e,%edx
  401c4e:	be 01 00 00 00       	mov    $0x1,%esi
  401c53:	31 c0                	xor    %eax,%eax
  401c55:	e8 f6 ef ff ff       	callq  400c50 <__fprintf_chk@plt>
  401c5a:	e9 76 f8 ff ff       	jmpq   4014d5 <main+0x7f5>
  401c5f:	45 31 c0             	xor    %r8d,%r8d
  401c62:	45 31 d2             	xor    %r10d,%r10d
  401c65:	4d 85 e4             	test   %r12,%r12
  401c68:	0f 8f 56 ff ff ff    	jg     401bc4 <main+0xee4>
  401c6e:	48 8b 7c 24 08       	mov    0x8(%rsp),%rdi
  401c73:	44 89 44 24 10       	mov    %r8d,0x10(%rsp)
  401c78:	e8 73 ee ff ff       	callq  400af0 <free@plt>
  401c7d:	4c 63 44 24 10       	movslq 0x10(%rsp),%r8
  401c82:	e9 30 fe ff ff       	jmpq   401ab7 <main+0xdd7>
  401c87:	be 70 34 67 00       	mov    $0x673470,%esi
  401c8c:	bf 01 00 00 00       	mov    $0x1,%edi
  401c91:	e8 ba ee ff ff       	callq  400b50 <clock_gettime@plt>
  401c96:	48 8b 05 53 17 27 00 	mov    0x271753(%rip),%rax        # 6733f0 <userseed>
  401c9d:	48 8b 1d 7c 14 27 00 	mov    0x27147c(%rip),%rbx        # 673120 <SCALE>
  401ca4:	48 89 c2             	mov    %rax,%rdx
  401ca7:	49 89 c4             	mov    %rax,%r12
  401caa:	48 c1 e8 3c          	shr    $0x3c,%rax
  401cae:	48 c1 ea 1e          	shr    $0x1e,%rdx
  401cb2:	89 5c 24 2c          	mov    %ebx,0x2c(%rsp)
  401cb6:	41 81 e4 ff ff ff 3f 	and    $0x3fffffff,%r12d
  401cbd:	81 e2 ff ff ff 3f    	and    $0x3fffffff,%edx
  401cc3:	49 83 c4 01          	add    $0x1,%r12
  401cc7:	48 8d 7a 01          	lea    0x1(%rdx),%rdi
  401ccb:	48 89 c2             	mov    %rax,%rdx
  401cce:	48 c1 e2 04          	shl    $0x4,%rdx
  401cd2:	48 8d 44 10 01       	lea    0x1(%rax,%rdx,1),%rax
  401cd7:	49 89 ff             	mov    %rdi,%r15
  401cda:	48 89 7c 24 10       	mov    %rdi,0x10(%rsp)
  401cdf:	49 89 c6             	mov    %rax,%r14
  401ce2:	48 89 44 24 18       	mov    %rax,0x18(%rsp)
  401ce7:	48 8b 44 24 20       	mov    0x20(%rsp),%rax
  401cec:	48 89 05 15 17 27 00 	mov    %rax,0x271715(%rip)        # 673408 <nedge>
  401cf3:	48 c1 e0 04          	shl    $0x4,%rax
  401cf7:	48 89 c7             	mov    %rax,%rdi
  401cfa:	e8 11 30 00 00       	callq  404d10 <xmalloc>
  401cff:	89 d9                	mov    %ebx,%ecx
  401d01:	48 89 c5             	mov    %rax,%rbp
  401d04:	48 89 05 f5 16 27 00 	mov    %rax,0x2716f5(%rip)        # 673400 <IJ>
  401d0b:	48 8d 7c 24 70       	lea    0x70(%rsp),%rdi
  401d10:	b8 01 00 00 00       	mov    $0x1,%eax
  401d15:	ba 07 00 00 00       	mov    $0x7,%edx
  401d1a:	48 d3 e0             	shl    %cl,%rax
  401d1d:	be 32 00 00 00       	mov    $0x32,%esi
  401d22:	4c 89 64 24 70       	mov    %r12,0x70(%rsp)
  401d27:	48 89 04 24          	mov    %rax,(%rsp)
  401d2b:	4c 89 7c 24 78       	mov    %r15,0x78(%rsp)
  401d30:	bb ff ff ff ff       	mov    $0xffffffff,%ebx
  401d35:	4c 89 a4 24 80 00 00 	mov    %r12,0x80(%rsp)
  401d3c:	00 
  401d3d:	4c 89 bc 24 88 00 00 	mov    %r15,0x88(%rsp)
  401d44:	00 
  401d45:	49 89 dd             	mov    %rbx,%r13
  401d48:	4c 89 b4 24 90 00 00 	mov    %r14,0x90(%rsp)
  401d4f:	00 
  401d50:	e8 eb 2e 00 00       	callq  404c40 <mrg_skip.constprop.2>
  401d55:	48 8d 7c 24 70       	lea    0x70(%rsp),%rdi
  401d5a:	e8 d1 2f 00 00       	callq  404d30 <mrg_orig_step.lto_priv.12>
  401d5f:	4c 0f af 6c 24 70    	imul   0x70(%rsp),%r13
  401d65:	48 8d 7c 24 70       	lea    0x70(%rsp),%rdi
  401d6a:	e8 c1 2f 00 00       	callq  404d30 <mrg_orig_step.lto_priv.12>
  401d6f:	4c 03 6c 24 70       	add    0x70(%rsp),%r13
  401d74:	48 8d 7c 24 70       	lea    0x70(%rsp),%rdi
  401d79:	4c 89 6c 24 48       	mov    %r13,0x48(%rsp)
  401d7e:	e8 ad 2f 00 00       	callq  404d30 <mrg_orig_step.lto_priv.12>
  401d83:	48 0f af 5c 24 70    	imul   0x70(%rsp),%rbx
  401d89:	48 8d 7c 24 70       	lea    0x70(%rsp),%rdi
  401d8e:	e8 9d 2f 00 00       	callq  404d30 <mrg_orig_step.lto_priv.12>
  401d93:	48 03 5c 24 70       	add    0x70(%rsp),%rbx
  401d98:	48 b8 11 32 49 11 02 	movabs $0x4519840211493211,%rax
  401d9f:	84 19 45 
  401da2:	48 89 6c 24 30       	mov    %rbp,0x30(%rsp)
  401da7:	4c 09 e8             	or     %r13,%rax
  401daa:	48 c7 44 24 08 00 00 	movq   $0x0,0x8(%rsp)
  401db1:	00 00 
  401db3:	48 89 44 24 38       	mov    %rax,0x38(%rsp)
  401db8:	48 b8 a5 43 c8 02 21 	movabs $0x3050852102c843a5,%rax
  401dbf:	85 50 30 
  401dc2:	48 09 d8             	or     %rbx,%rax
  401dc5:	48 89 5c 24 50       	mov    %rbx,0x50(%rsp)
  401dca:	48 89 44 24 40       	mov    %rax,0x40(%rsp)
  401dcf:	48 8b 5c 24 08       	mov    0x8(%rsp),%rbx
  401dd4:	48 39 5c 24 20       	cmp    %rbx,0x20(%rsp)
  401dd9:	0f 8e ba 05 00 00    	jle    402399 <main+0x16b9>
  401ddf:	48 8b 44 24 10       	mov    0x10(%rsp),%rax
  401de4:	4c 89 64 24 70       	mov    %r12,0x70(%rsp)
  401de9:	bd 08 00 00 00       	mov    $0x8,%ebp
  401dee:	4c 89 a4 24 80 00 00 	mov    %r12,0x80(%rsp)
  401df5:	00 
  401df6:	48 89 44 24 78       	mov    %rax,0x78(%rsp)
  401dfb:	48 89 84 24 88 00 00 	mov    %rax,0x88(%rsp)
  401e02:	00 
  401e03:	48 8b 44 24 18       	mov    0x18(%rsp),%rax
  401e08:	48 89 84 24 90 00 00 	mov    %rax,0x90(%rsp)
  401e0f:	00 
  401e10:	48 8b 44 24 08       	mov    0x8(%rsp),%rax
  401e15:	48 85 c0             	test   %rax,%rax
  401e18:	48 89 c3             	mov    %rax,%rbx
  401e1b:	75 0f                	jne    401e2c <main+0x114c>
  401e1d:	eb 44                	jmp    401e63 <main+0x1183>
  401e1f:	90                   	nop
  401e20:	48 c1 eb 08          	shr    $0x8,%rbx
  401e24:	83 c5 01             	add    $0x1,%ebp
  401e27:	48 85 db             	test   %rbx,%rbx
  401e2a:	74 37                	je     401e63 <main+0x1183>
  401e2c:	84 db                	test   %bl,%bl
  401e2e:	74 f0                	je     401e20 <main+0x1140>
  401e30:	0f b6 c3             	movzbl %bl,%eax
  401e33:	48 c1 eb 08          	shr    $0x8,%rbx
  401e37:	48 8d 14 c0          	lea    (%rax,%rax,8),%rdx
  401e3b:	48 63 c5             	movslq %ebp,%rax
  401e3e:	83 c5 01             	add    $0x1,%ebp
  401e41:	48 8d 04 c0          	lea    (%rax,%rax,8),%rax
  401e45:	48 c1 e0 0b          	shl    $0xb,%rax
  401e49:	48 8d bc d0 40 5d 40 	lea    0x405d40(%rax,%rdx,8),%rdi
  401e50:	00 
  401e51:	48 8d 54 24 70       	lea    0x70(%rsp),%rdx
  401e56:	48 89 d6             	mov    %rdx,%rsi
  401e59:	e8 62 23 00 00       	callq  4041c0 <mrg_apply_transition.lto_priv.7>
  401e5e:	48 85 db             	test   %rbx,%rbx
  401e61:	75 c9                	jne    401e2c <main+0x114c>
  401e63:	31 db                	xor    %ebx,%ebx
  401e65:	45 31 ed             	xor    %r13d,%r13d
  401e68:	48 83 3c 24 01       	cmpq   $0x1,(%rsp)
  401e6d:	0f 8e df 02 00 00    	jle    402152 <main+0x1472>
  401e73:	4c 8b 4c 24 70       	mov    0x70(%rsp),%r9
  401e78:	48 8b bc 24 90 00 00 	mov    0x90(%rsp),%rdi
  401e7f:	00 
  401e80:	49 81 f9 fe ff ff 7f 	cmp    $0x7ffffffe,%r9
  401e87:	0f 87 23 07 00 00    	ja     4025b0 <main+0x18d0>
  401e8d:	49 69 c9 66 66 66 06 	imul   $0x6666666,%r9,%rcx
  401e94:	49 b8 05 00 00 00 02 	movabs $0x200000005,%r8
  401e9b:	00 00 00 
  401e9e:	48 89 c8             	mov    %rcx,%rax
  401ea1:	49 f7 e0             	mul    %r8
  401ea4:	48 89 c8             	mov    %rcx,%rax
  401ea7:	48 29 d0             	sub    %rdx,%rax
  401eaa:	48 d1 e8             	shr    %rax
  401ead:	48 01 c2             	add    %rax,%rdx
  401eb0:	48 c1 ea 1e          	shr    $0x1e,%rdx
  401eb4:	48 89 d0             	mov    %rdx,%rax
  401eb7:	48 c1 e0 1f          	shl    $0x1f,%rax
  401ebb:	48 29 d0             	sub    %rdx,%rax
  401ebe:	48 29 c1             	sub    %rax,%rcx
  401ec1:	48 81 ff fe ff ff 7f 	cmp    $0x7ffffffe,%rdi
  401ec8:	48 89 ca             	mov    %rcx,%rdx
  401ecb:	0f 87 34 01 00 00    	ja     402005 <main+0x1325>
  401ed1:	48 8b 8c 24 88 00 00 	mov    0x88(%rsp),%rcx
  401ed8:	00 
  401ed9:	4c 8b 94 24 80 00 00 	mov    0x80(%rsp),%r10
  401ee0:	00 
  401ee1:	31 db                	xor    %ebx,%ebx
  401ee3:	4c 8b 5c 24 78       	mov    0x78(%rsp),%r11
  401ee8:	4c 8b 34 24          	mov    (%rsp),%r14
  401eec:	45 31 ed             	xor    %r13d,%r13d
  401eef:	41 bf 59 17 b7 d1    	mov    $0xd1b71759,%r15d
  401ef5:	48 89 cd             	mov    %rcx,%rbp
  401ef8:	48 69 ff 20 98 01 00 	imul   $0x19820,%rdi,%rdi
  401eff:	48 01 d7             	add    %rdx,%rdi
  401f02:	48 89 f8             	mov    %rdi,%rax
  401f05:	48 89 fe             	mov    %rdi,%rsi
  401f08:	49 f7 e0             	mul    %r8
  401f0b:	48 29 d6             	sub    %rdx,%rsi
  401f0e:	48 d1 ee             	shr    %rsi
  401f11:	48 01 d6             	add    %rdx,%rsi
  401f14:	48 c1 ee 1e          	shr    $0x1e,%rsi
  401f18:	48 89 f0             	mov    %rsi,%rax
  401f1b:	48 c1 e0 1f          	shl    $0x1f,%rax
  401f1f:	48 29 f0             	sub    %rsi,%rax
  401f22:	48 29 c7             	sub    %rax,%rdi
  401f25:	48 81 ff 7e 1c 00 00 	cmp    $0x1c7e,%rdi
  401f2c:	48 89 fe             	mov    %rdi,%rsi
  401f2f:	0f 86 f7 00 00 00    	jbe    40202c <main+0x134c>
  401f35:	89 f9                	mov    %edi,%ecx
  401f37:	48 89 ef             	mov    %rbp,%rdi
  401f3a:	4c 89 d5             	mov    %r10,%rbp
  401f3d:	4d 89 da             	mov    %r11,%r10
  401f40:	4d 89 cb             	mov    %r9,%r11
  401f43:	49 89 f1             	mov    %rsi,%r9
  401f46:	89 c8                	mov    %ecx,%eax
  401f48:	41 f7 e7             	mul    %r15d
  401f4b:	c1 ea 0d             	shr    $0xd,%edx
  401f4e:	69 d2 10 27 00 00    	imul   $0x2710,%edx,%edx
  401f54:	29 d1                	sub    %edx,%ecx
  401f56:	81 f9 6b 07 00 00    	cmp    $0x76b,%ecx
  401f5c:	89 ca                	mov    %ecx,%edx
  401f5e:	0f 86 9c 01 00 00    	jbe    402100 <main+0x1420>
  401f64:	8d 81 94 f8 ff ff    	lea    -0x76c(%rcx),%eax
  401f6a:	3d 6b 07 00 00       	cmp    $0x76b,%eax
  401f6f:	0f 87 a3 01 00 00    	ja     402118 <main+0x1438>
  401f75:	4c 39 eb             	cmp    %r13,%rbx
  401f78:	0f 8c 42 01 00 00    	jl     4020c0 <main+0x13e0>
  401f7e:	0f 85 44 07 00 00    	jne    4026c8 <main+0x19e8>
  401f84:	49 d1 fe             	sar    %r14
  401f87:	b8 01 00 00 00       	mov    $0x1,%eax
  401f8c:	31 d2                	xor    %edx,%edx
  401f8e:	49 0f af c6          	imul   %r14,%rax
  401f92:	49 01 d5             	add    %rdx,%r13
  401f95:	48 01 c3             	add    %rax,%rbx
  401f98:	49 83 fe 01          	cmp    $0x1,%r14
  401f9c:	0f 84 8e 01 00 00    	je     402130 <main+0x1450>
  401fa2:	49 69 c9 66 66 66 06 	imul   $0x6666666,%r9,%rcx
  401fa9:	48 89 c8             	mov    %rcx,%rax
  401fac:	49 f7 e0             	mul    %r8
  401faf:	48 89 d6             	mov    %rdx,%rsi
  401fb2:	48 89 ca             	mov    %rcx,%rdx
  401fb5:	48 29 f2             	sub    %rsi,%rdx
  401fb8:	48 89 d0             	mov    %rdx,%rax
  401fbb:	48 d1 e8             	shr    %rax
  401fbe:	48 8d 14 06          	lea    (%rsi,%rax,1),%rdx
  401fc2:	48 c1 ea 1e          	shr    $0x1e,%rdx
  401fc6:	48 89 d0             	mov    %rdx,%rax
  401fc9:	48 c1 e0 1f          	shl    $0x1f,%rax
  401fcd:	48 29 d0             	sub    %rdx,%rax
  401fd0:	48 29 c1             	sub    %rax,%rcx
  401fd3:	48 81 ff fe ff ff 7f 	cmp    $0x7ffffffe,%rdi
  401fda:	48 89 ca             	mov    %rcx,%rdx
  401fdd:	0f 86 15 ff ff ff    	jbe    401ef8 <main+0x1218>
  401fe3:	48 89 bc 24 90 00 00 	mov    %rdi,0x90(%rsp)
  401fea:	00 
  401feb:	48 89 ac 24 88 00 00 	mov    %rbp,0x88(%rsp)
  401ff2:	00 
  401ff3:	4c 89 94 24 80 00 00 	mov    %r10,0x80(%rsp)
  401ffa:	00 
  401ffb:	4c 89 5c 24 78       	mov    %r11,0x78(%rsp)
  402000:	4c 89 4c 24 70       	mov    %r9,0x70(%rsp)
  402005:	b9 20 5d 40 00       	mov    $0x405d20,%ecx
  40200a:	ba 22 00 00 00       	mov    $0x22,%edx
  40200f:	be 28 57 40 00       	mov    $0x405728,%esi
  402014:	bf c4 50 40 00       	mov    $0x4050c4,%edi
  402019:	e8 42 eb ff ff       	callq  400b60 <__assert_fail@plt>
  40201e:	66 90                	xchg   %ax,%ax
  402020:	4d 89 da             	mov    %r11,%r10
  402023:	4d 89 cb             	mov    %r9,%r11
  402026:	49 89 f1             	mov    %rsi,%r9
  402029:	48 89 d6             	mov    %rdx,%rsi
  40202c:	48 69 fe 66 66 66 06 	imul   $0x6666666,%rsi,%rdi
  402033:	48 89 f8             	mov    %rdi,%rax
  402036:	48 89 f9             	mov    %rdi,%rcx
  402039:	49 f7 e0             	mul    %r8
  40203c:	48 29 d1             	sub    %rdx,%rcx
  40203f:	48 d1 e9             	shr    %rcx
  402042:	48 01 d1             	add    %rdx,%rcx
  402045:	48 c1 e9 1e          	shr    $0x1e,%rcx
  402049:	48 89 c8             	mov    %rcx,%rax
  40204c:	48 c1 e0 1f          	shl    $0x1f,%rax
  402050:	48 29 c8             	sub    %rcx,%rax
  402053:	48 29 c7             	sub    %rax,%rdi
  402056:	48 81 fd fe ff ff 7f 	cmp    $0x7ffffffe,%rbp
  40205d:	0f 87 0f 06 00 00    	ja     402672 <main+0x1992>
  402063:	48 69 cd 20 98 01 00 	imul   $0x19820,%rbp,%rcx
  40206a:	4c 89 d5             	mov    %r10,%rbp
  40206d:	48 01 f9             	add    %rdi,%rcx
  402070:	48 89 c8             	mov    %rcx,%rax
  402073:	49 f7 e0             	mul    %r8
  402076:	48 89 c8             	mov    %rcx,%rax
  402079:	48 29 d0             	sub    %rdx,%rax
  40207c:	48 d1 e8             	shr    %rax
  40207f:	48 01 c2             	add    %rax,%rdx
  402082:	48 c1 ea 1e          	shr    $0x1e,%rdx
  402086:	48 89 d0             	mov    %rdx,%rax
  402089:	48 c1 e0 1f          	shl    $0x1f,%rax
  40208d:	48 29 d0             	sub    %rdx,%rax
  402090:	48 29 c1             	sub    %rax,%rcx
  402093:	48 81 f9 7e 1c 00 00 	cmp    $0x1c7e,%rcx
  40209a:	48 89 ca             	mov    %rcx,%rdx
  40209d:	76 81                	jbe    402020 <main+0x1340>
  40209f:	4c 89 dd             	mov    %r11,%rbp
  4020a2:	4c 89 d7             	mov    %r10,%rdi
  4020a5:	49 89 f3             	mov    %rsi,%r11
  4020a8:	4d 89 ca             	mov    %r9,%r10
  4020ab:	49 89 c9             	mov    %rcx,%r9
  4020ae:	e9 93 fe ff ff       	jmpq   401f46 <main+0x1266>
  4020b3:	0f 1f 00             	nopl   (%rax)
  4020b6:	66 2e 0f 1f 84 00 00 	nopw   %cs:0x0(%rax,%rax,1)
  4020bd:	00 00 00 
  4020c0:	48 89 bc 24 90 00 00 	mov    %rdi,0x90(%rsp)
  4020c7:	00 
  4020c8:	b9 38 5a 40 00       	mov    $0x405a38,%ecx
  4020cd:	ba 8c 00 00 00       	mov    $0x8c,%edx
  4020d2:	be 48 57 40 00       	mov    $0x405748,%esi
  4020d7:	bf d4 50 40 00       	mov    $0x4050d4,%edi
  4020dc:	48 89 ac 24 88 00 00 	mov    %rbp,0x88(%rsp)
  4020e3:	00 
  4020e4:	4c 89 94 24 80 00 00 	mov    %r10,0x80(%rsp)
  4020eb:	00 
  4020ec:	4c 89 5c 24 78       	mov    %r11,0x78(%rsp)
  4020f1:	4c 89 4c 24 70       	mov    %r9,0x70(%rsp)
  4020f6:	e8 65 ea ff ff       	callq  400b60 <__assert_fail@plt>
  4020fb:	0f 1f 44 00 00       	nopl   0x0(%rax,%rax,1)
  402100:	b8 01 00 00 00       	mov    $0x1,%eax
  402105:	31 d2                	xor    %edx,%edx
  402107:	4c 39 eb             	cmp    %r13,%rbx
  40210a:	7c b4                	jl     4020c0 <main+0x13e0>
  40210c:	49 d1 fe             	sar    %r14
  40210f:	49 0f af d6          	imul   %r14,%rdx
  402113:	e9 76 fe ff ff       	jmpq   401f8e <main+0x12ae>
  402118:	81 ea d8 0e 00 00    	sub    $0xed8,%edx
  40211e:	81 fa 44 16 00 00    	cmp    $0x1644,%edx
  402124:	48 19 c0             	sbb    %rax,%rax
  402127:	48 83 c0 01          	add    $0x1,%rax
  40212b:	48 89 c2             	mov    %rax,%rdx
  40212e:	eb d7                	jmp    402107 <main+0x1427>
  402130:	48 89 bc 24 90 00 00 	mov    %rdi,0x90(%rsp)
  402137:	00 
  402138:	48 89 ac 24 88 00 00 	mov    %rbp,0x88(%rsp)
  40213f:	00 
  402140:	4c 89 94 24 80 00 00 	mov    %r10,0x80(%rsp)
  402147:	00 
  402148:	4c 89 5c 24 78       	mov    %r11,0x78(%rsp)
  40214d:	4c 89 4c 24 70       	mov    %r9,0x70(%rsp)
  402152:	48 8b 54 24 48       	mov    0x48(%rsp),%rdx
  402157:	48 03 54 24 50       	add    0x50(%rsp),%rdx
  40215c:	49 b8 0f 0f 0f 0f 0f 	movabs $0xf0f0f0f0f0f0f0f,%r8
  402163:	0f 0f 0f 
  402166:	48 bf 33 33 33 33 33 	movabs $0x3333333333333333,%rdi
  40216d:	33 33 33 
  402170:	41 b9 40 00 00 00    	mov    $0x40,%r9d
  402176:	48 8d 04 13          	lea    (%rbx,%rdx,1),%rax
  40217a:	8b 5c 24 2c          	mov    0x2c(%rsp),%ebx
  40217e:	48 0f af 44 24 38    	imul   0x38(%rsp),%rax
  402184:	41 29 d9             	sub    %ebx,%r9d
  402187:	48 0f c8             	bswap  %rax
  40218a:	48 89 c1             	mov    %rax,%rcx
  40218d:	4c 21 c0             	and    %r8,%rax
  402190:	48 c1 e9 04          	shr    $0x4,%rcx
  402194:	48 c1 e0 04          	shl    $0x4,%rax
  402198:	4c 21 c1             	and    %r8,%rcx
  40219b:	48 09 c1             	or     %rax,%rcx
  40219e:	48 89 c8             	mov    %rcx,%rax
  4021a1:	48 21 f9             	and    %rdi,%rcx
  4021a4:	48 c1 e8 02          	shr    $0x2,%rax
  4021a8:	48 21 f8             	and    %rdi,%rax
  4021ab:	48 89 c6             	mov    %rax,%rsi
  4021ae:	48 8d 04 8d 00 00 00 	lea    0x0(,%rcx,4),%rax
  4021b5:	00 
  4021b6:	48 09 f0             	or     %rsi,%rax
  4021b9:	48 be 55 55 55 55 55 	movabs $0x5555555555555555,%rsi
  4021c0:	55 55 55 
  4021c3:	48 89 c1             	mov    %rax,%rcx
  4021c6:	48 21 f0             	and    %rsi,%rax
  4021c9:	48 d1 e9             	shr    %rcx
  4021cc:	48 01 c0             	add    %rax,%rax
  4021cf:	48 21 f1             	and    %rsi,%rcx
  4021d2:	48 09 c8             	or     %rcx,%rax
  4021d5:	44 89 c9             	mov    %r9d,%ecx
  4021d8:	48 d3 e8             	shr    %cl,%rax
  4021db:	89 d9                	mov    %ebx,%ecx
  4021dd:	49 89 c7             	mov    %rax,%r15
  4021e0:	49 d3 ef             	shr    %cl,%r15
  4021e3:	4d 85 ff             	test   %r15,%r15
  4021e6:	0f 85 2e 05 00 00    	jne    40271a <main+0x1a3a>
  4021ec:	48 0f af 44 24 40    	imul   0x40(%rsp),%rax
  4021f2:	48 0f c8             	bswap  %rax
  4021f5:	48 89 c1             	mov    %rax,%rcx
  4021f8:	48 c1 e8 04          	shr    $0x4,%rax
  4021fc:	4c 21 c1             	and    %r8,%rcx
  4021ff:	4c 21 c0             	and    %r8,%rax
  402202:	48 c1 e1 04          	shl    $0x4,%rcx
  402206:	48 09 c8             	or     %rcx,%rax
  402209:	48 89 c1             	mov    %rax,%rcx
  40220c:	48 21 f8             	and    %rdi,%rax
  40220f:	48 c1 e9 02          	shr    $0x2,%rcx
  402213:	48 c1 e0 02          	shl    $0x2,%rax
  402217:	48 21 f9             	and    %rdi,%rcx
  40221a:	48 09 c8             	or     %rcx,%rax
  40221d:	48 89 c1             	mov    %rax,%rcx
  402220:	48 21 f0             	and    %rsi,%rax
  402223:	48 d1 e9             	shr    %rcx
  402226:	48 01 c0             	add    %rax,%rax
  402229:	48 21 f1             	and    %rsi,%rcx
  40222c:	48 09 c8             	or     %rcx,%rax
  40222f:	44 89 c9             	mov    %r9d,%ecx
  402232:	48 d3 e8             	shr    %cl,%rax
  402235:	0f b6 4c 24 2c       	movzbl 0x2c(%rsp),%ecx
  40223a:	48 89 c3             	mov    %rax,%rbx
  40223d:	48 d3 eb             	shr    %cl,%rbx
  402240:	48 85 db             	test   %rbx,%rbx
  402243:	0f 85 2f 05 00 00    	jne    402778 <main+0x1a98>
  402249:	4c 01 ea             	add    %r13,%rdx
  40224c:	44 8b 7c 24 2c       	mov    0x2c(%rsp),%r15d
  402251:	48 0f af 54 24 38    	imul   0x38(%rsp),%rdx
  402257:	48 0f ca             	bswap  %rdx
  40225a:	48 89 d1             	mov    %rdx,%rcx
  40225d:	4c 21 c2             	and    %r8,%rdx
  402260:	48 c1 e9 04          	shr    $0x4,%rcx
  402264:	48 c1 e2 04          	shl    $0x4,%rdx
  402268:	4c 21 c1             	and    %r8,%rcx
  40226b:	48 09 d1             	or     %rdx,%rcx
  40226e:	48 89 ca             	mov    %rcx,%rdx
  402271:	48 21 f9             	and    %rdi,%rcx
  402274:	48 c1 ea 02          	shr    $0x2,%rdx
  402278:	48 21 fa             	and    %rdi,%rdx
  40227b:	49 89 d2             	mov    %rdx,%r10
  40227e:	48 89 ca             	mov    %rcx,%rdx
  402281:	48 c1 e2 02          	shl    $0x2,%rdx
  402285:	4c 09 d2             	or     %r10,%rdx
  402288:	48 89 d1             	mov    %rdx,%rcx
  40228b:	48 21 f2             	and    %rsi,%rdx
  40228e:	48 d1 e9             	shr    %rcx
  402291:	48 01 d2             	add    %rdx,%rdx
  402294:	48 21 f1             	and    %rsi,%rcx
  402297:	48 09 ca             	or     %rcx,%rdx
  40229a:	44 89 c9             	mov    %r9d,%ecx
  40229d:	48 d3 ea             	shr    %cl,%rdx
  4022a0:	44 89 f9             	mov    %r15d,%ecx
  4022a3:	48 89 d3             	mov    %rdx,%rbx
  4022a6:	48 d3 eb             	shr    %cl,%rbx
  4022a9:	48 85 db             	test   %rbx,%rbx
  4022ac:	0f 85 68 04 00 00    	jne    40271a <main+0x1a3a>
  4022b2:	48 0f af 54 24 40    	imul   0x40(%rsp),%rdx
  4022b8:	48 0f ca             	bswap  %rdx
  4022bb:	48 89 d1             	mov    %rdx,%rcx
  4022be:	4c 21 c2             	and    %r8,%rdx
  4022c1:	48 c1 e9 04          	shr    $0x4,%rcx
  4022c5:	48 c1 e2 04          	shl    $0x4,%rdx
  4022c9:	4c 21 c1             	and    %r8,%rcx
  4022cc:	48 09 ca             	or     %rcx,%rdx
  4022cf:	48 89 d1             	mov    %rdx,%rcx
  4022d2:	48 21 fa             	and    %rdi,%rdx
  4022d5:	48 c1 e9 02          	shr    $0x2,%rcx
  4022d9:	48 c1 e2 02          	shl    $0x2,%rdx
  4022dd:	48 21 f9             	and    %rdi,%rcx
  4022e0:	48 09 d1             	or     %rdx,%rcx
  4022e3:	48 89 ca             	mov    %rcx,%rdx
  4022e6:	48 d1 ea             	shr    %rdx
  4022e9:	48 21 f2             	and    %rsi,%rdx
  4022ec:	48 21 ce             	and    %rcx,%rsi
  4022ef:	44 89 c9             	mov    %r9d,%ecx
  4022f2:	48 01 f6             	add    %rsi,%rsi
  4022f5:	48 09 f2             	or     %rsi,%rdx
  4022f8:	48 d3 ea             	shr    %cl,%rdx
  4022fb:	44 89 f9             	mov    %r15d,%ecx
  4022fe:	48 89 d3             	mov    %rdx,%rbx
  402301:	48 d3 eb             	shr    %cl,%rbx
  402304:	48 85 db             	test   %rbx,%rbx
  402307:	0f 85 6b 04 00 00    	jne    402778 <main+0x1a98>
  40230d:	48 8b 5c 24 30       	mov    0x30(%rsp),%rbx
  402312:	48 83 44 24 08 01    	addq   $0x1,0x8(%rsp)
  402318:	48 89 13             	mov    %rdx,(%rbx)
  40231b:	48 83 c3 10          	add    $0x10,%rbx
  40231f:	48 89 43 f8          	mov    %rax,-0x8(%rbx)
  402323:	48 89 5c 24 30       	mov    %rbx,0x30(%rsp)
  402328:	e9 a2 fa ff ff       	jmpq   401dcf <main+0x10ef>
  40232d:	b9 48 5a 40 00       	mov    $0x405a48,%ecx
  402332:	ba 27 00 00 00       	mov    $0x27,%edx
  402337:	be a3 51 40 00       	mov    $0x4051a3,%esi
  40233c:	bf af 51 40 00       	mov    $0x4051af,%edi
  402341:	e8 1a e8 ff ff       	callq  400b60 <__assert_fail@plt>
  402346:	48 8b 3d 13 0e 27 00 	mov    0x270e13(%rip),%rdi        # 673160 <stderr@@GLIBC_2.2.5>
  40234d:	ba fa 50 40 00       	mov    $0x4050fa,%edx
  402352:	be 01 00 00 00       	mov    $0x1,%esi
  402357:	31 c0                	xor    %eax,%eax
  402359:	e8 f2 e8 ff ff       	callq  400c50 <__fprintf_chk@plt>
  40235e:	e9 b0 f1 ff ff       	jmpq   401513 <main+0x833>
  402363:	b9 48 5a 40 00       	mov    $0x405a48,%ecx
  402368:	ba 34 00 00 00       	mov    $0x34,%edx
  40236d:	be a3 51 40 00       	mov    $0x4051a3,%esi
  402372:	bf ca 51 40 00       	mov    $0x4051ca,%edi
  402377:	e8 e4 e7 ff ff       	callq  400b60 <__assert_fail@plt>
  40237c:	48 8b 3d dd 0d 27 00 	mov    0x270ddd(%rip),%rdi        # 673160 <stderr@@GLIBC_2.2.5>
  402383:	ba ac 50 40 00       	mov    $0x4050ac,%edx
  402388:	be 01 00 00 00       	mov    $0x1,%esi
  40238d:	31 c0                	xor    %eax,%eax
  40238f:	e8 bc e8 ff ff       	callq  400c50 <__fprintf_chk@plt>
  402394:	e9 b6 f0 ff ff       	jmpq   40144f <main+0x76f>
  402399:	e8 92 23 00 00       	callq  404730 <toc>
  40239e:	f2 0f 11 05 52 10 27 	movsd  %xmm0,0x271052(%rip)        # 6733f8 <generation_time>
  4023a5:	00 
  4023a6:	e9 1d f1 ff ff       	jmpq   4014c8 <main+0x7e8>
  4023ab:	48 8b 3d ae 0d 27 00 	mov    0x270dae(%rip),%rdi        # 673160 <stderr@@GLIBC_2.2.5>
  4023b2:	ba f9 50 40 00       	mov    $0x4050f9,%edx
  4023b7:	be 01 00 00 00       	mov    $0x1,%esi
  4023bc:	31 c0                	xor    %eax,%eax
  4023be:	e8 8d e8 ff ff       	callq  400c50 <__fprintf_chk@plt>
  4023c3:	e9 6d f8 ff ff       	jmpq   401c35 <main+0xf55>
  4023c8:	4c 8b 25 51 10 27 00 	mov    0x271051(%rip),%r12        # 673420 <nvtx_scale>
  4023cf:	4a 8d 3c a5 00 00 00 	lea    0x0(,%r12,4),%rdi
  4023d6:	00 
  4023d7:	e8 34 29 00 00       	callq  404d10 <xmalloc>
  4023dc:	48 89 c5             	mov    %rax,%rbp
  4023df:	31 c0                	xor    %eax,%eax
  4023e1:	eb 0c                	jmp    4023ef <main+0x170f>
  4023e3:	c7 44 85 00 00 00 00 	movl   $0x0,0x0(%rbp,%rax,4)
  4023ea:	00 
  4023eb:	48 83 c0 01          	add    $0x1,%rax
  4023ef:	49 39 c4             	cmp    %rax,%r12
  4023f2:	7f ef                	jg     4023e3 <main+0x1703>
  4023f4:	48 8b 3d 0d 10 27 00 	mov    0x27100d(%rip),%rdi        # 673408 <nedge>
  4023fb:	48 8b 05 fe 0f 27 00 	mov    0x270ffe(%rip),%rax        # 673400 <IJ>
  402402:	31 d2                	xor    %edx,%edx
  402404:	eb 24                	jmp    40242a <main+0x174a>
  402406:	48 8b 08             	mov    (%rax),%rcx
  402409:	48 8b 70 08          	mov    0x8(%rax),%rsi
  40240d:	48 39 f1             	cmp    %rsi,%rcx
  402410:	74 10                	je     402422 <main+0x1742>
  402412:	c7 44 b5 00 01 00 00 	movl   $0x1,0x0(%rbp,%rsi,4)
  402419:	00 
  40241a:	c7 44 8d 00 01 00 00 	movl   $0x1,0x0(%rbp,%rcx,4)
  402421:	00 
  402422:	48 83 c2 01          	add    $0x1,%rdx
  402426:	48 83 c0 10          	add    $0x10,%rax
  40242a:	48 39 fa             	cmp    %rdi,%rdx
  40242d:	7c d7                	jl     402406 <main+0x1726>
  40242f:	8b 0d c3 0c 27 00    	mov    0x270cc3(%rip),%ecx        # 6730f8 <NBFS>
  402435:	4c 8b 3d 24 10 27 00 	mov    0x271024(%rip),%r15        # 673460 <prng_state_store.lto_priv.18+0x20>
  40243c:	45 31 d2             	xor    %r10d,%r10d
  40243f:	4c 8b 0d fa 0f 27 00 	mov    0x270ffa(%rip),%r9        # 673440 <prng_state_store.lto_priv.18>
  402446:	48 8b 3d 0b 10 27 00 	mov    0x27100b(%rip),%rdi        # 673458 <prng_state_store.lto_priv.18+0x18>
  40244d:	45 31 f6             	xor    %r14d,%r14d
  402450:	4c 8b 2d f9 0f 27 00 	mov    0x270ff9(%rip),%r13        # 673450 <prng_state_store.lto_priv.18+0x10>
  402457:	4c 8b 1d ea 0f 27 00 	mov    0x270fea(%rip),%r11        # 673448 <prng_state_store.lto_priv.18+0x8>
  40245e:	31 db                	xor    %ebx,%ebx
  402460:	41 b8 ff ff ff 7f    	mov    $0x7fffffff,%r8d
  402466:	f2 0f 10 1d 1a 36 00 	movsd  0x361a(%rip),%xmm3        # 405a88 <__PRETTY_FUNCTION__.5645+0x28>
  40246d:	00 
  40246e:	f2 0f 10 15 1a 36 00 	movsd  0x361a(%rip),%xmm2        # 405a90 <__PRETTY_FUNCTION__.5645+0x30>
  402475:	00 
  402476:	e9 db 00 00 00       	jmpq   402556 <main+0x1876>
  40247b:	4d 39 d4             	cmp    %r10,%r12
  40247e:	0f 8e 15 02 00 00    	jle    402699 <main+0x19b9>
  402484:	49 81 f9 fe ff ff 7f 	cmp    $0x7ffffffe,%r9
  40248b:	0f 87 f7 00 00 00    	ja     402588 <main+0x18a8>
  402491:	49 69 c1 66 66 66 06 	imul   $0x6666666,%r9,%rax
  402498:	31 d2                	xor    %edx,%edx
  40249a:	49 f7 f0             	div    %r8
  40249d:	49 81 ff fe ff ff 7f 	cmp    $0x7ffffffe,%r15
  4024a4:	0f 87 9d 02 00 00    	ja     402747 <main+0x1a67>
  4024aa:	49 69 c7 20 98 01 00 	imul   $0x19820,%r15,%rax
  4024b1:	48 01 d0             	add    %rdx,%rax
  4024b4:	31 d2                	xor    %edx,%edx
  4024b6:	49 f7 f0             	div    %r8
  4024b9:	48 69 c2 66 66 66 06 	imul   $0x6666666,%rdx,%rax
  4024c0:	48 89 d6             	mov    %rdx,%rsi
  4024c3:	31 d2                	xor    %edx,%edx
  4024c5:	49 f7 f0             	div    %r8
  4024c8:	48 81 ff fe ff ff 7f 	cmp    $0x7ffffffe,%rdi
  4024cf:	0f 87 4a 02 00 00    	ja     40271f <main+0x1a3f>
  4024d5:	48 69 c7 20 98 01 00 	imul   $0x19820,%rdi,%rax
  4024dc:	48 01 d0             	add    %rdx,%rax
  4024df:	31 d2                	xor    %edx,%edx
  4024e1:	49 f7 f0             	div    %r8
  4024e4:	42 83 7c 95 00 00    	cmpl   $0x0,0x0(%rbp,%r10,4)
  4024ea:	74 51                	je     40253d <main+0x185d>
  4024ec:	66 0f ef c9          	pxor   %xmm1,%xmm1
  4024f0:	4c 89 e0             	mov    %r12,%rax
  4024f3:	66 0f ef c0          	pxor   %xmm0,%xmm0
  4024f7:	4c 29 d0             	sub    %r10,%rax
  4024fa:	f2 48 0f 2a ce       	cvtsi2sd %rsi,%xmm1
  4024ff:	f2 48 0f 2a c2       	cvtsi2sd %rdx,%xmm0
  402504:	f2 0f 59 cb          	mulsd  %xmm3,%xmm1
  402508:	f2 0f 59 c2          	mulsd  %xmm2,%xmm0
  40250c:	f2 0f 58 c8          	addsd  %xmm0,%xmm1
  402510:	66 0f ef c0          	pxor   %xmm0,%xmm0
  402514:	f2 48 0f 2a c0       	cvtsi2sd %rax,%xmm0
  402519:	89 c8                	mov    %ecx,%eax
  40251b:	29 d8                	sub    %ebx,%eax
  40251d:	f2 0f 59 c1          	mulsd  %xmm1,%xmm0
  402521:	66 0f ef c9          	pxor   %xmm1,%xmm1
  402525:	f2 0f 2a c8          	cvtsi2sd %eax,%xmm1
  402529:	66 0f 2e c1          	ucomisd %xmm1,%xmm0
  40252d:	77 0e                	ja     40253d <main+0x185d>
  40252f:	48 63 c3             	movslq %ebx,%rax
  402532:	83 c3 01             	add    $0x1,%ebx
  402535:	4c 89 14 c5 e0 31 67 	mov    %r10,0x6731e0(,%rax,8)
  40253c:	00 
  40253d:	4c 89 df             	mov    %r11,%rdi
  402540:	4d 89 ef             	mov    %r13,%r15
  402543:	49 83 c2 01          	add    $0x1,%r10
  402547:	4d 89 cd             	mov    %r9,%r13
  40254a:	41 be 01 00 00 00    	mov    $0x1,%r14d
  402550:	49 89 f3             	mov    %rsi,%r11
  402553:	49 89 d1             	mov    %rdx,%r9
  402556:	39 cb                	cmp    %ecx,%ebx
  402558:	0f 8c 1d ff ff ff    	jl     40247b <main+0x179b>
  40255e:	45 84 f6             	test   %r14b,%r14b
  402561:	0f 85 a1 03 00 00    	jne    402908 <main+0x1c28>
  402567:	48 89 ef             	mov    %rbp,%rdi
  40256a:	e8 81 e5 ff ff       	callq  400af0 <free@plt>
  40256f:	e9 fe ef ff ff       	jmpq   401572 <main+0x892>
  402574:	bf 01 51 40 00       	mov    $0x405101,%edi
  402579:	e8 92 e6 ff ff       	callq  400c10 <perror@plt>
  40257e:	b8 01 00 00 00       	mov    $0x1,%eax
  402583:	e9 ae e9 ff ff       	jmpq   400f36 <main+0x256>
  402588:	45 84 f6             	test   %r14b,%r14b
  40258b:	74 23                	je     4025b0 <main+0x18d0>
  40258d:	4c 89 3d cc 0e 27 00 	mov    %r15,0x270ecc(%rip)        # 673460 <prng_state_store.lto_priv.18+0x20>
  402594:	4c 89 0d a5 0e 27 00 	mov    %r9,0x270ea5(%rip)        # 673440 <prng_state_store.lto_priv.18>
  40259b:	48 89 3d b6 0e 27 00 	mov    %rdi,0x270eb6(%rip)        # 673458 <prng_state_store.lto_priv.18+0x18>
  4025a2:	4c 89 2d a7 0e 27 00 	mov    %r13,0x270ea7(%rip)        # 673450 <prng_state_store.lto_priv.18+0x10>
  4025a9:	4c 89 1d 98 0e 27 00 	mov    %r11,0x270e98(%rip)        # 673448 <prng_state_store.lto_priv.18+0x8>
  4025b0:	e8 06 e7 ff ff       	callq  400cbb <mod_mul.part.0.lto_priv.10>
  4025b5:	41 83 fd 0b          	cmp    $0xb,%r13d
  4025b9:	0f 84 0a 03 00 00    	je     4028c9 <main+0x1be9>
  4025bf:	0f 8e c9 02 00 00    	jle    40288e <main+0x1bae>
  4025c5:	41 83 fd 0d          	cmp    $0xd,%r13d
  4025c9:	0f 84 8a 02 00 00    	je     402859 <main+0x1b79>
  4025cf:	41 83 fd 0e          	cmp    $0xe,%r13d
  4025d3:	0f 85 63 02 00 00    	jne    40283c <main+0x1b5c>
  4025d9:	f2 0f 10 05 27 0b 27 	movsd  0x270b27(%rip),%xmm0        # 673108 <B>
  4025e0:	00 
  4025e1:	f2 0f 10 0d 97 34 00 	movsd  0x3497(%rip),%xmm1        # 405a80 <__PRETTY_FUNCTION__.5645+0x20>
  4025e8:	00 
  4025e9:	f2 0f 58 05 1f 0b 27 	addsd  0x270b1f(%rip),%xmm0        # 673110 <C>
  4025f0:	00 
  4025f1:	f2 0f 58 05 f7 0a 27 	addsd  0x270af7(%rip),%xmm0        # 6730f0 <D>
  4025f8:	00 
  4025f9:	f2 0f 5c c8          	subsd  %xmm0,%xmm1
  4025fd:	66 0f 28 c1          	movapd %xmm1,%xmm0
  402601:	f2 0f 11 0d f7 0a 27 	movsd  %xmm1,0x270af7(%rip)        # 673100 <A>
  402608:	00 
  402609:	66 0f ef c9          	pxor   %xmm1,%xmm1
  40260d:	66 0f 2e c8          	ucomisd %xmm0,%xmm1
  402611:	77 22                	ja     402635 <main+0x1955>
  402613:	66 0f 2e 0d ed 0a 27 	ucomisd 0x270aed(%rip),%xmm1        # 673108 <B>
  40261a:	00 
  40261b:	77 18                	ja     402635 <main+0x1955>
  40261d:	66 0f 2e 0d eb 0a 27 	ucomisd 0x270aeb(%rip),%xmm1        # 673110 <C>
  402624:	00 
  402625:	77 0e                	ja     402635 <main+0x1955>
  402627:	66 0f 2e 0d c1 0a 27 	ucomisd 0x270ac1(%rip),%xmm1        # 6730f0 <D>
  40262e:	00 
  40262f:	0f 86 a5 e7 ff ff    	jbe    400dda <main+0xfa>
  402635:	48 8b 3d 24 0b 27 00 	mov    0x270b24(%rip),%rdi        # 673160 <stderr@@GLIBC_2.2.5>
  40263c:	f2 0f 10 1d ac 0a 27 	movsd  0x270aac(%rip),%xmm3        # 6730f0 <D>
  402643:	00 
  402644:	f2 0f 10 15 c4 0a 27 	movsd  0x270ac4(%rip),%xmm2        # 673110 <C>
  40264b:	00 
  40264c:	ba c8 56 40 00       	mov    $0x4056c8,%edx
  402651:	f2 0f 10 0d af 0a 27 	movsd  0x270aaf(%rip),%xmm1        # 673108 <B>
  402658:	00 
  402659:	be 01 00 00 00       	mov    $0x1,%esi
  40265e:	b8 04 00 00 00       	mov    $0x4,%eax
  402663:	e8 e8 e5 ff ff       	callq  400c50 <__fprintf_chk@plt>
  402668:	bf 01 00 00 00       	mov    $0x1,%edi
  40266d:	e8 ce e5 ff ff       	callq  400c40 <exit@plt>
  402672:	48 89 ac 24 90 00 00 	mov    %rbp,0x90(%rsp)
  402679:	00 
  40267a:	4c 89 94 24 88 00 00 	mov    %r10,0x88(%rsp)
  402681:	00 
  402682:	4c 89 9c 24 80 00 00 	mov    %r11,0x80(%rsp)
  402689:	00 
  40268a:	4c 89 4c 24 78       	mov    %r9,0x78(%rsp)
  40268f:	48 89 74 24 70       	mov    %rsi,0x70(%rsp)
  402694:	e9 6c f9 ff ff       	jmpq   402005 <main+0x1325>
  402699:	45 84 f6             	test   %r14b,%r14b
  40269c:	75 57                	jne    4026f5 <main+0x1a15>
  40269e:	85 db                	test   %ebx,%ebx
  4026a0:	7e 36                	jle    4026d8 <main+0x19f8>
  4026a2:	48 8b 3d b7 0a 27 00 	mov    0x270ab7(%rip),%rdi        # 673160 <stderr@@GLIBC_2.2.5>
  4026a9:	41 89 d8             	mov    %ebx,%r8d
  4026ac:	ba 88 57 40 00       	mov    $0x405788,%edx
  4026b1:	be 01 00 00 00       	mov    $0x1,%esi
  4026b6:	31 c0                	xor    %eax,%eax
  4026b8:	e8 93 e5 ff ff       	callq  400c50 <__fprintf_chk@plt>
  4026bd:	89 1d 35 0a 27 00    	mov    %ebx,0x270a35(%rip)        # 6730f8 <NBFS>
  4026c3:	e9 9f fe ff ff       	jmpq   402567 <main+0x1887>
  4026c8:	4c 89 f2             	mov    %r14,%rdx
  4026cb:	31 c0                	xor    %eax,%eax
  4026cd:	48 d1 fa             	sar    %rdx
  4026d0:	49 89 d6             	mov    %rdx,%r14
  4026d3:	e9 b6 f8 ff ff       	jmpq   401f8e <main+0x12ae>
  4026d8:	ba c8 57 40 00       	mov    $0x4057c8,%edx
  4026dd:	48 8b 3d 7c 0a 27 00 	mov    0x270a7c(%rip),%rdi        # 673160 <stderr@@GLIBC_2.2.5>
  4026e4:	be 01 00 00 00       	mov    $0x1,%esi
  4026e9:	31 c0                	xor    %eax,%eax
  4026eb:	e8 60 e5 ff ff       	callq  400c50 <__fprintf_chk@plt>
  4026f0:	e9 73 ff ff ff       	jmpq   402668 <main+0x1988>
  4026f5:	4c 89 3d 64 0d 27 00 	mov    %r15,0x270d64(%rip)        # 673460 <prng_state_store.lto_priv.18+0x20>
  4026fc:	4c 89 0d 3d 0d 27 00 	mov    %r9,0x270d3d(%rip)        # 673440 <prng_state_store.lto_priv.18>
  402703:	48 89 3d 4e 0d 27 00 	mov    %rdi,0x270d4e(%rip)        # 673458 <prng_state_store.lto_priv.18+0x18>
  40270a:	4c 89 2d 3f 0d 27 00 	mov    %r13,0x270d3f(%rip)        # 673450 <prng_state_store.lto_priv.18+0x10>
  402711:	4c 89 1d 30 0d 27 00 	mov    %r11,0x270d30(%rip)        # 673448 <prng_state_store.lto_priv.18+0x8>
  402718:	eb 84                	jmp    40269e <main+0x19be>
  40271a:	e8 82 e5 ff ff       	callq  400ca1 <scramble.part.1.lto_priv.19>
  40271f:	48 89 3d 3a 0d 27 00 	mov    %rdi,0x270d3a(%rip)        # 673460 <prng_state_store.lto_priv.18+0x20>
  402726:	48 89 35 13 0d 27 00 	mov    %rsi,0x270d13(%rip)        # 673440 <prng_state_store.lto_priv.18>
  40272d:	4c 89 2d 24 0d 27 00 	mov    %r13,0x270d24(%rip)        # 673458 <prng_state_store.lto_priv.18+0x18>
  402734:	4c 89 1d 15 0d 27 00 	mov    %r11,0x270d15(%rip)        # 673450 <prng_state_store.lto_priv.18+0x10>
  40273b:	4c 89 0d 06 0d 27 00 	mov    %r9,0x270d06(%rip)        # 673448 <prng_state_store.lto_priv.18+0x8>
  402742:	e9 be f8 ff ff       	jmpq   402005 <main+0x1325>
  402747:	45 84 f6             	test   %r14b,%r14b
  40274a:	0f 84 b5 f8 ff ff    	je     402005 <main+0x1325>
  402750:	4c 89 3d 09 0d 27 00 	mov    %r15,0x270d09(%rip)        # 673460 <prng_state_store.lto_priv.18+0x20>
  402757:	4c 89 0d e2 0c 27 00 	mov    %r9,0x270ce2(%rip)        # 673440 <prng_state_store.lto_priv.18>
  40275e:	48 89 3d f3 0c 27 00 	mov    %rdi,0x270cf3(%rip)        # 673458 <prng_state_store.lto_priv.18+0x18>
  402765:	4c 89 2d e4 0c 27 00 	mov    %r13,0x270ce4(%rip)        # 673450 <prng_state_store.lto_priv.18+0x10>
  40276c:	4c 89 1d d5 0c 27 00 	mov    %r11,0x270cd5(%rip)        # 673448 <prng_state_store.lto_priv.18+0x8>
  402773:	e9 8d f8 ff ff       	jmpq   402005 <main+0x1325>
  402778:	b9 30 5d 40 00       	mov    $0x405d30,%ecx
  40277d:	ba 80 00 00 00       	mov    $0x80,%edx
  402782:	be 48 57 40 00       	mov    $0x405748,%esi
  402787:	bf e9 50 40 00       	mov    $0x4050e9,%edi
  40278c:	e8 cf e3 ff ff       	callq  400b60 <__assert_fail@plt>
  402791:	b9 60 5a 40 00       	mov    $0x405a60,%ecx
  402796:	ba 4a 00 00 00       	mov    $0x4a,%edx
  40279b:	be 66 50 40 00       	mov    $0x405066,%esi
  4027a0:	bf 74 50 40 00       	mov    $0x405074,%edi
  4027a5:	e8 b6 e3 ff ff       	callq  400b60 <__assert_fail@plt>
  4027aa:	b9 60 5a 40 00       	mov    $0x405a60,%ecx
  4027af:	ba 4b 00 00 00       	mov    $0x4b,%edx
  4027b4:	be 66 50 40 00       	mov    $0x405066,%esi
  4027b9:	bf 90 50 40 00       	mov    $0x405090,%edi
  4027be:	e8 9d e3 ff ff       	callq  400b60 <__assert_fail@plt>
  4027c3:	b9 48 5a 40 00       	mov    $0x405a48,%ecx
  4027c8:	ba 38 00 00 00       	mov    $0x38,%edx
  4027cd:	be a3 51 40 00       	mov    $0x4051a3,%esi
  4027d2:	bf d3 51 40 00       	mov    $0x4051d3,%edi
  4027d7:	e8 84 e3 ff ff       	callq  400b60 <__assert_fail@plt>
  4027dc:	48 89 df             	mov    %rbx,%rdi
  4027df:	e8 9c e4 ff ff       	callq  400c80 <xmalloc.part.0.lto_priv.11>
  4027e4:	bf 7a 51 40 00       	mov    $0x40517a,%edi
  4027e9:	e8 22 e4 ff ff       	callq  400c10 <perror@plt>
  4027ee:	e8 0d e3 ff ff       	callq  400b00 <abort@plt>
  4027f3:	b9 58 5a 40 00       	mov    $0x405a58,%ecx
  4027f8:	ba c0 00 00 00       	mov    $0xc0,%edx
  4027fd:	be 66 50 40 00       	mov    $0x405066,%esi
  402802:	bf 49 51 40 00       	mov    $0x405149,%edi
  402807:	e8 54 e3 ff ff       	callq  400b60 <__assert_fail@plt>
  40280c:	4c 89 e7             	mov    %r12,%rdi
  40280f:	e8 6c e4 ff ff       	callq  400c80 <xmalloc.part.0.lto_priv.11>
  402814:	bf 00 58 40 00       	mov    $0x405800,%edi
  402819:	e8 f2 e3 ff ff       	callq  400c10 <perror@plt>
  40281e:	bf 01 00 00 00       	mov    $0x1,%edi
  402823:	e8 18 e4 ff ff       	callq  400c40 <exit@plt>
  402828:	bf 20 58 40 00       	mov    $0x405820,%edi
  40282d:	e8 de e3 ff ff       	callq  400c10 <perror@plt>
  402832:	bf 01 00 00 00       	mov    $0x1,%edi
  402837:	e8 04 e4 ff ff       	callq  400c40 <exit@plt>
  40283c:	48 8b 3d 1d 09 27 00 	mov    0x27091d(%rip),%rdi        # 673160 <stderr@@GLIBC_2.2.5>
  402843:	ba 98 56 40 00       	mov    $0x405698,%edx
  402848:	be 01 00 00 00       	mov    $0x1,%esi
  40284d:	31 c0                	xor    %eax,%eax
  40284f:	e8 fc e3 ff ff       	callq  400c50 <__fprintf_chk@plt>
  402854:	e8 a7 e2 ff ff       	callq  400b00 <abort@plt>
  402859:	f2 0f 10 05 9f 08 27 	movsd  0x27089f(%rip),%xmm0        # 673100 <A>
  402860:	00 
  402861:	f2 0f 10 15 a7 08 27 	movsd  0x2708a7(%rip),%xmm2        # 673110 <C>
  402868:	00 
  402869:	f2 0f 10 0d 0f 32 00 	movsd  0x320f(%rip),%xmm1        # 405a80 <__PRETTY_FUNCTION__.5645+0x20>
  402870:	00 
  402871:	f2 0f 58 d0          	addsd  %xmm0,%xmm2
  402875:	f2 0f 58 15 73 08 27 	addsd  0x270873(%rip),%xmm2        # 6730f0 <D>
  40287c:	00 
  40287d:	f2 0f 5c ca          	subsd  %xmm2,%xmm1
  402881:	f2 0f 11 0d 7f 08 27 	movsd  %xmm1,0x27087f(%rip)        # 673108 <B>
  402888:	00 
  402889:	e9 7b fd ff ff       	jmpq   402609 <main+0x1929>
  40288e:	41 83 fd 07          	cmp    $0x7,%r13d
  402892:	75 a8                	jne    40283c <main+0x1b5c>
  402894:	f2 0f 10 05 64 08 27 	movsd  0x270864(%rip),%xmm0        # 673100 <A>
  40289b:	00 
  40289c:	f2 0f 10 15 64 08 27 	movsd  0x270864(%rip),%xmm2        # 673108 <B>
  4028a3:	00 
  4028a4:	f2 0f 10 0d d4 31 00 	movsd  0x31d4(%rip),%xmm1        # 405a80 <__PRETTY_FUNCTION__.5645+0x20>
  4028ab:	00 
  4028ac:	f2 0f 58 d0          	addsd  %xmm0,%xmm2
  4028b0:	f2 0f 58 15 58 08 27 	addsd  0x270858(%rip),%xmm2        # 673110 <C>
  4028b7:	00 
  4028b8:	f2 0f 5c ca          	subsd  %xmm2,%xmm1
  4028bc:	f2 0f 11 0d 2c 08 27 	movsd  %xmm1,0x27082c(%rip)        # 6730f0 <D>
  4028c3:	00 
  4028c4:	e9 40 fd ff ff       	jmpq   402609 <main+0x1929>
  4028c9:	f2 0f 10 05 2f 08 27 	movsd  0x27082f(%rip),%xmm0        # 673100 <A>
  4028d0:	00 
  4028d1:	f2 0f 10 15 2f 08 27 	movsd  0x27082f(%rip),%xmm2        # 673108 <B>
  4028d8:	00 
  4028d9:	f2 0f 10 0d 9f 31 00 	movsd  0x319f(%rip),%xmm1        # 405a80 <__PRETTY_FUNCTION__.5645+0x20>
  4028e0:	00 
  4028e1:	f2 0f 58 d0          	addsd  %xmm0,%xmm2
  4028e5:	f2 0f 58 15 03 08 27 	addsd  0x270803(%rip),%xmm2        # 6730f0 <D>
  4028ec:	00 
  4028ed:	f2 0f 5c ca          	subsd  %xmm2,%xmm1
  4028f1:	f2 0f 11 0d 17 08 27 	movsd  %xmm1,0x270817(%rip)        # 673110 <C>
  4028f8:	00 
  4028f9:	e9 0b fd ff ff       	jmpq   402609 <main+0x1929>
  4028fe:	31 d2                	xor    %edx,%edx
  402900:	45 31 d2             	xor    %r10d,%r10d
  402903:	e9 cb f0 ff ff       	jmpq   4019d3 <main+0xcf3>
  402908:	4c 89 3d 51 0b 27 00 	mov    %r15,0x270b51(%rip)        # 673460 <prng_state_store.lto_priv.18+0x20>
  40290f:	4c 89 0d 2a 0b 27 00 	mov    %r9,0x270b2a(%rip)        # 673440 <prng_state_store.lto_priv.18>
  402916:	48 89 3d 3b 0b 27 00 	mov    %rdi,0x270b3b(%rip)        # 673458 <prng_state_store.lto_priv.18+0x18>
  40291d:	4c 89 2d 2c 0b 27 00 	mov    %r13,0x270b2c(%rip)        # 673450 <prng_state_store.lto_priv.18+0x10>
  402924:	4c 89 1d 1d 0b 27 00 	mov    %r11,0x270b1d(%rip)        # 673448 <prng_state_store.lto_priv.18+0x8>
  40292b:	e9 37 fc ff ff       	jmpq   402567 <main+0x1887>

0000000000402930 <_start>:
  402930:	31 ed                	xor    %ebp,%ebp
  402932:	49 89 d1             	mov    %rdx,%r9
  402935:	5e                   	pop    %rsi
  402936:	48 89 e2             	mov    %rsp,%rdx
  402939:	48 83 e4 f0          	and    $0xfffffffffffffff0,%rsp
  40293d:	50                   	push   %rax
  40293e:	54                   	push   %rsp
  40293f:	49 c7 c0 70 4e 40 00 	mov    $0x404e70,%r8
  402946:	48 c7 c1 00 4e 40 00 	mov    $0x404e00,%rcx
  40294d:	48 c7 c7 e0 0c 40 00 	mov    $0x400ce0,%rdi
  402954:	e8 57 e2 ff ff       	callq  400bb0 <__libc_start_main@plt>
  402959:	f4                   	hlt    
  40295a:	66 0f 1f 44 00 00    	nopw   0x0(%rax,%rax,1)

0000000000402960 <deregister_tm_clones>:
  402960:	b8 2f 31 67 00       	mov    $0x67312f,%eax
  402965:	55                   	push   %rbp
  402966:	48 2d 28 31 67 00    	sub    $0x673128,%rax
  40296c:	48 83 f8 0e          	cmp    $0xe,%rax
  402970:	48 89 e5             	mov    %rsp,%rbp
  402973:	76 1b                	jbe    402990 <deregister_tm_clones+0x30>
  402975:	b8 00 00 00 00       	mov    $0x0,%eax
  40297a:	48 85 c0             	test   %rax,%rax
  40297d:	74 11                	je     402990 <deregister_tm_clones+0x30>
  40297f:	5d                   	pop    %rbp
  402980:	bf 28 31 67 00       	mov    $0x673128,%edi
  402985:	ff e0                	jmpq   *%rax
  402987:	66 0f 1f 84 00 00 00 	nopw   0x0(%rax,%rax,1)
  40298e:	00 00 
  402990:	5d                   	pop    %rbp
  402991:	c3                   	retq   
  402992:	0f 1f 40 00          	nopl   0x0(%rax)
  402996:	66 2e 0f 1f 84 00 00 	nopw   %cs:0x0(%rax,%rax,1)
  40299d:	00 00 00 

00000000004029a0 <register_tm_clones>:
  4029a0:	be 28 31 67 00       	mov    $0x673128,%esi
  4029a5:	55                   	push   %rbp
  4029a6:	48 81 ee 28 31 67 00 	sub    $0x673128,%rsi
  4029ad:	48 c1 fe 03          	sar    $0x3,%rsi
  4029b1:	48 89 e5             	mov    %rsp,%rbp
  4029b4:	48 89 f0             	mov    %rsi,%rax
  4029b7:	48 c1 e8 3f          	shr    $0x3f,%rax
  4029bb:	48 01 c6             	add    %rax,%rsi
  4029be:	48 d1 fe             	sar    %rsi
  4029c1:	74 15                	je     4029d8 <register_tm_clones+0x38>
  4029c3:	b8 00 00 00 00       	mov    $0x0,%eax
  4029c8:	48 85 c0             	test   %rax,%rax
  4029cb:	74 0b                	je     4029d8 <register_tm_clones+0x38>
  4029cd:	5d                   	pop    %rbp
  4029ce:	bf 28 31 67 00       	mov    $0x673128,%edi
  4029d3:	ff e0                	jmpq   *%rax
  4029d5:	0f 1f 00             	nopl   (%rax)
  4029d8:	5d                   	pop    %rbp
  4029d9:	c3                   	retq   
  4029da:	66 0f 1f 44 00 00    	nopw   0x0(%rax,%rax,1)

00000000004029e0 <__do_global_dtors_aux>:
  4029e0:	80 3d 81 07 27 00 00 	cmpb   $0x0,0x270781(%rip)        # 673168 <completed.7585>
  4029e7:	75 11                	jne    4029fa <__do_global_dtors_aux+0x1a>
  4029e9:	55                   	push   %rbp
  4029ea:	48 89 e5             	mov    %rsp,%rbp
  4029ed:	e8 6e ff ff ff       	callq  402960 <deregister_tm_clones>
  4029f2:	5d                   	pop    %rbp
  4029f3:	c6 05 6e 07 27 00 01 	movb   $0x1,0x27076e(%rip)        # 673168 <completed.7585>
  4029fa:	f3 c3                	repz retq 
  4029fc:	0f 1f 40 00          	nopl   0x0(%rax)

0000000000402a00 <frame_dummy>:
  402a00:	bf 10 2e 67 00       	mov    $0x672e10,%edi
  402a05:	48 83 3f 00          	cmpq   $0x0,(%rdi)
  402a09:	75 05                	jne    402a10 <frame_dummy+0x10>
  402a0b:	eb 93                	jmp    4029a0 <register_tm_clones>
  402a0d:	0f 1f 00             	nopl   (%rax)
  402a10:	b8 00 00 00 00       	mov    $0x0,%eax
  402a15:	48 85 c0             	test   %rax,%rax
  402a18:	74 f1                	je     402a0b <frame_dummy+0xb>
  402a1a:	55                   	push   %rbp
  402a1b:	48 89 e5             	mov    %rsp,%rbp
  402a1e:	ff d0                	callq  *%rax
  402a20:	5d                   	pop    %rbp
  402a21:	e9 7a ff ff ff       	jmpq   4029a0 <register_tm_clones>
  402a26:	66 2e 0f 1f 84 00 00 	nopw   %cs:0x0(%rax,%rax,1)
  402a2d:	00 00 00 

0000000000402a30 <create_graph_from_edgelist>:
  402a30:	55                   	push   %rbp
  402a31:	41 57                	push   %r15
  402a33:	41 56                	push   %r14
  402a35:	41 55                	push   %r13
  402a37:	41 54                	push   %r12
  402a39:	53                   	push   %rbx
  402a3a:	50                   	push   %rax
  402a3b:	49 89 f7             	mov    %rsi,%r15
  402a3e:	49 89 fe             	mov    %rdi,%r14
  402a41:	48 c7 05 2c 07 27 00 	movq   $0xffffffffffffffff,0x27072c(%rip)        # 673178 <maxvtx>
  402a48:	ff ff ff ff 
  402a4c:	48 c7 c7 ff ff ff ff 	mov    $0xffffffffffffffff,%rdi
  402a53:	4d 85 ff             	test   %r15,%r15
  402a56:	0f 8e bc 00 00 00    	jle    402b18 <create_graph_from_edgelist+0xe8>
  402a5c:	44 89 f9             	mov    %r15d,%ecx
  402a5f:	83 e1 01             	and    $0x1,%ecx
  402a62:	31 c0                	xor    %eax,%eax
  402a64:	49 83 ff 01          	cmp    $0x1,%r15
  402a68:	75 09                	jne    402a73 <create_graph_from_edgelist+0x43>
  402a6a:	48 c7 c7 ff ff ff ff 	mov    $0xffffffffffffffff,%rdi
  402a71:	eb 75                	jmp    402ae8 <create_graph_from_edgelist+0xb8>
  402a73:	4c 89 fa             	mov    %r15,%rdx
  402a76:	48 29 ca             	sub    %rcx,%rdx
  402a79:	49 8d 76 18          	lea    0x18(%r14),%rsi
  402a7d:	48 c7 c7 ff ff ff ff 	mov    $0xffffffffffffffff,%rdi
  402a84:	31 c0                	xor    %eax,%eax
  402a86:	66 2e 0f 1f 84 00 00 	nopw   %cs:0x0(%rax,%rax,1)
  402a8d:	00 00 00 
  402a90:	48 8b 6e e8          	mov    -0x18(%rsi),%rbp
  402a94:	48 39 fd             	cmp    %rdi,%rbp
  402a97:	7e 0a                	jle    402aa3 <create_graph_from_edgelist+0x73>
  402a99:	48 89 2d d8 06 27 00 	mov    %rbp,0x2706d8(%rip)        # 673178 <maxvtx>
  402aa0:	48 89 ef             	mov    %rbp,%rdi
  402aa3:	48 8b 6e f0          	mov    -0x10(%rsi),%rbp
  402aa7:	48 39 fd             	cmp    %rdi,%rbp
  402aaa:	7e 0a                	jle    402ab6 <create_graph_from_edgelist+0x86>
  402aac:	48 89 2d c5 06 27 00 	mov    %rbp,0x2706c5(%rip)        # 673178 <maxvtx>
  402ab3:	48 89 ef             	mov    %rbp,%rdi
  402ab6:	48 8b 6e f8          	mov    -0x8(%rsi),%rbp
  402aba:	48 39 fd             	cmp    %rdi,%rbp
  402abd:	7e 0a                	jle    402ac9 <create_graph_from_edgelist+0x99>
  402abf:	48 89 2d b2 06 27 00 	mov    %rbp,0x2706b2(%rip)        # 673178 <maxvtx>
  402ac6:	48 89 ef             	mov    %rbp,%rdi
  402ac9:	48 8b 2e             	mov    (%rsi),%rbp
  402acc:	48 39 fd             	cmp    %rdi,%rbp
  402acf:	7e 0a                	jle    402adb <create_graph_from_edgelist+0xab>
  402ad1:	48 89 2d a0 06 27 00 	mov    %rbp,0x2706a0(%rip)        # 673178 <maxvtx>
  402ad8:	48 89 ef             	mov    %rbp,%rdi
  402adb:	48 83 c0 02          	add    $0x2,%rax
  402adf:	48 83 c6 20          	add    $0x20,%rsi
  402ae3:	48 39 c2             	cmp    %rax,%rdx
  402ae6:	75 a8                	jne    402a90 <create_graph_from_edgelist+0x60>
  402ae8:	48 85 c9             	test   %rcx,%rcx
  402aeb:	74 2b                	je     402b18 <create_graph_from_edgelist+0xe8>
  402aed:	48 c1 e0 04          	shl    $0x4,%rax
  402af1:	49 8b 0c 06          	mov    (%r14,%rax,1),%rcx
  402af5:	48 39 f9             	cmp    %rdi,%rcx
  402af8:	7e 0a                	jle    402b04 <create_graph_from_edgelist+0xd4>
  402afa:	48 89 0d 77 06 27 00 	mov    %rcx,0x270677(%rip)        # 673178 <maxvtx>
  402b01:	48 89 cf             	mov    %rcx,%rdi
  402b04:	49 8b 44 06 08       	mov    0x8(%r14,%rax,1),%rax
  402b09:	48 39 f8             	cmp    %rdi,%rax
  402b0c:	7e 0a                	jle    402b18 <create_graph_from_edgelist+0xe8>
  402b0e:	48 89 05 63 06 27 00 	mov    %rax,0x270663(%rip)        # 673178 <maxvtx>
  402b15:	48 89 c7             	mov    %rax,%rdi
  402b18:	48 ff c7             	inc    %rdi
  402b1b:	48 89 3d 5e 06 27 00 	mov    %rdi,0x27065e(%rip)        # 673180 <nv>
  402b22:	48 c1 e7 04          	shl    $0x4,%rdi
  402b26:	48 83 c7 10          	add    $0x10,%rdi
  402b2a:	e8 61 1c 00 00       	callq  404790 <xmalloc_large_ext>
  402b2f:	48 89 c3             	mov    %rax,%rbx
  402b32:	48 89 1d 37 06 27 00 	mov    %rbx,0x270637(%rip)        # 673170 <xoff>
  402b39:	41 bd ff ff ff ff    	mov    $0xffffffff,%r13d
  402b3f:	48 85 db             	test   %rbx,%rbx
  402b42:	0f 84 ee 03 00 00    	je     402f36 <create_graph_from_edgelist+0x506>
  402b48:	4c 8b 25 31 06 27 00 	mov    0x270631(%rip),%r12        # 673180 <nv>
  402b4f:	4b 8d 04 24          	lea    (%r12,%r12,1),%rax
  402b53:	48 89 c1             	mov    %rax,%rcx
  402b56:	48 d1 f9             	sar    %rcx
  402b59:	78 21                	js     402b7c <create_graph_from_edgelist+0x14c>
  402b5b:	4b 8d 4c 24 01       	lea    0x1(%r12,%r12,1),%rcx
  402b60:	31 d2                	xor    %edx,%edx
  402b62:	48 83 c8 01          	or     $0x1,%rax
  402b66:	48 0f 48 ca          	cmovs  %rdx,%rcx
  402b6a:	48 8d 14 cd 08 00 00 	lea    0x8(,%rcx,8),%rdx
  402b71:	00 
  402b72:	31 f6                	xor    %esi,%esi
  402b74:	48 89 df             	mov    %rbx,%rdi
  402b77:	e8 f4 df ff ff       	callq  400b70 <memset@plt>
  402b7c:	4d 85 ff             	test   %r15,%r15
  402b7f:	0f 8e 92 00 00 00    	jle    402c17 <create_graph_from_edgelist+0x1e7>
  402b85:	49 8d 47 ff          	lea    -0x1(%r15),%rax
  402b89:	49 8d 8e 08 04 00 00 	lea    0x408(%r14),%rcx
  402b90:	31 d2                	xor    %edx,%edx
  402b92:	66 66 66 66 66 2e 0f 	data16 data16 data16 data16 nopw %cs:0x0(%rax,%rax,1)
  402b99:	1f 84 00 00 00 00 00 
  402ba0:	48 8b b9 f8 fb ff ff 	mov    -0x408(%rcx),%rdi
  402ba7:	48 8b b1 00 fc ff ff 	mov    -0x400(%rcx),%rsi
  402bae:	48 39 f7             	cmp    %rsi,%rdi
  402bb1:	0f 18 49 f8          	prefetcht0 -0x8(%rcx)
  402bb5:	0f 18 09             	prefetcht0 (%rcx)
  402bb8:	74 51                	je     402c0b <create_graph_from_edgelist+0x1db>
  402bba:	48 85 ff             	test   %rdi,%rdi
  402bbd:	78 23                	js     402be2 <create_graph_from_edgelist+0x1b2>
  402bbf:	48 c1 e7 04          	shl    $0x4,%rdi
  402bc3:	48 8d 6a 20          	lea    0x20(%rdx),%rbp
  402bc7:	48 39 e8             	cmp    %rbp,%rax
  402bca:	48 0f 4e e8          	cmovle %rax,%rbp
  402bce:	48 c1 e5 04          	shl    $0x4,%rbp
  402bd2:	49 8b 2c 2e          	mov    (%r14,%rbp,1),%rbp
  402bd6:	48 c1 e5 04          	shl    $0x4,%rbp
  402bda:	48 ff 04 3b          	incq   (%rbx,%rdi,1)
  402bde:	0f 18 0c 2b          	prefetcht0 (%rbx,%rbp,1)
  402be2:	48 85 f6             	test   %rsi,%rsi
  402be5:	78 24                	js     402c0b <create_graph_from_edgelist+0x1db>
  402be7:	48 c1 e6 04          	shl    $0x4,%rsi
  402beb:	48 8d 7a 20          	lea    0x20(%rdx),%rdi
  402bef:	48 39 f8             	cmp    %rdi,%rax
  402bf2:	48 0f 4e f8          	cmovle %rax,%rdi
  402bf6:	48 c1 e7 04          	shl    $0x4,%rdi
  402bfa:	49 8b 7c 3e 08       	mov    0x8(%r14,%rdi,1),%rdi
  402bff:	48 c1 e7 04          	shl    $0x4,%rdi
  402c03:	48 ff 04 33          	incq   (%rbx,%rsi,1)
  402c07:	0f 18 0c 3b          	prefetcht0 (%rbx,%rdi,1)
  402c0b:	48 ff c2             	inc    %rdx
  402c0e:	48 83 c1 10          	add    $0x10,%rcx
  402c12:	49 39 d7             	cmp    %rdx,%r15
  402c15:	75 89                	jne    402ba0 <create_graph_from_edgelist+0x170>
  402c17:	4d 85 e4             	test   %r12,%r12
  402c1a:	0f 8e 02 01 00 00    	jle    402d22 <create_graph_from_edgelist+0x2f2>
  402c20:	44 89 e0             	mov    %r12d,%eax
  402c23:	83 e0 01             	and    $0x1,%eax
  402c26:	31 c9                	xor    %ecx,%ecx
  402c28:	49 83 fc 01          	cmp    $0x1,%r12
  402c2c:	bd 00 00 00 00       	mov    $0x0,%ebp
  402c31:	74 4f                	je     402c82 <create_graph_from_edgelist+0x252>
  402c33:	48 89 c2             	mov    %rax,%rdx
  402c36:	4c 29 e2             	sub    %r12,%rdx
  402c39:	31 c9                	xor    %ecx,%ecx
  402c3b:	be 02 00 00 00       	mov    $0x2,%esi
  402c40:	31 ed                	xor    %ebp,%ebp
  402c42:	66 66 66 66 66 2e 0f 	data16 data16 data16 data16 nopw %cs:0x0(%rax,%rax,1)
  402c49:	1f 84 00 00 00 00 00 
  402c50:	48 8b 3c cb          	mov    (%rbx,%rcx,8),%rdi
  402c54:	48 83 ff 02          	cmp    $0x2,%rdi
  402c58:	48 0f 4c fe          	cmovl  %rsi,%rdi
  402c5c:	48 89 2c cb          	mov    %rbp,(%rbx,%rcx,8)
  402c60:	48 01 ef             	add    %rbp,%rdi
  402c63:	48 8b 6c cb 10       	mov    0x10(%rbx,%rcx,8),%rbp
  402c68:	48 83 fd 02          	cmp    $0x2,%rbp
  402c6c:	48 0f 4c ee          	cmovl  %rsi,%rbp
  402c70:	48 89 7c cb 10       	mov    %rdi,0x10(%rbx,%rcx,8)
  402c75:	48 01 fd             	add    %rdi,%rbp
  402c78:	48 83 c1 04          	add    $0x4,%rcx
  402c7c:	48 83 c2 02          	add    $0x2,%rdx
  402c80:	75 ce                	jne    402c50 <create_graph_from_edgelist+0x220>
  402c82:	48 85 c0             	test   %rax,%rax
  402c85:	74 18                	je     402c9f <create_graph_from_edgelist+0x26f>
  402c87:	48 8b 04 cb          	mov    (%rbx,%rcx,8),%rax
  402c8b:	48 89 2c cb          	mov    %rbp,(%rbx,%rcx,8)
  402c8f:	48 83 f8 02          	cmp    $0x2,%rax
  402c93:	b9 02 00 00 00       	mov    $0x2,%ecx
  402c98:	48 0f 4d c8          	cmovge %rax,%rcx
  402c9c:	48 01 cd             	add    %rcx,%rbp
  402c9f:	4c 89 e0             	mov    %r12,%rax
  402ca2:	48 c1 e0 04          	shl    $0x4,%rax
  402ca6:	48 89 2c 03          	mov    %rbp,(%rbx,%rax,1)
  402caa:	49 8d 54 24 ff       	lea    -0x1(%r12),%rdx
  402caf:	44 89 e0             	mov    %r12d,%eax
  402cb2:	83 e0 03             	and    $0x3,%eax
  402cb5:	31 c9                	xor    %ecx,%ecx
  402cb7:	48 83 fa 03          	cmp    $0x3,%rdx
  402cbb:	72 3f                	jb     402cfc <create_graph_from_edgelist+0x2cc>
  402cbd:	49 29 c4             	sub    %rax,%r12
  402cc0:	48 8d 53 38          	lea    0x38(%rbx),%rdx
  402cc4:	31 c9                	xor    %ecx,%ecx
  402cc6:	66 2e 0f 1f 84 00 00 	nopw   %cs:0x0(%rax,%rax,1)
  402ccd:	00 00 00 
  402cd0:	48 8b 72 c8          	mov    -0x38(%rdx),%rsi
  402cd4:	48 89 72 d0          	mov    %rsi,-0x30(%rdx)
  402cd8:	48 8b 72 d8          	mov    -0x28(%rdx),%rsi
  402cdc:	48 89 72 e0          	mov    %rsi,-0x20(%rdx)
  402ce0:	48 8b 72 e8          	mov    -0x18(%rdx),%rsi
  402ce4:	48 89 72 f0          	mov    %rsi,-0x10(%rdx)
  402ce8:	48 8b 72 f8          	mov    -0x8(%rdx),%rsi
  402cec:	48 89 32             	mov    %rsi,(%rdx)
  402cef:	48 83 c1 04          	add    $0x4,%rcx
  402cf3:	48 83 c2 40          	add    $0x40,%rdx
  402cf7:	49 39 cc             	cmp    %rcx,%r12
  402cfa:	75 d4                	jne    402cd0 <create_graph_from_edgelist+0x2a0>
  402cfc:	48 85 c0             	test   %rax,%rax
  402cff:	74 2f                	je     402d30 <create_graph_from_edgelist+0x300>
  402d01:	48 c1 e1 04          	shl    $0x4,%rcx
  402d05:	48 8d 4c 0b 08       	lea    0x8(%rbx,%rcx,1),%rcx
  402d0a:	48 f7 d8             	neg    %rax
  402d0d:	0f 1f 00             	nopl   (%rax)
  402d10:	48 8b 51 f8          	mov    -0x8(%rcx),%rdx
  402d14:	48 89 11             	mov    %rdx,(%rcx)
  402d17:	48 83 c1 10          	add    $0x10,%rcx
  402d1b:	48 ff c0             	inc    %rax
  402d1e:	75 f0                	jne    402d10 <create_graph_from_edgelist+0x2e0>
  402d20:	eb 0e                	jmp    402d30 <create_graph_from_edgelist+0x300>
  402d22:	49 c1 e4 04          	shl    $0x4,%r12
  402d26:	4a c7 04 23 00 00 00 	movq   $0x0,(%rbx,%r12,1)
  402d2d:	00 
  402d2e:	31 ed                	xor    %ebp,%ebp
  402d30:	48 8d 3c ed 10 00 00 	lea    0x10(,%rbp,8),%rdi
  402d37:	00 
  402d38:	e8 53 1a 00 00       	callq  404790 <xmalloc_large_ext>
  402d3d:	48 89 05 4c 04 27 00 	mov    %rax,0x27044c(%rip)        # 673190 <xadjstore>
  402d44:	48 85 c0             	test   %rax,%rax
  402d47:	0f 84 dd 01 00 00    	je     402f2a <create_graph_from_edgelist+0x4fa>
  402d4d:	48 8d 58 10          	lea    0x10(%rax),%rbx
  402d51:	48 89 1d 30 04 27 00 	mov    %rbx,0x270430(%rip)        # 673188 <xadj>
  402d58:	48 83 fd ff          	cmp    $0xffffffffffffffff,%rbp
  402d5c:	7c 21                	jl     402d7f <create_graph_from_edgelist+0x34f>
  402d5e:	48 83 c5 02          	add    $0x2,%rbp
  402d62:	48 85 ed             	test   %rbp,%rbp
  402d65:	ba 01 00 00 00       	mov    $0x1,%edx
  402d6a:	48 0f 4f d5          	cmovg  %rbp,%rdx
  402d6e:	48 c1 e2 03          	shl    $0x3,%rdx
  402d72:	be ff 00 00 00       	mov    $0xff,%esi
  402d77:	48 89 c7             	mov    %rax,%rdi
  402d7a:	e8 f1 dd ff ff       	callq  400b70 <memset@plt>
  402d7f:	4d 85 ff             	test   %r15,%r15
  402d82:	0f 8e a5 00 00 00    	jle    402e2d <create_graph_from_edgelist+0x3fd>
  402d88:	4c 8b 0d e1 03 27 00 	mov    0x2703e1(%rip),%r9        # 673170 <xoff>
  402d8f:	4d 8d 47 ff          	lea    -0x1(%r15),%r8
  402d93:	49 8d 96 08 04 00 00 	lea    0x408(%r14),%rdx
  402d9a:	31 f6                	xor    %esi,%esi
  402d9c:	0f 1f 40 00          	nopl   0x0(%rax)
  402da0:	4c 8b a2 f8 fb ff ff 	mov    -0x408(%rdx),%r12
  402da7:	48 8b 8a 00 fc ff ff 	mov    -0x400(%rdx),%rcx
  402dae:	49 39 cc             	cmp    %rcx,%r12
  402db1:	0f 18 4a f8          	prefetcht0 -0x8(%rdx)
  402db5:	0f 18 0a             	prefetcht0 (%rdx)
  402db8:	74 63                	je     402e1d <create_graph_from_edgelist+0x3ed>
  402dba:	48 89 cd             	mov    %rcx,%rbp
  402dbd:	4c 09 e5             	or     %r12,%rbp
  402dc0:	78 5b                	js     402e1d <create_graph_from_edgelist+0x3ed>
  402dc2:	4c 89 e7             	mov    %r12,%rdi
  402dc5:	48 c1 e7 04          	shl    $0x4,%rdi
  402dc9:	48 8d 6e 20          	lea    0x20(%rsi),%rbp
  402dcd:	49 39 e8             	cmp    %rbp,%r8
  402dd0:	49 0f 4e e8          	cmovle %r8,%rbp
  402dd4:	48 c1 e5 04          	shl    $0x4,%rbp
  402dd8:	4d 8b 14 2e          	mov    (%r14,%rbp,1),%r10
  402ddc:	49 c1 e2 04          	shl    $0x4,%r10
  402de0:	4d 8b 5c 39 08       	mov    0x8(%r9,%rdi,1),%r11
  402de5:	49 8d 43 01          	lea    0x1(%r11),%rax
  402de9:	49 89 44 39 08       	mov    %rax,0x8(%r9,%rdi,1)
  402dee:	4a 89 0c db          	mov    %rcx,(%rbx,%r11,8)
  402df2:	48 c1 e1 04          	shl    $0x4,%rcx
  402df6:	49 8b 44 2e 08       	mov    0x8(%r14,%rbp,1),%rax
  402dfb:	48 c1 e0 04          	shl    $0x4,%rax
  402dff:	49 8b 7c 09 08       	mov    0x8(%r9,%rcx,1),%rdi
  402e04:	48 8d 6f 01          	lea    0x1(%rdi),%rbp
  402e08:	49 89 6c 09 08       	mov    %rbp,0x8(%r9,%rcx,1)
  402e0d:	4c 89 24 fb          	mov    %r12,(%rbx,%rdi,8)
  402e11:	43 0f 18 4c 11 08    	prefetcht0 0x8(%r9,%r10,1)
  402e17:	41 0f 18 4c 01 08    	prefetcht0 0x8(%r9,%rax,1)
  402e1d:	48 ff c6             	inc    %rsi
  402e20:	48 83 c2 10          	add    $0x10,%rdx
  402e24:	49 39 f7             	cmp    %rsi,%r15
  402e27:	0f 85 73 ff ff ff    	jne    402da0 <create_graph_from_edgelist+0x370>
  402e2d:	48 8b 0d 4c 03 27 00 	mov    0x27034c(%rip),%rcx        # 673180 <nv>
  402e34:	45 31 ed             	xor    %r13d,%r13d
  402e37:	48 85 c9             	test   %rcx,%rcx
  402e3a:	0f 8e f6 00 00 00    	jle    402f36 <create_graph_from_edgelist+0x506>
  402e40:	48 8b 05 29 03 27 00 	mov    0x270329(%rip),%rax        # 673170 <xoff>
  402e47:	45 31 f6             	xor    %r14d,%r14d
  402e4a:	45 31 ed             	xor    %r13d,%r13d
  402e4d:	0f 1f 00             	nopl   (%rax)
  402e50:	4f 8d 3c 36          	lea    (%r14,%r14,1),%r15
  402e54:	4c 89 f2             	mov    %r14,%rdx
  402e57:	48 c1 e2 04          	shl    $0x4,%rdx
  402e5b:	48 8b 14 10          	mov    (%rax,%rdx,1),%rdx
  402e5f:	48 8d 7a 01          	lea    0x1(%rdx),%rdi
  402e63:	4a 8b 74 f8 08       	mov    0x8(%rax,%r15,8),%rsi
  402e68:	48 39 f7             	cmp    %rsi,%rdi
  402e6b:	0f 8d ab 00 00 00    	jge    402f1c <create_graph_from_edgelist+0x4ec>
  402e71:	4b 8d 6c 36 01       	lea    0x1(%r14,%r14,1),%rbp
  402e76:	48 8d 3c d3          	lea    (%rbx,%rdx,8),%rdi
  402e7a:	48 29 d6             	sub    %rdx,%rsi
  402e7d:	ba 08 00 00 00       	mov    $0x8,%edx
  402e82:	b9 d0 30 40 00       	mov    $0x4030d0,%ecx
  402e87:	e8 a4 dc ff ff       	callq  400b30 <qsort@plt>
  402e8c:	48 8b 05 dd 02 27 00 	mov    0x2702dd(%rip),%rax        # 673170 <xoff>
  402e93:	4a 8b 0c f8          	mov    (%rax,%r15,8),%rcx
  402e97:	48 8b 1d ea 02 27 00 	mov    0x2702ea(%rip),%rbx        # 673188 <xadj>
  402e9e:	48 89 ca             	mov    %rcx,%rdx
  402ea1:	eb 18                	jmp    402ebb <create_graph_from_edgelist+0x48b>
  402ea3:	66 66 66 66 2e 0f 1f 	data16 data16 data16 nopw %cs:0x0(%rax,%rax,1)
  402eaa:	84 00 00 00 00 00 
  402eb0:	48 89 7c cb 08       	mov    %rdi,0x8(%rbx,%rcx,8)
  402eb5:	48 ff c1             	inc    %rcx
  402eb8:	48 ff ca             	dec    %rdx
  402ebb:	48 8b 34 e8          	mov    (%rax,%rbp,8),%rsi
  402ebf:	48 ff c2             	inc    %rdx
  402ec2:	66 66 66 66 66 2e 0f 	data16 data16 data16 data16 nopw %cs:0x0(%rax,%rax,1)
  402ec9:	1f 84 00 00 00 00 00 
  402ed0:	48 39 f2             	cmp    %rsi,%rdx
  402ed3:	7d 1b                	jge    402ef0 <create_graph_from_edgelist+0x4c0>
  402ed5:	48 8b 3c d3          	mov    (%rbx,%rdx,8),%rdi
  402ed9:	48 ff c2             	inc    %rdx
  402edc:	48 3b 3c cb          	cmp    (%rbx,%rcx,8),%rdi
  402ee0:	74 ee                	je     402ed0 <create_graph_from_edgelist+0x4a0>
  402ee2:	eb cc                	jmp    402eb0 <create_graph_from_edgelist+0x480>
  402ee4:	66 66 66 2e 0f 1f 84 	data16 data16 nopw %cs:0x0(%rax,%rax,1)
  402eeb:	00 00 00 00 00 
  402ef0:	48 ff c1             	inc    %rcx
  402ef3:	48 39 f1             	cmp    %rsi,%rcx
  402ef6:	7d 19                	jge    402f11 <create_graph_from_edgelist+0x4e1>
  402ef8:	48 89 ca             	mov    %rcx,%rdx
  402efb:	0f 1f 44 00 00       	nopl   0x0(%rax,%rax,1)
  402f00:	48 c7 04 d3 ff ff ff 	movq   $0xffffffffffffffff,(%rbx,%rdx,8)
  402f07:	ff 
  402f08:	48 ff c2             	inc    %rdx
  402f0b:	48 3b 14 e8          	cmp    (%rax,%rbp,8),%rdx
  402f0f:	7c ef                	jl     402f00 <create_graph_from_edgelist+0x4d0>
  402f11:	48 89 0c e8          	mov    %rcx,(%rax,%rbp,8)
  402f15:	48 8b 0d 64 02 27 00 	mov    0x270264(%rip),%rcx        # 673180 <nv>
  402f1c:	49 ff c6             	inc    %r14
  402f1f:	49 39 ce             	cmp    %rcx,%r14
  402f22:	0f 8c 28 ff ff ff    	jl     402e50 <create_graph_from_edgelist+0x420>
  402f28:	eb 0c                	jmp    402f36 <create_graph_from_edgelist+0x506>
  402f2a:	48 8b 3d 3f 02 27 00 	mov    0x27023f(%rip),%rdi        # 673170 <xoff>
  402f31:	e8 9a 18 00 00       	callq  4047d0 <xfree_large>
  402f36:	44 89 e8             	mov    %r13d,%eax
  402f39:	48 83 c4 08          	add    $0x8,%rsp
  402f3d:	5b                   	pop    %rbx
  402f3e:	41 5c                	pop    %r12
  402f40:	41 5d                	pop    %r13
  402f42:	41 5e                	pop    %r14
  402f44:	41 5f                	pop    %r15
  402f46:	5d                   	pop    %rbp
  402f47:	c3                   	retq   
  402f48:	0f 1f 84 00 00 00 00 	nopl   0x0(%rax,%rax,1)
  402f4f:	00 

0000000000402f50 <make_bfs_tree>:
  402f50:	55                   	push   %rbp
  402f51:	41 57                	push   %r15
  402f53:	41 56                	push   %r14
  402f55:	41 55                	push   %r13
  402f57:	41 54                	push   %r12
  402f59:	53                   	push   %rbx
  402f5a:	50                   	push   %rax
  402f5b:	49 89 d7             	mov    %rdx,%r15
  402f5e:	48 89 fb             	mov    %rdi,%rbx
  402f61:	48 8b 05 10 02 27 00 	mov    0x270210(%rip),%rax        # 673178 <maxvtx>
  402f68:	48 89 06             	mov    %rax,(%rsi)
  402f6b:	48 8b 3d 0e 02 27 00 	mov    0x27020e(%rip),%rdi        # 673180 <nv>
  402f72:	48 c1 e7 03          	shl    $0x3,%rdi
  402f76:	e8 35 18 00 00       	callq  4047b0 <xmalloc_large>
  402f7b:	49 89 c6             	mov    %rax,%r14
  402f7e:	b8 ff ff ff ff       	mov    $0xffffffff,%eax
  402f83:	4d 85 f6             	test   %r14,%r14
  402f86:	0f 84 12 01 00 00    	je     40309e <make_bfs_tree+0x14e>
  402f8c:	48 8b 15 ed 01 27 00 	mov    0x2701ed(%rip),%rdx        # 673180 <nv>
  402f93:	48 85 d2             	test   %rdx,%rdx
  402f96:	7e 11                	jle    402fa9 <make_bfs_tree+0x59>
  402f98:	48 c1 e2 03          	shl    $0x3,%rdx
  402f9c:	be ff 00 00 00       	mov    $0xff,%esi
  402fa1:	48 89 df             	mov    %rbx,%rdi
  402fa4:	e8 c7 db ff ff       	callq  400b70 <memset@plt>
  402fa9:	4d 89 3e             	mov    %r15,(%r14)
  402fac:	4e 89 3c fb          	mov    %r15,(%rbx,%r15,8)
  402fb0:	4c 8b 15 b9 01 27 00 	mov    0x2701b9(%rip),%r10        # 673170 <xoff>
  402fb7:	48 8b 0d ca 01 27 00 	mov    0x2701ca(%rip),%rcx        # 673188 <xadj>
  402fbe:	4c 8d a1 00 02 00 00 	lea    0x200(%rcx),%r12
  402fc5:	41 b9 01 00 00 00    	mov    $0x1,%r9d
  402fcb:	45 31 db             	xor    %r11d,%r11d
  402fce:	66 90                	xchg   %ax,%ax
  402fd0:	4d 39 cb             	cmp    %r9,%r11
  402fd3:	4d 89 cd             	mov    %r9,%r13
  402fd6:	0f 8d a9 00 00 00    	jge    403085 <make_bfs_tree+0x135>
  402fdc:	49 8d 41 ff          	lea    -0x1(%r9),%rax
  402fe0:	48 89 04 24          	mov    %rax,(%rsp)
  402fe4:	4d 89 cd             	mov    %r9,%r13
  402fe7:	66 0f 1f 84 00 00 00 	nopw   0x0(%rax,%rax,1)
  402fee:	00 00 
  402ff0:	4f 8b 3c de          	mov    (%r14,%r11,8),%r15
  402ff4:	49 8d 43 20          	lea    0x20(%r11),%rax
  402ff8:	48 8b 14 24          	mov    (%rsp),%rdx
  402ffc:	48 39 c2             	cmp    %rax,%rdx
  402fff:	48 0f 4e c2          	cmovle %rdx,%rax
  403003:	49 8b 14 c6          	mov    (%r14,%rax,8),%rdx
  403007:	4c 89 f8             	mov    %r15,%rax
  40300a:	48 c1 e0 04          	shl    $0x4,%rax
  40300e:	49 8b 3c 02          	mov    (%r10,%rax,1),%rdi
  403012:	49 8b 44 02 08       	mov    0x8(%r10,%rax,1),%rax
  403017:	48 c1 e2 04          	shl    $0x4,%rdx
  40301b:	43 0f 18 8c de 00 02 	prefetcht0 0x200(%r14,%r11,8)
  403022:	00 00 
  403024:	41 0f 18 4c 12 08    	prefetcht0 0x8(%r10,%rdx,1)
  40302a:	41 0f 18 0c 12       	prefetcht0 (%r10,%rdx,1)
  40302f:	48 39 c7             	cmp    %rax,%rdi
  403032:	7d 45                	jge    403079 <make_bfs_tree+0x129>
  403034:	48 8d 50 ff          	lea    -0x1(%rax),%rdx
  403038:	0f 1f 84 00 00 00 00 	nopl   0x0(%rax,%rax,1)
  40303f:	00 
  403040:	48 8b 34 f9          	mov    (%rcx,%rdi,8),%rsi
  403044:	48 8d 6f 20          	lea    0x20(%rdi),%rbp
  403048:	48 39 ea             	cmp    %rbp,%rdx
  40304b:	48 0f 4e ea          	cmovle %rdx,%rbp
  40304f:	48 8b 2c e9          	mov    (%rcx,%rbp,8),%rbp
  403053:	4c 8b 04 f3          	mov    (%rbx,%rsi,8),%r8
  403057:	41 0f 18 0c fc       	prefetcht0 (%r12,%rdi,8)
  40305c:	0f 18 0c eb          	prefetcht0 (%rbx,%rbp,8)
  403060:	49 83 f8 ff          	cmp    $0xffffffffffffffff,%r8
  403064:	75 0b                	jne    403071 <make_bfs_tree+0x121>
  403066:	4c 89 3c f3          	mov    %r15,(%rbx,%rsi,8)
  40306a:	4b 89 34 ee          	mov    %rsi,(%r14,%r13,8)
  40306e:	49 ff c5             	inc    %r13
  403071:	48 ff c7             	inc    %rdi
  403074:	48 39 f8             	cmp    %rdi,%rax
  403077:	75 c7                	jne    403040 <make_bfs_tree+0xf0>
  403079:	49 ff c3             	inc    %r11
  40307c:	4d 39 cb             	cmp    %r9,%r11
  40307f:	0f 85 6b ff ff ff    	jne    402ff0 <make_bfs_tree+0xa0>
  403085:	4d 39 e9             	cmp    %r13,%r9
  403088:	4d 89 cb             	mov    %r9,%r11
  40308b:	4d 89 e9             	mov    %r13,%r9
  40308e:	0f 85 3c ff ff ff    	jne    402fd0 <make_bfs_tree+0x80>
  403094:	4c 89 f7             	mov    %r14,%rdi
  403097:	e8 34 17 00 00       	callq  4047d0 <xfree_large>
  40309c:	31 c0                	xor    %eax,%eax
  40309e:	48 83 c4 08          	add    $0x8,%rsp
  4030a2:	5b                   	pop    %rbx
  4030a3:	41 5c                	pop    %r12
  4030a5:	41 5d                	pop    %r13
  4030a7:	41 5e                	pop    %r14
  4030a9:	41 5f                	pop    %r15
  4030ab:	5d                   	pop    %rbp
  4030ac:	c3                   	retq   
  4030ad:	0f 1f 00             	nopl   (%rax)

00000000004030b0 <destroy_graph>:
  4030b0:	50                   	push   %rax
  4030b1:	48 8b 3d d8 00 27 00 	mov    0x2700d8(%rip),%rdi        # 673190 <xadjstore>
  4030b8:	e8 13 17 00 00       	callq  4047d0 <xfree_large>
  4030bd:	48 8b 3d ac 00 27 00 	mov    0x2700ac(%rip),%rdi        # 673170 <xoff>
  4030c4:	58                   	pop    %rax
  4030c5:	e9 06 17 00 00       	jmpq   4047d0 <xfree_large>
  4030ca:	66 0f 1f 44 00 00    	nopw   0x0(%rax,%rax,1)

00000000004030d0 <i64cmp>:
  4030d0:	48 8b 07             	mov    (%rdi),%rax
  4030d3:	31 c9                	xor    %ecx,%ecx
  4030d5:	48 3b 06             	cmp    (%rsi),%rax
  4030d8:	0f 9f c1             	setg   %cl
  4030db:	b8 ff ff ff ff       	mov    $0xffffffff,%eax
  4030e0:	0f 4d c1             	cmovge %ecx,%eax
  4030e3:	c3                   	retq   
  4030e4:	66 2e 0f 1f 84 00 00 	nopw   %cs:0x0(%rax,%rax,1)
  4030eb:	00 00 00 
  4030ee:	66 90                	xchg   %ax,%ax

00000000004030f0 <dcmp.lto_priv.13>:
  4030f0:	48 83 ec 08          	sub    $0x8,%rsp
  4030f4:	f2 0f 10 0f          	movsd  (%rdi),%xmm1
  4030f8:	f2 0f 10 06          	movsd  (%rsi),%xmm0
  4030fc:	66 0f 2e c8          	ucomisd %xmm0,%xmm1
  403100:	77 1e                	ja     403120 <dcmp.lto_priv.13+0x30>
  403102:	66 0f 2e c1          	ucomisd %xmm1,%xmm0
  403106:	77 28                	ja     403130 <dcmp.lto_priv.13+0x40>
  403108:	66 0f 2e c8          	ucomisd %xmm0,%xmm1
  40310c:	7a 29                	jp     403137 <dcmp.lto_priv.13+0x47>
  40310e:	75 27                	jne    403137 <dcmp.lto_priv.13+0x47>
  403110:	31 c0                	xor    %eax,%eax
  403112:	48 83 c4 08          	add    $0x8,%rsp
  403116:	c3                   	retq   
  403117:	66 0f 1f 84 00 00 00 	nopw   0x0(%rax,%rax,1)
  40311e:	00 00 
  403120:	b8 01 00 00 00       	mov    $0x1,%eax
  403125:	48 83 c4 08          	add    $0x8,%rsp
  403129:	c3                   	retq   
  40312a:	66 0f 1f 44 00 00    	nopw   0x0(%rax,%rax,1)
  403130:	b8 ff ff ff ff       	mov    $0xffffffff,%eax
  403135:	eb db                	jmp    403112 <dcmp.lto_priv.13+0x22>
  403137:	48 8b 3d 22 00 27 00 	mov    0x270022(%rip),%rdi        # 673160 <stderr@@GLIBC_2.2.5>
  40313e:	ba 84 4e 40 00       	mov    $0x404e84,%edx
  403143:	be 01 00 00 00       	mov    $0x1,%esi
  403148:	31 c0                	xor    %eax,%eax
  40314a:	e8 01 db ff ff       	callq  400c50 <__fprintf_chk@plt>
  40314f:	e8 ac d9 ff ff       	callq  400b00 <abort@plt>
  403154:	66 2e 0f 1f 84 00 00 	nopw   %cs:0x0(%rax,%rax,1)
  40315b:	00 00 00 
  40315e:	66 90                	xchg   %ax,%ax

0000000000403160 <rmat_edgelist>:
  403160:	55                   	push   %rbp
  403161:	89 d1                	mov    %edx,%ecx
  403163:	48 89 e5             	mov    %rsp,%rbp
  403166:	41 57                	push   %r15
  403168:	41 56                	push   %r14
  40316a:	41 55                	push   %r13
  40316c:	41 54                	push   %r12
  40316e:	49 89 f7             	mov    %rsi,%r15
  403171:	53                   	push   %rbx
  403172:	89 d3                	mov    %edx,%ebx
  403174:	48 81 ec b8 00 00 00 	sub    $0xb8,%rsp
  40317b:	f2 0f 11 85 50 ff ff 	movsd  %xmm0,-0xb0(%rbp)
  403182:	ff 
  403183:	f2 0f 58 c1          	addsd  %xmm1,%xmm0
  403187:	f2 0f 10 2d f1 28 00 	movsd  0x28f1(%rip),%xmm5        # 405a80 <__PRETTY_FUNCTION__.5645+0x20>
  40318e:	00 
  40318f:	48 89 bd 30 ff ff ff 	mov    %rdi,-0xd0(%rbp)
  403196:	bf 08 00 00 00       	mov    $0x8,%edi
  40319b:	48 89 b5 70 ff ff ff 	mov    %rsi,-0x90(%rbp)
  4031a2:	f2 0f 11 8d 48 ff ff 	movsd  %xmm1,-0xb8(%rbp)
  4031a9:	ff 
  4031aa:	66 0f 28 f5          	movapd %xmm5,%xmm6
  4031ae:	48 d3 e7             	shl    %cl,%rdi
  4031b1:	f2 0f 58 c2          	addsd  %xmm2,%xmm0
  4031b5:	f2 0f 11 6d 98       	movsd  %xmm5,-0x68(%rbp)
  4031ba:	89 95 2c ff ff ff    	mov    %edx,-0xd4(%rbp)
  4031c0:	f2 0f 11 95 40 ff ff 	movsd  %xmm2,-0xc0(%rbp)
  4031c7:	ff 
  4031c8:	f2 0f 5c f0          	subsd  %xmm0,%xmm6
  4031cc:	f2 0f 11 b5 58 ff ff 	movsd  %xmm6,-0xa8(%rbp)
  4031d3:	ff 
  4031d4:	e8 37 1b 00 00       	callq  404d10 <xmalloc>
  4031d9:	49 89 c4             	mov    %rax,%r12
  4031dc:	8d 04 9b             	lea    (%rbx,%rbx,4),%eax
  4031df:	f2 0f 10 6d 98       	movsd  -0x68(%rbp),%xmm5
  4031e4:	89 85 68 ff ff ff    	mov    %eax,-0x98(%rbp)
  4031ea:	48 98                	cltq   
  4031ec:	48 89 85 60 ff ff ff 	mov    %rax,-0xa0(%rbp)
  4031f3:	48 8d 04 c5 1e 00 00 	lea    0x1e(,%rax,8),%rax
  4031fa:	00 
  4031fb:	48 83 e0 f0          	and    $0xfffffffffffffff0,%rax
  4031ff:	48 29 c4             	sub    %rax,%rsp
  403202:	48 8d 44 24 0f       	lea    0xf(%rsp),%rax
  403207:	48 83 e0 f0          	and    $0xfffffffffffffff0,%rax
  40320b:	4d 85 ff             	test   %r15,%r15
  40320e:	48 89 85 78 ff ff ff 	mov    %rax,-0x88(%rbp)
  403215:	48 8b 05 24 02 27 00 	mov    0x270224(%rip),%rax        # 673440 <prng_state_store.lto_priv.18>
  40321c:	48 89 45 a0          	mov    %rax,-0x60(%rbp)
  403220:	48 8b 05 21 02 27 00 	mov    0x270221(%rip),%rax        # 673448 <prng_state_store.lto_priv.18+0x8>
  403227:	48 89 45 a8          	mov    %rax,-0x58(%rbp)
  40322b:	48 8b 05 1e 02 27 00 	mov    0x27021e(%rip),%rax        # 673450 <prng_state_store.lto_priv.18+0x10>
  403232:	48 89 45 b0          	mov    %rax,-0x50(%rbp)
  403236:	48 8b 05 1b 02 27 00 	mov    0x27021b(%rip),%rax        # 673458 <prng_state_store.lto_priv.18+0x18>
  40323d:	48 89 45 b8          	mov    %rax,-0x48(%rbp)
  403241:	48 8b 05 18 02 27 00 	mov    0x270218(%rip),%rax        # 673460 <prng_state_store.lto_priv.18+0x20>
  403248:	48 89 45 c0          	mov    %rax,-0x40(%rbp)
  40324c:	0f 8e 37 04 00 00    	jle    403689 <rmat_edgelist+0x529>
  403252:	8b 85 2c ff ff ff    	mov    -0xd4(%rbp),%eax
  403258:	48 8b 9d 78 ff ff ff 	mov    -0x88(%rbp),%rbx
  40325f:	4c 8b ad 30 ff ff ff 	mov    -0xd0(%rbp),%r13
  403266:	f2 0f 10 35 1a 28 00 	movsd  0x281a(%rip),%xmm6        # 405a88 <__PRETTY_FUNCTION__.5645+0x28>
  40326d:	00 
  40326e:	f2 0f 10 3d 1a 28 00 	movsd  0x281a(%rip),%xmm7        # 405a90 <__PRETTY_FUNCTION__.5645+0x30>
  403275:	00 
  403276:	4c 89 a5 20 ff ff ff 	mov    %r12,-0xe0(%rbp)
  40327d:	8d 48 ff             	lea    -0x1(%rax),%ecx
  403280:	b8 01 00 00 00       	mov    $0x1,%eax
  403285:	f2 0f 10 25 1b 28 00 	movsd  0x281b(%rip),%xmm4        # 405aa8 <prng_state+0x8>
  40328c:	00 
  40328d:	48 d3 e0             	shl    %cl,%rax
  403290:	48 89 85 38 ff ff ff 	mov    %rax,-0xc8(%rbp)
  403297:	8b 85 68 ff ff ff    	mov    -0x98(%rbp),%eax
  40329d:	83 e8 01             	sub    $0x1,%eax
  4032a0:	48 8d 1c c3          	lea    (%rbx,%rax,8),%rbx
  4032a4:	31 c0                	xor    %eax,%eax
  4032a6:	49 89 c4             	mov    %rax,%r12
  4032a9:	0f 1f 80 00 00 00 00 	nopl   0x0(%rax)
  4032b0:	48 8b 85 60 ff ff ff 	mov    -0xa0(%rbp),%rax
  4032b7:	41 bf 08 00 00 00    	mov    $0x8,%r15d
  4032bd:	48 85 c0             	test   %rax,%rax
  4032c0:	49 89 c6             	mov    %rax,%r14
  4032c3:	75 18                	jne    4032dd <rmat_edgelist+0x17d>
  4032c5:	eb 77                	jmp    40333e <rmat_edgelist+0x1de>
  4032c7:	66 0f 1f 84 00 00 00 	nopw   0x0(%rax,%rax,1)
  4032ce:	00 00 
  4032d0:	49 c1 ee 08          	shr    $0x8,%r14
  4032d4:	41 83 c7 01          	add    $0x1,%r15d
  4032d8:	4d 85 f6             	test   %r14,%r14
  4032db:	74 61                	je     40333e <rmat_edgelist+0x1de>
  4032dd:	45 84 f6             	test   %r14b,%r14b
  4032e0:	74 ee                	je     4032d0 <rmat_edgelist+0x170>
  4032e2:	41 0f b6 c6          	movzbl %r14b,%eax
  4032e6:	49 c1 ee 08          	shr    $0x8,%r14
  4032ea:	f2 0f 11 65 80       	movsd  %xmm4,-0x80(%rbp)
  4032ef:	48 8d 14 c0          	lea    (%rax,%rax,8),%rdx
  4032f3:	49 63 c7             	movslq %r15d,%rax
  4032f6:	f2 0f 11 7d 88       	movsd  %xmm7,-0x78(%rbp)
  4032fb:	48 8d 04 c0          	lea    (%rax,%rax,8),%rax
  4032ff:	f2 0f 11 75 90       	movsd  %xmm6,-0x70(%rbp)
  403304:	41 83 c7 01          	add    $0x1,%r15d
  403308:	f2 0f 11 6d 98       	movsd  %xmm5,-0x68(%rbp)
  40330d:	48 c1 e0 0b          	shl    $0xb,%rax
  403311:	48 8d bc d0 40 5d 40 	lea    0x405d40(%rax,%rdx,8),%rdi
  403318:	00 
  403319:	48 8d 55 a0          	lea    -0x60(%rbp),%rdx
  40331d:	48 89 d6             	mov    %rdx,%rsi
  403320:	e8 9b 0e 00 00       	callq  4041c0 <mrg_apply_transition.lto_priv.7>
  403325:	4d 85 f6             	test   %r14,%r14
  403328:	f2 0f 10 65 80       	movsd  -0x80(%rbp),%xmm4
  40332d:	f2 0f 10 7d 88       	movsd  -0x78(%rbp),%xmm7
  403332:	f2 0f 10 75 90       	movsd  -0x70(%rbp),%xmm6
  403337:	f2 0f 10 6d 98       	movsd  -0x68(%rbp),%xmm5
  40333c:	75 9f                	jne    4032dd <rmat_edgelist+0x17d>
  40333e:	48 8d 55 a0          	lea    -0x60(%rbp),%rdx
  403342:	bf 88 dd 44 00       	mov    $0x44dd88,%edi
  403347:	f2 0f 11 65 80       	movsd  %xmm4,-0x80(%rbp)
  40334c:	f2 0f 11 7d 88       	movsd  %xmm7,-0x78(%rbp)
  403351:	48 89 d6             	mov    %rdx,%rsi
  403354:	f2 0f 11 75 90       	movsd  %xmm6,-0x70(%rbp)
  403359:	f2 0f 11 6d 98       	movsd  %xmm5,-0x68(%rbp)
  40335e:	e8 5d 0e 00 00       	callq  4041c0 <mrg_apply_transition.lto_priv.7>
  403363:	8b 85 68 ff ff ff    	mov    -0x98(%rbp),%eax
  403369:	f2 0f 10 6d 98       	movsd  -0x68(%rbp),%xmm5
  40336e:	f2 0f 10 75 90       	movsd  -0x70(%rbp),%xmm6
  403373:	85 c0                	test   %eax,%eax
  403375:	f2 0f 10 7d 88       	movsd  -0x78(%rbp),%xmm7
  40337a:	f2 0f 10 65 80       	movsd  -0x80(%rbp),%xmm4
  40337f:	0f 8e b0 01 00 00    	jle    403535 <rmat_edgelist+0x3d5>
  403385:	4c 8b 75 a0          	mov    -0x60(%rbp),%r14
  403389:	4c 8b 55 c0          	mov    -0x40(%rbp),%r10
  40338d:	49 81 fe fe ff ff 7f 	cmp    $0x7ffffffe,%r14
  403394:	0f 87 33 0a 00 00    	ja     403dcd <rmat_edgelist+0xc6d>
  40339a:	49 69 ce 66 66 66 06 	imul   $0x6666666,%r14,%rcx
  4033a1:	48 be 05 00 00 00 02 	movabs $0x200000005,%rsi
  4033a8:	00 00 00 
  4033ab:	48 89 c8             	mov    %rcx,%rax
  4033ae:	48 f7 e6             	mul    %rsi
  4033b1:	48 89 c8             	mov    %rcx,%rax
  4033b4:	48 29 d0             	sub    %rdx,%rax
  4033b7:	48 d1 e8             	shr    %rax
  4033ba:	48 01 c2             	add    %rax,%rdx
  4033bd:	48 c1 ea 1e          	shr    $0x1e,%rdx
  4033c1:	48 89 d0             	mov    %rdx,%rax
  4033c4:	48 c1 e0 1f          	shl    $0x1f,%rax
  4033c8:	48 29 d0             	sub    %rdx,%rax
  4033cb:	48 29 c1             	sub    %rax,%rcx
  4033ce:	49 81 fa fe ff ff 7f 	cmp    $0x7ffffffe,%r10
  4033d5:	48 89 ca             	mov    %rcx,%rdx
  4033d8:	0f 87 7c 09 00 00    	ja     403d5a <rmat_edgelist+0xbfa>
  4033de:	48 8b 4d b8          	mov    -0x48(%rbp),%rcx
  4033e2:	4c 8b 5d b0          	mov    -0x50(%rbp),%r11
  4033e6:	4c 8b 7d a8          	mov    -0x58(%rbp),%r15
  4033ea:	4c 8b 8d 78 ff ff ff 	mov    -0x88(%rbp),%r9
  4033f1:	eb 61                	jmp    403454 <rmat_edgelist+0x2f4>
  4033f3:	0f 1f 00             	nopl   (%rax)
  4033f6:	66 2e 0f 1f 84 00 00 	nopw   %cs:0x0(%rax,%rax,1)
  4033fd:	00 00 00 
  403400:	49 69 c8 66 66 66 06 	imul   $0x6666666,%r8,%rcx
  403407:	49 83 c1 08          	add    $0x8,%r9
  40340b:	48 89 c8             	mov    %rcx,%rax
  40340e:	48 f7 e6             	mul    %rsi
  403411:	49 89 d2             	mov    %rdx,%r10
  403414:	48 89 ca             	mov    %rcx,%rdx
  403417:	4c 29 d2             	sub    %r10,%rdx
  40341a:	48 89 d0             	mov    %rdx,%rax
  40341d:	48 d1 e8             	shr    %rax
  403420:	49 8d 14 02          	lea    (%r10,%rax,1),%rdx
  403424:	4d 89 da             	mov    %r11,%r10
  403427:	48 c1 ea 1e          	shr    $0x1e,%rdx
  40342b:	48 89 d0             	mov    %rdx,%rax
  40342e:	48 c1 e0 1f          	shl    $0x1f,%rax
  403432:	48 29 d0             	sub    %rdx,%rax
  403435:	48 29 c1             	sub    %rax,%rcx
  403438:	49 81 fb fe ff ff 7f 	cmp    $0x7ffffffe,%r11
  40343f:	48 89 ca             	mov    %rcx,%rdx
  403442:	4c 89 f9             	mov    %r15,%rcx
  403445:	0f 87 fb 08 00 00    	ja     403d46 <rmat_edgelist+0xbe6>
  40344b:	4d 89 f3             	mov    %r14,%r11
  40344e:	49 89 ff             	mov    %rdi,%r15
  403451:	4d 89 c6             	mov    %r8,%r14
  403454:	4d 69 c2 20 98 01 00 	imul   $0x19820,%r10,%r8
  40345b:	66 0f ef c0          	pxor   %xmm0,%xmm0
  40345f:	49 01 d0             	add    %rdx,%r8
  403462:	4c 89 c0             	mov    %r8,%rax
  403465:	4c 89 c7             	mov    %r8,%rdi
  403468:	48 f7 e6             	mul    %rsi
  40346b:	48 29 d7             	sub    %rdx,%rdi
  40346e:	48 d1 ef             	shr    %rdi
  403471:	48 01 d7             	add    %rdx,%rdi
  403474:	48 c1 ef 1e          	shr    $0x1e,%rdi
  403478:	48 89 f8             	mov    %rdi,%rax
  40347b:	48 c1 e0 1f          	shl    $0x1f,%rax
  40347f:	48 29 f8             	sub    %rdi,%rax
  403482:	4c 89 c7             	mov    %r8,%rdi
  403485:	48 29 c7             	sub    %rax,%rdi
  403488:	4c 69 c7 66 66 66 06 	imul   $0x6666666,%rdi,%r8
  40348f:	f2 48 0f 2a c7       	cvtsi2sd %rdi,%xmm0
  403494:	4c 89 c0             	mov    %r8,%rax
  403497:	48 f7 e6             	mul    %rsi
  40349a:	49 89 d2             	mov    %rdx,%r10
  40349d:	4c 89 c2             	mov    %r8,%rdx
  4034a0:	4c 29 d2             	sub    %r10,%rdx
  4034a3:	48 89 d0             	mov    %rdx,%rax
  4034a6:	f2 0f 59 c6          	mulsd  %xmm6,%xmm0
  4034aa:	48 d1 e8             	shr    %rax
  4034ad:	49 8d 14 02          	lea    (%r10,%rax,1),%rdx
  4034b1:	48 c1 ea 1e          	shr    $0x1e,%rdx
  4034b5:	48 89 d0             	mov    %rdx,%rax
  4034b8:	48 c1 e0 1f          	shl    $0x1f,%rax
  4034bc:	48 29 d0             	sub    %rdx,%rax
  4034bf:	4c 89 c2             	mov    %r8,%rdx
  4034c2:	48 29 c2             	sub    %rax,%rdx
  4034c5:	48 81 f9 fe ff ff 7f 	cmp    $0x7ffffffe,%rcx
  4034cc:	0f 87 00 09 00 00    	ja     403dd2 <rmat_edgelist+0xc72>
  4034d2:	48 69 c9 20 98 01 00 	imul   $0x19820,%rcx,%rcx
  4034d9:	66 0f ef c9          	pxor   %xmm1,%xmm1
  4034dd:	48 01 d1             	add    %rdx,%rcx
  4034e0:	48 89 c8             	mov    %rcx,%rax
  4034e3:	49 89 c8             	mov    %rcx,%r8
  4034e6:	48 f7 e6             	mul    %rsi
  4034e9:	49 29 d0             	sub    %rdx,%r8
  4034ec:	49 d1 e8             	shr    %r8
  4034ef:	49 01 d0             	add    %rdx,%r8
  4034f2:	49 c1 e8 1e          	shr    $0x1e,%r8
  4034f6:	4c 89 c0             	mov    %r8,%rax
  4034f9:	48 c1 e0 1f          	shl    $0x1f,%rax
  4034fd:	4c 29 c0             	sub    %r8,%rax
  403500:	48 29 c1             	sub    %rax,%rcx
  403503:	49 39 d9             	cmp    %rbx,%r9
  403506:	f2 48 0f 2a c9       	cvtsi2sd %rcx,%xmm1
  40350b:	49 89 c8             	mov    %rcx,%r8
  40350e:	f2 0f 59 cf          	mulsd  %xmm7,%xmm1
  403512:	f2 0f 58 c1          	addsd  %xmm1,%xmm0
  403516:	f2 41 0f 11 01       	movsd  %xmm0,(%r9)
  40351b:	0f 85 df fe ff ff    	jne    403400 <rmat_edgelist+0x2a0>
  403521:	4c 89 5d c0          	mov    %r11,-0x40(%rbp)
  403525:	4c 89 7d b8          	mov    %r15,-0x48(%rbp)
  403529:	4c 89 75 b0          	mov    %r14,-0x50(%rbp)
  40352d:	48 89 7d a8          	mov    %rdi,-0x58(%rbp)
  403531:	48 89 4d a0          	mov    %rcx,-0x60(%rbp)
  403535:	48 8b 85 78 ff ff ff 	mov    -0x88(%rbp),%rax
  40353c:	48 8b 95 38 ff ff ff 	mov    -0xc8(%rbp),%rdx
  403543:	31 c9                	xor    %ecx,%ecx
  403545:	f2 0f 10 9d 58 ff ff 	movsd  -0xa8(%rbp),%xmm3
  40354c:	ff 
  40354d:	31 f6                	xor    %esi,%esi
  40354f:	f2 0f 10 85 40 ff ff 	movsd  -0xc0(%rbp),%xmm0
  403556:	ff 
  403557:	f2 44 0f 10 8d 48 ff 	movsd  -0xb8(%rbp),%xmm9
  40355e:	ff ff 
  403560:	f2 44 0f 10 85 50 ff 	movsd  -0xb0(%rbp),%xmm8
  403567:	ff ff 
  403569:	f2 44 0f 10 15 3e 25 	movsd  0x253e(%rip),%xmm10        # 405ab0 <prng_state+0x10>
  403570:	00 00 
  403572:	e9 ad 00 00 00       	jmpq   403624 <rmat_edgelist+0x4c4>
  403577:	66 0f 1f 84 00 00 00 	nopw   0x0(%rax,%rax,1)
  40357e:	00 00 
  403580:	48 09 d1             	or     %rdx,%rcx
  403583:	48 83 c0 28          	add    $0x28,%rax
  403587:	48 83 fa 01          	cmp    $0x1,%rdx
  40358b:	0f 84 d4 00 00 00    	je     403665 <rmat_edgelist+0x505>
  403591:	f2 0f 10 48 e0       	movsd  -0x20(%rax),%xmm1
  403596:	48 d1 fa             	sar    %rdx
  403599:	f2 0f 10 50 f0       	movsd  -0x10(%rax),%xmm2
  40359e:	f2 0f 5e cc          	divsd  %xmm4,%xmm1
  4035a2:	f2 0f 5e d4          	divsd  %xmm4,%xmm2
  4035a6:	f2 41 0f 58 ca       	addsd  %xmm10,%xmm1
  4035ab:	f2 44 0f 59 c1       	mulsd  %xmm1,%xmm8
  4035b0:	f2 0f 10 48 e8       	movsd  -0x18(%rax),%xmm1
  4035b5:	f2 0f 5e cc          	divsd  %xmm4,%xmm1
  4035b9:	f2 41 0f 58 d2       	addsd  %xmm10,%xmm2
  4035be:	f2 0f 59 c2          	mulsd  %xmm2,%xmm0
  4035c2:	f2 41 0f 58 ca       	addsd  %xmm10,%xmm1
  4035c7:	f2 44 0f 59 c9       	mulsd  %xmm1,%xmm9
  4035cc:	f2 0f 10 48 f8       	movsd  -0x8(%rax),%xmm1
  4035d1:	f2 0f 5e cc          	divsd  %xmm4,%xmm1
  4035d5:	f2 41 0f 58 ca       	addsd  %xmm10,%xmm1
  4035da:	f2 0f 59 d9          	mulsd  %xmm1,%xmm3
  4035de:	66 41 0f 28 c8       	movapd %xmm8,%xmm1
  4035e3:	f2 41 0f 58 c9       	addsd  %xmm9,%xmm1
  4035e8:	66 0f 28 d1          	movapd %xmm1,%xmm2
  4035ec:	f2 0f 58 d0          	addsd  %xmm0,%xmm2
  4035f0:	f2 0f 58 da          	addsd  %xmm2,%xmm3
  4035f4:	66 0f 28 cb          	movapd %xmm3,%xmm1
  4035f8:	66 0f 28 dd          	movapd %xmm5,%xmm3
  4035fc:	f2 0f 5e d9          	divsd  %xmm1,%xmm3
  403600:	f2 44 0f 59 c3       	mulsd  %xmm3,%xmm8
  403605:	f2 44 0f 59 cb       	mulsd  %xmm3,%xmm9
  40360a:	f2 0f 59 c3          	mulsd  %xmm3,%xmm0
  40360e:	66 0f 28 dd          	movapd %xmm5,%xmm3
  403612:	66 41 0f 28 c8       	movapd %xmm8,%xmm1
  403617:	f2 41 0f 58 c9       	addsd  %xmm9,%xmm1
  40361c:	f2 0f 58 c8          	addsd  %xmm0,%xmm1
  403620:	f2 0f 5c d9          	subsd  %xmm1,%xmm3
  403624:	f2 0f 10 08          	movsd  (%rax),%xmm1
  403628:	66 41 0f 2e c8       	ucomisd %xmm8,%xmm1
  40362d:	0f 86 50 ff ff ff    	jbe    403583 <rmat_edgelist+0x423>
  403633:	66 41 0f 28 d0       	movapd %xmm8,%xmm2
  403638:	f2 41 0f 58 d1       	addsd  %xmm9,%xmm2
  40363d:	66 0f 2e d1          	ucomisd %xmm1,%xmm2
  403641:	0f 83 39 ff ff ff    	jae    403580 <rmat_edgelist+0x420>
  403647:	f2 0f 58 d0          	addsd  %xmm0,%xmm2
  40364b:	66 0f 2e d1          	ucomisd %xmm1,%xmm2
  40364f:	73 03                	jae    403654 <rmat_edgelist+0x4f4>
  403651:	48 09 d1             	or     %rdx,%rcx
  403654:	48 09 d6             	or     %rdx,%rsi
  403657:	48 83 c0 28          	add    $0x28,%rax
  40365b:	48 83 fa 01          	cmp    $0x1,%rdx
  40365f:	0f 85 2c ff ff ff    	jne    403591 <rmat_edgelist+0x431>
  403665:	49 89 75 00          	mov    %rsi,0x0(%r13)
  403669:	49 89 4d 08          	mov    %rcx,0x8(%r13)
  40366d:	49 83 c4 01          	add    $0x1,%r12
  403671:	49 83 c5 10          	add    $0x10,%r13
  403675:	4c 39 a5 70 ff ff ff 	cmp    %r12,-0x90(%rbp)
  40367c:	0f 85 2e fc ff ff    	jne    4032b0 <rmat_edgelist+0x150>
  403682:	4c 8b a5 20 ff ff ff 	mov    -0xe0(%rbp),%r12
  403689:	48 8b 95 60 ff ff ff 	mov    -0xa0(%rbp),%rdx
  403690:	be 01 00 00 00       	mov    $0x1,%esi
  403695:	bf 40 34 67 00       	mov    $0x673440,%edi
  40369a:	48 0f af 95 70 ff ff 	imul   -0x90(%rbp),%rdx
  4036a1:	ff 
  4036a2:	41 be 01 00 00 00    	mov    $0x1,%r14d
  4036a8:	e8 93 15 00 00       	callq  404c40 <mrg_skip.constprop.2>
  4036ad:	48 8b 05 8c fd 26 00 	mov    0x26fd8c(%rip),%rax        # 673440 <prng_state_store.lto_priv.18>
  4036b4:	0f b6 8d 2c ff ff ff 	movzbl -0xd4(%rbp),%ecx
  4036bb:	48 89 45 a0          	mov    %rax,-0x60(%rbp)
  4036bf:	48 8b 05 82 fd 26 00 	mov    0x26fd82(%rip),%rax        # 673448 <prng_state_store.lto_priv.18+0x8>
  4036c6:	49 d3 e6             	shl    %cl,%r14
  4036c9:	4d 85 f6             	test   %r14,%r14
  4036cc:	48 89 45 a8          	mov    %rax,-0x58(%rbp)
  4036d0:	48 8b 05 79 fd 26 00 	mov    0x26fd79(%rip),%rax        # 673450 <prng_state_store.lto_priv.18+0x10>
  4036d7:	48 89 45 b0          	mov    %rax,-0x50(%rbp)
  4036db:	48 8b 05 76 fd 26 00 	mov    0x26fd76(%rip),%rax        # 673458 <prng_state_store.lto_priv.18+0x18>
  4036e2:	48 89 45 b8          	mov    %rax,-0x48(%rbp)
  4036e6:	48 8b 05 73 fd 26 00 	mov    0x26fd73(%rip),%rax        # 673460 <prng_state_store.lto_priv.18+0x20>
  4036ed:	48 89 45 c0          	mov    %rax,-0x40(%rbp)
  4036f1:	0f 8e 2e 03 00 00    	jle    403a25 <rmat_edgelist+0x8c5>
  4036f7:	4c 89 e0             	mov    %r12,%rax
  4036fa:	48 c1 e0 3c          	shl    $0x3c,%rax
  4036fe:	48 c1 e8 3f          	shr    $0x3f,%rax
  403702:	4c 39 f0             	cmp    %r14,%rax
  403705:	49 0f 47 c6          	cmova  %r14,%rax
  403709:	49 83 fe 0a          	cmp    $0xa,%r14
  40370d:	0f 8f 0f 06 00 00    	jg     403d22 <rmat_edgelist+0xbc2>
  403713:	4c 89 f0             	mov    %r14,%rax
  403716:	48 83 f8 01          	cmp    $0x1,%rax
  40371a:	49 c7 04 24 00 00 00 	movq   $0x0,(%r12)
  403721:	00 
  403722:	0f 84 9b 06 00 00    	je     403dc3 <rmat_edgelist+0xc63>
  403728:	48 83 f8 02          	cmp    $0x2,%rax
  40372c:	49 c7 44 24 08 01 00 	movq   $0x1,0x8(%r12)
  403733:	00 00 
  403735:	0f 84 7e 06 00 00    	je     403db9 <rmat_edgelist+0xc59>
  40373b:	48 83 f8 03          	cmp    $0x3,%rax
  40373f:	49 c7 44 24 10 02 00 	movq   $0x2,0x10(%r12)
  403746:	00 00 
  403748:	0f 84 61 06 00 00    	je     403daf <rmat_edgelist+0xc4f>
  40374e:	48 83 f8 04          	cmp    $0x4,%rax
  403752:	49 c7 44 24 18 03 00 	movq   $0x3,0x18(%r12)
  403759:	00 00 
  40375b:	0f 84 44 06 00 00    	je     403da5 <rmat_edgelist+0xc45>
  403761:	48 83 f8 05          	cmp    $0x5,%rax
  403765:	49 c7 44 24 20 04 00 	movq   $0x4,0x20(%r12)
  40376c:	00 00 
  40376e:	0f 84 1d 06 00 00    	je     403d91 <rmat_edgelist+0xc31>
  403774:	48 83 f8 06          	cmp    $0x6,%rax
  403778:	49 c7 44 24 28 05 00 	movq   $0x5,0x28(%r12)
  40377f:	00 00 
  403781:	0f 84 00 06 00 00    	je     403d87 <rmat_edgelist+0xc27>
  403787:	48 83 f8 07          	cmp    $0x7,%rax
  40378b:	49 c7 44 24 30 06 00 	movq   $0x6,0x30(%r12)
  403792:	00 00 
  403794:	0f 84 e3 05 00 00    	je     403d7d <rmat_edgelist+0xc1d>
  40379a:	48 83 f8 08          	cmp    $0x8,%rax
  40379e:	49 c7 44 24 38 07 00 	movq   $0x7,0x38(%r12)
  4037a5:	00 00 
  4037a7:	0f 84 c6 05 00 00    	je     403d73 <rmat_edgelist+0xc13>
  4037ad:	48 83 f8 0a          	cmp    $0xa,%rax
  4037b1:	49 c7 44 24 40 08 00 	movq   $0x8,0x40(%r12)
  4037b8:	00 00 
  4037ba:	0f 85 db 05 00 00    	jne    403d9b <rmat_edgelist+0xc3b>
  4037c0:	49 c7 44 24 48 09 00 	movq   $0x9,0x48(%r12)
  4037c7:	00 00 
  4037c9:	be 0a 00 00 00       	mov    $0xa,%esi
  4037ce:	49 39 c6             	cmp    %rax,%r14
  4037d1:	74 5f                	je     403832 <rmat_edgelist+0x6d2>
  4037d3:	4c 89 f7             	mov    %r14,%rdi
  4037d6:	48 29 c7             	sub    %rax,%rdi
  4037d9:	48 8d 4f fe          	lea    -0x2(%rdi),%rcx
  4037dd:	48 d1 e9             	shr    %rcx
  4037e0:	48 83 c1 01          	add    $0x1,%rcx
  4037e4:	48 83 ff 01          	cmp    $0x1,%rdi
  4037e8:	4c 8d 04 09          	lea    (%rcx,%rcx,1),%r8
  4037ec:	74 40                	je     40382e <rmat_edgelist+0x6ce>
  4037ee:	48 8d 56 01          	lea    0x1(%rsi),%rdx
  4037f2:	48 89 75 98          	mov    %rsi,-0x68(%rbp)
  4037f6:	f3 0f 7e 45 98       	movq   -0x68(%rbp),%xmm0
  4037fb:	48 89 55 98          	mov    %rdx,-0x68(%rbp)
  4037ff:	49 8d 14 c4          	lea    (%r12,%rax,8),%rdx
  403803:	31 c0                	xor    %eax,%eax
  403805:	0f 16 45 98          	movhps -0x68(%rbp),%xmm0
  403809:	66 0f 6f 0d bf 22 00 	movdqa 0x22bf(%rip),%xmm1        # 405ad0 <prng_state+0x30>
  403810:	00 
  403811:	48 83 c0 01          	add    $0x1,%rax
  403815:	48 83 c2 10          	add    $0x10,%rdx
  403819:	0f 29 42 f0          	movaps %xmm0,-0x10(%rdx)
  40381d:	66 0f d4 c1          	paddq  %xmm1,%xmm0
  403821:	48 39 c8             	cmp    %rcx,%rax
  403824:	72 eb                	jb     403811 <rmat_edgelist+0x6b1>
  403826:	4c 01 c6             	add    %r8,%rsi
  403829:	49 39 f8             	cmp    %rdi,%r8
  40382c:	74 04                	je     403832 <rmat_edgelist+0x6d2>
  40382e:	49 89 34 f4          	mov    %rsi,(%r12,%rsi,8)
  403832:	48 8b 7d a0          	mov    -0x60(%rbp),%rdi
  403836:	48 8b 4d c0          	mov    -0x40(%rbp),%rcx
  40383a:	48 81 ff fe ff ff 7f 	cmp    $0x7ffffffe,%rdi
  403841:	0f 87 86 05 00 00    	ja     403dcd <rmat_edgelist+0xc6d>
  403847:	48 69 f7 66 66 66 06 	imul   $0x6666666,%rdi,%rsi
  40384e:	49 bd 05 00 00 00 02 	movabs $0x200000005,%r13
  403855:	00 00 00 
  403858:	48 89 f0             	mov    %rsi,%rax
  40385b:	49 f7 e5             	mul    %r13
  40385e:	48 89 f0             	mov    %rsi,%rax
  403861:	48 29 d0             	sub    %rdx,%rax
  403864:	48 d1 e8             	shr    %rax
  403867:	48 01 d0             	add    %rdx,%rax
  40386a:	48 c1 e8 1e          	shr    $0x1e,%rax
  40386e:	48 89 c2             	mov    %rax,%rdx
  403871:	48 c1 e2 1f          	shl    $0x1f,%rdx
  403875:	48 29 c2             	sub    %rax,%rdx
  403878:	48 29 d6             	sub    %rdx,%rsi
  40387b:	48 81 f9 fe ff ff 7f 	cmp    $0x7ffffffe,%rcx
  403882:	48 89 f0             	mov    %rsi,%rax
  403885:	0f 87 cf 04 00 00    	ja     403d5a <rmat_edgelist+0xbfa>
  40388b:	f2 0f 10 3d f5 21 00 	movsd  0x21f5(%rip),%xmm7        # 405a88 <__PRETTY_FUNCTION__.5645+0x28>
  403892:	00 
  403893:	31 db                	xor    %ebx,%ebx
  403895:	f2 0f 11 7d 98       	movsd  %xmm7,-0x68(%rbp)
  40389a:	eb 53                	jmp    4038ef <rmat_edgelist+0x78f>
  40389c:	0f 1f 40 00          	nopl   0x0(%rax)
  4038a0:	48 8b 7d a0          	mov    -0x60(%rbp),%rdi
  4038a4:	48 8b 4d c0          	mov    -0x40(%rbp),%rcx
  4038a8:	48 81 ff fe ff ff 7f 	cmp    $0x7ffffffe,%rdi
  4038af:	0f 87 18 05 00 00    	ja     403dcd <rmat_edgelist+0xc6d>
  4038b5:	48 69 f7 66 66 66 06 	imul   $0x6666666,%rdi,%rsi
  4038bc:	48 89 f0             	mov    %rsi,%rax
  4038bf:	49 f7 e5             	mul    %r13
  4038c2:	48 89 f0             	mov    %rsi,%rax
  4038c5:	48 29 d0             	sub    %rdx,%rax
  4038c8:	48 d1 e8             	shr    %rax
  4038cb:	48 01 d0             	add    %rdx,%rax
  4038ce:	48 c1 e8 1e          	shr    $0x1e,%rax
  4038d2:	48 89 c2             	mov    %rax,%rdx
  4038d5:	48 c1 e2 1f          	shl    $0x1f,%rdx
  4038d9:	48 29 c2             	sub    %rax,%rdx
  4038dc:	48 29 d6             	sub    %rdx,%rsi
  4038df:	48 81 f9 fe ff ff 7f 	cmp    $0x7ffffffe,%rcx
  4038e6:	48 89 f0             	mov    %rsi,%rax
  4038e9:	0f 87 6b 04 00 00    	ja     403d5a <rmat_edgelist+0xbfa>
  4038ef:	48 69 c9 20 98 01 00 	imul   $0x19820,%rcx,%rcx
  4038f6:	66 0f ef c0          	pxor   %xmm0,%xmm0
  4038fa:	4c 8b 55 b8          	mov    -0x48(%rbp),%r10
  4038fe:	4c 8b 4d b0          	mov    -0x50(%rbp),%r9
  403902:	4c 8b 45 a8          	mov    -0x58(%rbp),%r8
  403906:	48 89 7d a8          	mov    %rdi,-0x58(%rbp)
  40390a:	48 01 c1             	add    %rax,%rcx
  40390d:	4c 89 55 c0          	mov    %r10,-0x40(%rbp)
  403911:	4c 89 4d b8          	mov    %r9,-0x48(%rbp)
  403915:	48 89 c8             	mov    %rcx,%rax
  403918:	48 89 ce             	mov    %rcx,%rsi
  40391b:	4c 89 45 b0          	mov    %r8,-0x50(%rbp)
  40391f:	49 f7 e5             	mul    %r13
  403922:	48 29 d6             	sub    %rdx,%rsi
  403925:	48 d1 ee             	shr    %rsi
  403928:	48 01 d6             	add    %rdx,%rsi
  40392b:	48 c1 ee 1e          	shr    $0x1e,%rsi
  40392f:	48 89 f0             	mov    %rsi,%rax
  403932:	48 c1 e0 1f          	shl    $0x1f,%rax
  403936:	48 29 f0             	sub    %rsi,%rax
  403939:	48 89 ce             	mov    %rcx,%rsi
  40393c:	48 29 c6             	sub    %rax,%rsi
  40393f:	4c 69 de 66 66 66 06 	imul   $0x6666666,%rsi,%r11
  403946:	f2 48 0f 2a c6       	cvtsi2sd %rsi,%xmm0
  40394b:	48 89 75 a0          	mov    %rsi,-0x60(%rbp)
  40394f:	4c 89 d8             	mov    %r11,%rax
  403952:	4c 89 d9             	mov    %r11,%rcx
  403955:	49 f7 e5             	mul    %r13
  403958:	48 29 d1             	sub    %rdx,%rcx
  40395b:	48 d1 e9             	shr    %rcx
  40395e:	48 01 d1             	add    %rdx,%rcx
  403961:	f2 0f 59 45 98       	mulsd  -0x68(%rbp),%xmm0
  403966:	4c 89 da             	mov    %r11,%rdx
  403969:	48 c1 e9 1e          	shr    $0x1e,%rcx
  40396d:	48 89 c8             	mov    %rcx,%rax
  403970:	48 c1 e0 1f          	shl    $0x1f,%rax
  403974:	48 29 c8             	sub    %rcx,%rax
  403977:	48 29 c2             	sub    %rax,%rdx
  40397a:	49 81 fa fe ff ff 7f 	cmp    $0x7ffffffe,%r10
  403981:	66 0f 28 c8          	movapd %xmm0,%xmm1
  403985:	0f 87 cf 03 00 00    	ja     403d5a <rmat_edgelist+0xbfa>
  40398b:	49 69 ca 20 98 01 00 	imul   $0x19820,%r10,%rcx
  403992:	66 0f ef c0          	pxor   %xmm0,%xmm0
  403996:	4c 89 4d c0          	mov    %r9,-0x40(%rbp)
  40399a:	4c 89 45 b8          	mov    %r8,-0x48(%rbp)
  40399e:	48 89 7d b0          	mov    %rdi,-0x50(%rbp)
  4039a2:	48 89 75 a8          	mov    %rsi,-0x58(%rbp)
  4039a6:	48 01 d1             	add    %rdx,%rcx
  4039a9:	48 89 c8             	mov    %rcx,%rax
  4039ac:	49 f7 e5             	mul    %r13
  4039af:	48 89 c8             	mov    %rcx,%rax
  4039b2:	48 29 d0             	sub    %rdx,%rax
  4039b5:	48 d1 e8             	shr    %rax
  4039b8:	48 01 c2             	add    %rax,%rdx
  4039bb:	48 c1 ea 1e          	shr    $0x1e,%rdx
  4039bf:	48 89 d0             	mov    %rdx,%rax
  4039c2:	48 c1 e0 1f          	shl    $0x1f,%rax
  4039c6:	48 29 d0             	sub    %rdx,%rax
  4039c9:	48 29 c1             	sub    %rax,%rcx
  4039cc:	4c 89 f0             	mov    %r14,%rax
  4039cf:	f2 48 0f 2a c1       	cvtsi2sd %rcx,%xmm0
  4039d4:	48 29 d8             	sub    %rbx,%rax
  4039d7:	48 89 4d a0          	mov    %rcx,-0x60(%rbp)
  4039db:	f2 0f 59 05 ad 20 00 	mulsd  0x20ad(%rip),%xmm0        # 405a90 <__PRETTY_FUNCTION__.5645+0x30>
  4039e2:	00 
  4039e3:	f2 0f 58 c1          	addsd  %xmm1,%xmm0
  4039e7:	66 0f ef c9          	pxor   %xmm1,%xmm1
  4039eb:	f2 48 0f 2a c8       	cvtsi2sd %rax,%xmm1
  4039f0:	f2 0f 59 c1          	mulsd  %xmm1,%xmm0
  4039f4:	e8 37 d2 ff ff       	callq  400c30 <floor@plt>
  4039f9:	f2 48 0f 2c c0       	cvttsd2si %xmm0,%rax
  4039fe:	48 01 d8             	add    %rbx,%rax
  403a01:	48 39 c3             	cmp    %rax,%rbx
  403a04:	74 12                	je     403a18 <rmat_edgelist+0x8b8>
  403a06:	49 8d 04 c4          	lea    (%r12,%rax,8),%rax
  403a0a:	49 8b 0c dc          	mov    (%r12,%rbx,8),%rcx
  403a0e:	48 8b 10             	mov    (%rax),%rdx
  403a11:	48 89 08             	mov    %rcx,(%rax)
  403a14:	49 89 14 dc          	mov    %rdx,(%r12,%rbx,8)
  403a18:	48 83 c3 01          	add    $0x1,%rbx
  403a1c:	49 39 de             	cmp    %rbx,%r14
  403a1f:	0f 85 7b fe ff ff    	jne    4038a0 <rmat_edgelist+0x740>
  403a25:	48 83 bd 70 ff ff ff 	cmpq   $0x0,-0x90(%rbp)
  403a2c:	00 
  403a2d:	0f 8e ff 02 00 00    	jle    403d32 <rmat_edgelist+0xbd2>
  403a33:	48 8b b5 70 ff ff ff 	mov    -0x90(%rbp),%rsi
  403a3a:	48 8b 85 30 ff ff ff 	mov    -0xd0(%rbp),%rax
  403a41:	49 89 f1             	mov    %rsi,%r9
  403a44:	48 c1 e6 04          	shl    $0x4,%rsi
  403a48:	49 89 c0             	mov    %rax,%r8
  403a4b:	48 01 c6             	add    %rax,%rsi
  403a4e:	66 90                	xchg   %ax,%ax
  403a50:	48 8b 50 08          	mov    0x8(%rax),%rdx
  403a54:	48 8b 08             	mov    (%rax),%rcx
  403a57:	48 83 c0 10          	add    $0x10,%rax
  403a5b:	49 8b 14 d4          	mov    (%r12,%rdx,8),%rdx
  403a5f:	49 8b 0c cc          	mov    (%r12,%rcx,8),%rcx
  403a63:	48 89 50 f8          	mov    %rdx,-0x8(%rax)
  403a67:	48 89 48 f0          	mov    %rcx,-0x10(%rax)
  403a6b:	48 39 f0             	cmp    %rsi,%rax
  403a6e:	75 e0                	jne    403a50 <rmat_edgelist+0x8f0>
  403a70:	4c 89 f2             	mov    %r14,%rdx
  403a73:	be 01 00 00 00       	mov    $0x1,%esi
  403a78:	bf 40 34 67 00       	mov    $0x673440,%edi
  403a7d:	4c 89 4d 90          	mov    %r9,-0x70(%rbp)
  403a81:	4c 89 45 98          	mov    %r8,-0x68(%rbp)
  403a85:	e8 b6 11 00 00       	callq  404c40 <mrg_skip.constprop.2>
  403a8a:	4c 8b 35 af f9 26 00 	mov    0x26f9af(%rip),%r14        # 673440 <prng_state_store.lto_priv.18>
  403a91:	48 8b 3d b0 f9 26 00 	mov    0x26f9b0(%rip),%rdi        # 673448 <prng_state_store.lto_priv.18+0x8>
  403a98:	48 8b 35 b1 f9 26 00 	mov    0x26f9b1(%rip),%rsi        # 673450 <prng_state_store.lto_priv.18+0x10>
  403a9f:	48 8b 0d b2 f9 26 00 	mov    0x26f9b2(%rip),%rcx        # 673458 <prng_state_store.lto_priv.18+0x18>
  403aa6:	4c 8b 1d b3 f9 26 00 	mov    0x26f9b3(%rip),%r11        # 673460 <prng_state_store.lto_priv.18+0x20>
  403aad:	4c 8b 45 98          	mov    -0x68(%rbp),%r8
  403ab1:	49 81 fe fe ff ff 7f 	cmp    $0x7ffffffe,%r14
  403ab8:	4c 89 75 a0          	mov    %r14,-0x60(%rbp)
  403abc:	48 89 7d a8          	mov    %rdi,-0x58(%rbp)
  403ac0:	48 89 75 b0          	mov    %rsi,-0x50(%rbp)
  403ac4:	48 89 4d b8          	mov    %rcx,-0x48(%rbp)
  403ac8:	4c 89 5d c0          	mov    %r11,-0x40(%rbp)
  403acc:	4c 8b 4d 90          	mov    -0x70(%rbp),%r9
  403ad0:	0f 87 f7 02 00 00    	ja     403dcd <rmat_edgelist+0xc6d>
  403ad6:	4d 69 d6 66 66 66 06 	imul   $0x6666666,%r14,%r10
  403add:	49 bf 05 00 00 00 02 	movabs $0x200000005,%r15
  403ae4:	00 00 00 
  403ae7:	4c 89 d0             	mov    %r10,%rax
  403aea:	49 f7 e7             	mul    %r15
  403aed:	4c 89 d0             	mov    %r10,%rax
  403af0:	48 29 d0             	sub    %rdx,%rax
  403af3:	48 d1 e8             	shr    %rax
  403af6:	48 01 d0             	add    %rdx,%rax
  403af9:	48 c1 e8 1e          	shr    $0x1e,%rax
  403afd:	48 89 c2             	mov    %rax,%rdx
  403b00:	48 c1 e2 1f          	shl    $0x1f,%rdx
  403b04:	48 29 c2             	sub    %rax,%rdx
  403b07:	49 29 d2             	sub    %rdx,%r10
  403b0a:	49 81 fb fe ff ff 7f 	cmp    $0x7ffffffe,%r11
  403b11:	4c 89 d0             	mov    %r10,%rax
  403b14:	0f 87 40 02 00 00    	ja     403d5a <rmat_edgelist+0xbfa>
  403b1a:	f2 0f 10 3d 66 1f 00 	movsd  0x1f66(%rip),%xmm7        # 405a88 <__PRETTY_FUNCTION__.5645+0x28>
  403b21:	00 
  403b22:	45 31 d2             	xor    %r10d,%r10d
  403b25:	4c 89 a5 68 ff ff ff 	mov    %r12,-0x98(%rbp)
  403b2c:	4c 89 da             	mov    %r11,%rdx
  403b2f:	4d 89 d4             	mov    %r10,%r12
  403b32:	49 89 cb             	mov    %rcx,%r11
  403b35:	f2 0f 11 7d 98       	movsd  %xmm7,-0x68(%rbp)
  403b3a:	eb 55                	jmp    403b91 <rmat_edgelist+0xa31>
  403b3c:	0f 1f 40 00          	nopl   0x0(%rax)
  403b40:	4d 69 dd 66 66 66 06 	imul   $0x6666666,%r13,%r11
  403b47:	49 83 e9 01          	sub    $0x1,%r9
  403b4b:	49 83 c0 10          	add    $0x10,%r8
  403b4f:	4c 89 d8             	mov    %r11,%rax
  403b52:	49 f7 e7             	mul    %r15
  403b55:	4c 89 d8             	mov    %r11,%rax
  403b58:	48 29 d0             	sub    %rdx,%rax
  403b5b:	48 d1 e8             	shr    %rax
  403b5e:	48 01 d0             	add    %rdx,%rax
  403b61:	48 c1 e8 1e          	shr    $0x1e,%rax
  403b65:	48 89 c2             	mov    %rax,%rdx
  403b68:	48 c1 e2 1f          	shl    $0x1f,%rdx
  403b6c:	48 29 c2             	sub    %rax,%rdx
  403b6f:	49 29 d3             	sub    %rdx,%r11
  403b72:	48 81 fe fe ff ff 7f 	cmp    $0x7ffffffe,%rsi
  403b79:	48 89 f2             	mov    %rsi,%rdx
  403b7c:	4c 89 d8             	mov    %r11,%rax
  403b7f:	49 89 fb             	mov    %rdi,%r11
  403b82:	48 89 df             	mov    %rbx,%rdi
  403b85:	0f 87 cf 01 00 00    	ja     403d5a <rmat_edgelist+0xbfa>
  403b8b:	4c 89 f6             	mov    %r14,%rsi
  403b8e:	4d 89 ee             	mov    %r13,%r14
  403b91:	4c 69 ea 20 98 01 00 	imul   $0x19820,%rdx,%r13
  403b98:	66 0f ef c0          	pxor   %xmm0,%xmm0
  403b9c:	4c 89 85 78 ff ff ff 	mov    %r8,-0x88(%rbp)
  403ba3:	4c 89 5d c0          	mov    %r11,-0x40(%rbp)
  403ba7:	48 89 75 b8          	mov    %rsi,-0x48(%rbp)
  403bab:	48 89 7d b0          	mov    %rdi,-0x50(%rbp)
  403baf:	4c 89 75 a8          	mov    %r14,-0x58(%rbp)
  403bb3:	49 01 c5             	add    %rax,%r13
  403bb6:	4c 89 e8             	mov    %r13,%rax
  403bb9:	4c 89 eb             	mov    %r13,%rbx
  403bbc:	49 f7 e7             	mul    %r15
  403bbf:	48 29 d3             	sub    %rdx,%rbx
  403bc2:	48 d1 eb             	shr    %rbx
  403bc5:	48 01 d3             	add    %rdx,%rbx
  403bc8:	48 c1 eb 1e          	shr    $0x1e,%rbx
  403bcc:	48 89 d8             	mov    %rbx,%rax
  403bcf:	48 c1 e0 1f          	shl    $0x1f,%rax
  403bd3:	48 29 d8             	sub    %rbx,%rax
  403bd6:	4c 89 eb             	mov    %r13,%rbx
  403bd9:	48 29 c3             	sub    %rax,%rbx
  403bdc:	4c 69 eb 66 66 66 06 	imul   $0x6666666,%rbx,%r13
  403be3:	f2 48 0f 2a c3       	cvtsi2sd %rbx,%xmm0
  403be8:	48 89 5d a0          	mov    %rbx,-0x60(%rbp)
  403bec:	4c 89 e8             	mov    %r13,%rax
  403bef:	49 f7 e7             	mul    %r15
  403bf2:	4c 89 e8             	mov    %r13,%rax
  403bf5:	48 29 d0             	sub    %rdx,%rax
  403bf8:	48 d1 e8             	shr    %rax
  403bfb:	48 01 c2             	add    %rax,%rdx
  403bfe:	f2 0f 59 45 98       	mulsd  -0x68(%rbp),%xmm0
  403c03:	48 c1 ea 1e          	shr    $0x1e,%rdx
  403c07:	48 89 d0             	mov    %rdx,%rax
  403c0a:	48 c1 e0 1f          	shl    $0x1f,%rax
  403c0e:	48 29 d0             	sub    %rdx,%rax
  403c11:	4c 89 ea             	mov    %r13,%rdx
  403c14:	48 29 c2             	sub    %rax,%rdx
  403c17:	49 81 fb fe ff ff 7f 	cmp    $0x7ffffffe,%r11
  403c1e:	66 0f 28 c8          	movapd %xmm0,%xmm1
  403c22:	0f 87 32 01 00 00    	ja     403d5a <rmat_edgelist+0xbfa>
  403c28:	4d 69 db 20 98 01 00 	imul   $0x19820,%r11,%r11
  403c2f:	66 0f ef c0          	pxor   %xmm0,%xmm0
  403c33:	48 89 75 c0          	mov    %rsi,-0x40(%rbp)
  403c37:	48 89 75 80          	mov    %rsi,-0x80(%rbp)
  403c3b:	48 89 7d b8          	mov    %rdi,-0x48(%rbp)
  403c3f:	48 89 7d 88          	mov    %rdi,-0x78(%rbp)
  403c43:	4c 89 4d 90          	mov    %r9,-0x70(%rbp)
  403c47:	4c 89 75 b0          	mov    %r14,-0x50(%rbp)
  403c4b:	49 01 d3             	add    %rdx,%r11
  403c4e:	48 89 5d a8          	mov    %rbx,-0x58(%rbp)
  403c52:	4c 89 d8             	mov    %r11,%rax
  403c55:	4d 89 dd             	mov    %r11,%r13
  403c58:	49 f7 e7             	mul    %r15
  403c5b:	49 29 d5             	sub    %rdx,%r13
  403c5e:	49 d1 ed             	shr    %r13
  403c61:	49 01 d5             	add    %rdx,%r13
  403c64:	49 c1 ed 1e          	shr    $0x1e,%r13
  403c68:	4c 89 e8             	mov    %r13,%rax
  403c6b:	48 c1 e0 1f          	shl    $0x1f,%rax
  403c6f:	4c 29 e8             	sub    %r13,%rax
  403c72:	49 29 c3             	sub    %rax,%r11
  403c75:	f2 49 0f 2a c3       	cvtsi2sd %r11,%xmm0
  403c7a:	4d 89 dd             	mov    %r11,%r13
  403c7d:	4c 89 5d a0          	mov    %r11,-0x60(%rbp)
  403c81:	f2 0f 59 05 07 1e 00 	mulsd  0x1e07(%rip),%xmm0        # 405a90 <__PRETTY_FUNCTION__.5645+0x30>
  403c88:	00 
  403c89:	f2 0f 58 c1          	addsd  %xmm1,%xmm0
  403c8d:	66 0f ef c9          	pxor   %xmm1,%xmm1
  403c91:	f2 49 0f 2a c9       	cvtsi2sd %r9,%xmm1
  403c96:	f2 0f 59 c1          	mulsd  %xmm1,%xmm0
  403c9a:	e8 91 cf ff ff       	callq  400c30 <floor@plt>
  403c9f:	f2 48 0f 2c c0       	cvttsd2si %xmm0,%rax
  403ca4:	4c 8b 4d 90          	mov    -0x70(%rbp),%r9
  403ca8:	48 8b 7d 88          	mov    -0x78(%rbp),%rdi
  403cac:	48 8b 75 80          	mov    -0x80(%rbp),%rsi
  403cb0:	4c 8b 85 78 ff ff ff 	mov    -0x88(%rbp),%r8
  403cb7:	4c 01 e0             	add    %r12,%rax
  403cba:	4c 39 e0             	cmp    %r12,%rax
  403cbd:	74 21                	je     403ce0 <rmat_edgelist+0xb80>
  403cbf:	48 c1 e0 04          	shl    $0x4,%rax
  403cc3:	48 03 85 30 ff ff ff 	add    -0xd0(%rbp),%rax
  403cca:	f3 41 0f 6f 08       	movdqu (%r8),%xmm1
  403ccf:	4c 8b 18             	mov    (%rax),%r11
  403cd2:	48 8b 50 08          	mov    0x8(%rax),%rdx
  403cd6:	0f 11 08             	movups %xmm1,(%rax)
  403cd9:	4d 89 18             	mov    %r11,(%r8)
  403cdc:	49 89 50 08          	mov    %rdx,0x8(%r8)
  403ce0:	49 83 c4 01          	add    $0x1,%r12
  403ce4:	49 83 f9 01          	cmp    $0x1,%r9
  403ce8:	0f 85 52 fe ff ff    	jne    403b40 <rmat_edgelist+0x9e0>
  403cee:	4c 8b a5 68 ff ff ff 	mov    -0x98(%rbp),%r12
  403cf5:	48 8b 95 70 ff ff ff 	mov    -0x90(%rbp),%rdx
  403cfc:	be 01 00 00 00       	mov    $0x1,%esi
  403d01:	bf 40 34 67 00       	mov    $0x673440,%edi
  403d06:	e8 35 0f 00 00       	callq  404c40 <mrg_skip.constprop.2>
  403d0b:	4c 89 e7             	mov    %r12,%rdi
  403d0e:	e8 dd cd ff ff       	callq  400af0 <free@plt>
  403d13:	48 8d 65 d8          	lea    -0x28(%rbp),%rsp
  403d17:	5b                   	pop    %rbx
  403d18:	41 5c                	pop    %r12
  403d1a:	41 5d                	pop    %r13
  403d1c:	41 5e                	pop    %r14
  403d1e:	41 5f                	pop    %r15
  403d20:	5d                   	pop    %rbp
  403d21:	c3                   	retq   
  403d22:	31 f6                	xor    %esi,%esi
  403d24:	48 85 c0             	test   %rax,%rax
  403d27:	0f 84 a6 fa ff ff    	je     4037d3 <rmat_edgelist+0x673>
  403d2d:	e9 e4 f9 ff ff       	jmpq   403716 <rmat_edgelist+0x5b6>
  403d32:	4c 89 f2             	mov    %r14,%rdx
  403d35:	be 01 00 00 00       	mov    $0x1,%esi
  403d3a:	bf 40 34 67 00       	mov    $0x673440,%edi
  403d3f:	e8 fc 0e 00 00       	callq  404c40 <mrg_skip.constprop.2>
  403d44:	eb af                	jmp    403cf5 <rmat_edgelist+0xb95>
  403d46:	4c 89 5d c0          	mov    %r11,-0x40(%rbp)
  403d4a:	4c 89 7d b8          	mov    %r15,-0x48(%rbp)
  403d4e:	4c 89 75 b0          	mov    %r14,-0x50(%rbp)
  403d52:	48 89 7d a8          	mov    %rdi,-0x58(%rbp)
  403d56:	4c 89 45 a0          	mov    %r8,-0x60(%rbp)
  403d5a:	b9 20 5d 40 00       	mov    $0x405d20,%ecx
  403d5f:	ba 22 00 00 00       	mov    $0x22,%edx
  403d64:	be 28 57 40 00       	mov    $0x405728,%esi
  403d69:	bf c4 50 40 00       	mov    $0x4050c4,%edi
  403d6e:	e8 ed cd ff ff       	callq  400b60 <__assert_fail@plt>
  403d73:	be 08 00 00 00       	mov    $0x8,%esi
  403d78:	e9 51 fa ff ff       	jmpq   4037ce <rmat_edgelist+0x66e>
  403d7d:	be 07 00 00 00       	mov    $0x7,%esi
  403d82:	e9 47 fa ff ff       	jmpq   4037ce <rmat_edgelist+0x66e>
  403d87:	be 06 00 00 00       	mov    $0x6,%esi
  403d8c:	e9 3d fa ff ff       	jmpq   4037ce <rmat_edgelist+0x66e>
  403d91:	be 05 00 00 00       	mov    $0x5,%esi
  403d96:	e9 33 fa ff ff       	jmpq   4037ce <rmat_edgelist+0x66e>
  403d9b:	be 09 00 00 00       	mov    $0x9,%esi
  403da0:	e9 29 fa ff ff       	jmpq   4037ce <rmat_edgelist+0x66e>
  403da5:	be 04 00 00 00       	mov    $0x4,%esi
  403daa:	e9 1f fa ff ff       	jmpq   4037ce <rmat_edgelist+0x66e>
  403daf:	be 03 00 00 00       	mov    $0x3,%esi
  403db4:	e9 15 fa ff ff       	jmpq   4037ce <rmat_edgelist+0x66e>
  403db9:	be 02 00 00 00       	mov    $0x2,%esi
  403dbe:	e9 0b fa ff ff       	jmpq   4037ce <rmat_edgelist+0x66e>
  403dc3:	be 01 00 00 00       	mov    $0x1,%esi
  403dc8:	e9 01 fa ff ff       	jmpq   4037ce <rmat_edgelist+0x66e>
  403dcd:	e8 e9 ce ff ff       	callq  400cbb <mod_mul.part.0.lto_priv.10>
  403dd2:	48 89 4d c0          	mov    %rcx,-0x40(%rbp)
  403dd6:	4c 89 5d b8          	mov    %r11,-0x48(%rbp)
  403dda:	4c 89 7d b0          	mov    %r15,-0x50(%rbp)
  403dde:	4c 89 75 a8          	mov    %r14,-0x58(%rbp)
  403de2:	48 89 7d a0          	mov    %rdi,-0x60(%rbp)
  403de6:	e9 6f ff ff ff       	jmpq   403d5a <rmat_edgelist+0xbfa>
  403deb:	0f 1f 44 00 00       	nopl   0x0(%rax,%rax,1)

0000000000403df0 <statistics>:
  403df0:	41 56                	push   %r14
  403df2:	41 55                	push   %r13
  403df4:	b9 f0 30 40 00       	mov    $0x4030f0,%ecx
  403df9:	41 54                	push   %r12
  403dfb:	55                   	push   %rbp
  403dfc:	48 89 d5             	mov    %rdx,%rbp
  403dff:	53                   	push   %rbx
  403e00:	48 89 f3             	mov    %rsi,%rbx
  403e03:	49 89 fc             	mov    %rdi,%r12
  403e06:	ba 08 00 00 00       	mov    $0x8,%edx
  403e0b:	48 89 ee             	mov    %rbp,%rsi
  403e0e:	48 89 df             	mov    %rbx,%rdi
  403e11:	48 83 ec 20          	sub    $0x20,%rsp
  403e15:	e8 16 cd ff ff       	callq  400b30 <qsort@plt>
  403e1a:	f2 0f 10 03          	movsd  (%rbx),%xmm0
  403e1e:	48 8d 45 01          	lea    0x1(%rbp),%rax
  403e22:	f2 0f 10 0d 8e 1c 00 	movsd  0x1c8e(%rip),%xmm1        # 405ab8 <prng_state+0x18>
  403e29:	00 
  403e2a:	f2 41 0f 11 04 24    	movsd  %xmm0,(%r12)
  403e30:	66 0f ef c0          	pxor   %xmm0,%xmm0
  403e34:	66 0f ef db          	pxor   %xmm3,%xmm3
  403e38:	f2 48 0f 2a c0       	cvtsi2sd %rax,%xmm0
  403e3d:	66 0f 28 d0          	movapd %xmm0,%xmm2
  403e41:	f2 0f 59 d1          	mulsd  %xmm1,%xmm2
  403e45:	f2 0f 2c c2          	cvttsd2si %xmm2,%eax
  403e49:	f2 0f 2a d8          	cvtsi2sd %eax,%xmm3
  403e4d:	48 98                	cltq   
  403e4f:	66 0f 2e d3          	ucomisd %xmm3,%xmm2
  403e53:	7a 06                	jp     403e5b <statistics+0x6b>
  403e55:	0f 84 6c 02 00 00    	je     4040c7 <statistics+0x2d7>
  403e5b:	f2 0f 10 1c c3       	movsd  (%rbx,%rax,8),%xmm3
  403e60:	f2 0f 10 25 58 1c 00 	movsd  0x1c58(%rip),%xmm4        # 405ac0 <prng_state+0x20>
  403e67:	00 
  403e68:	f2 0f 59 d9          	mulsd  %xmm1,%xmm3
  403e6c:	f2 0f 10 6c c3 08    	movsd  0x8(%rbx,%rax,8),%xmm5
  403e72:	f2 0f 59 e9          	mulsd  %xmm1,%xmm5
  403e76:	f2 0f 59 dc          	mulsd  %xmm4,%xmm3
  403e7a:	f2 0f 58 dd          	addsd  %xmm5,%xmm3
  403e7e:	f2 41 0f 11 5c 24 08 	movsd  %xmm3,0x8(%r12)
  403e85:	66 0f ef ed          	pxor   %xmm5,%xmm5
  403e89:	f2 0f 10 1d 37 1c 00 	movsd  0x1c37(%rip),%xmm3        # 405ac8 <prng_state+0x28>
  403e90:	00 
  403e91:	f2 0f 59 c3          	mulsd  %xmm3,%xmm0
  403e95:	f2 0f 2c c0          	cvttsd2si %xmm0,%eax
  403e99:	f2 0f 2a e8          	cvtsi2sd %eax,%xmm5
  403e9d:	48 98                	cltq   
  403e9f:	66 0f 2e c5          	ucomisd %xmm5,%xmm0
  403ea3:	7a 06                	jp     403eab <statistics+0xbb>
  403ea5:	0f 84 2e 02 00 00    	je     4040d9 <statistics+0x2e9>
  403eab:	f2 0f 10 44 c3 08    	movsd  0x8(%rbx,%rax,8),%xmm0
  403eb1:	f2 0f 59 c3          	mulsd  %xmm3,%xmm0
  403eb5:	f2 0f 59 1c c3       	mulsd  (%rbx,%rax,8),%xmm3
  403eba:	f2 0f 58 d8          	addsd  %xmm0,%xmm3
  403ebe:	f2 0f 59 d4          	mulsd  %xmm4,%xmm2
  403ec2:	f2 41 0f 11 5c 24 10 	movsd  %xmm3,0x10(%r12)
  403ec9:	66 0f ef c0          	pxor   %xmm0,%xmm0
  403ecd:	f2 0f 2c c2          	cvttsd2si %xmm2,%eax
  403ed1:	f2 0f 2a c0          	cvtsi2sd %eax,%xmm0
  403ed5:	48 98                	cltq   
  403ed7:	66 0f 2e d0          	ucomisd %xmm0,%xmm2
  403edb:	7a 06                	jp     403ee3 <statistics+0xf3>
  403edd:	0f 84 da 01 00 00    	je     4040bd <statistics+0x2cd>
  403ee3:	f2 0f 10 44 c3 08    	movsd  0x8(%rbx,%rax,8),%xmm0
  403ee9:	f2 0f 59 c1          	mulsd  %xmm1,%xmm0
  403eed:	f2 0f 59 0c c3       	mulsd  (%rbx,%rax,8),%xmm1
  403ef2:	f2 0f 59 e0          	mulsd  %xmm0,%xmm4
  403ef6:	f2 0f 58 cc          	addsd  %xmm4,%xmm1
  403efa:	4c 8d 2c ed 00 00 00 	lea    0x0(,%rbp,8),%r13
  403f01:	00 
  403f02:	f2 41 0f 11 4c 24 18 	movsd  %xmm1,0x18(%r12)
  403f09:	8d 45 ff             	lea    -0x1(%rbp),%eax
  403f0c:	4a 8d 74 2b f8       	lea    -0x8(%rbx,%r13,1),%rsi
  403f11:	85 c0                	test   %eax,%eax
  403f13:	f2 0f 10 06          	movsd  (%rsi),%xmm0
  403f17:	f2 41 0f 11 44 24 20 	movsd  %xmm0,0x20(%r12)
  403f1e:	dd 06                	fldl   (%rsi)
  403f20:	0f 8e 43 02 00 00    	jle    404169 <statistics+0x379>
  403f26:	48 63 d0             	movslq %eax,%rdx
  403f29:	8d 4d fe             	lea    -0x2(%rbp),%ecx
  403f2c:	48 8d 04 d3          	lea    (%rbx,%rdx,8),%rax
  403f30:	48 29 ca             	sub    %rcx,%rdx
  403f33:	48 8d 4c d3 f8       	lea    -0x8(%rbx,%rdx,8),%rcx
  403f38:	48 89 c2             	mov    %rax,%rdx
  403f3b:	0f 1f 44 00 00       	nopl   0x0(%rax,%rax,1)
  403f40:	dc 42 f8             	faddl  -0x8(%rdx)
  403f43:	48 83 ea 08          	sub    $0x8,%rdx
  403f47:	48 39 ca             	cmp    %rcx,%rdx
  403f4a:	75 f4                	jne    403f40 <statistics+0x150>
  403f4c:	48 89 2c 24          	mov    %rbp,(%rsp)
  403f50:	df 2c 24             	fildll (%rsp)
  403f53:	dc f9                	fdivr  %st,%st(1)
  403f55:	d9 c9                	fxch   %st(1)
  403f57:	41 dd 54 24 28       	fstl   0x28(%r12)
  403f5c:	d9 c0                	fld    %st(0)
  403f5e:	dc 2e                	fsubrl (%rsi)
  403f60:	d8 c8                	fmul   %st(0),%st
  403f62:	0f 1f 40 00          	nopl   0x0(%rax)
  403f66:	66 2e 0f 1f 84 00 00 	nopw   %cs:0x0(%rax,%rax,1)
  403f6d:	00 00 00 
  403f70:	d9 c1                	fld    %st(1)
  403f72:	48 83 e8 08          	sub    $0x8,%rax
  403f76:	dc 28                	fsubrl (%rax)
  403f78:	48 39 c8             	cmp    %rcx,%rax
  403f7b:	d8 c8                	fmul   %st(0),%st
  403f7d:	de c1                	faddp  %st,%st(1)
  403f7f:	75 ef                	jne    403f70 <statistics+0x180>
  403f81:	dd d9                	fstp   %st(1)
  403f83:	4c 8d 75 ff          	lea    -0x1(%rbp),%r14
  403f87:	4c 89 34 24          	mov    %r14,(%rsp)
  403f8b:	df 2c 24             	fildll (%rsp)
  403f8e:	de f9                	fdivrp %st,%st(1)
  403f90:	dd 5c 24 18          	fstpl  0x18(%rsp)
  403f94:	f2 0f 10 4c 24 18    	movsd  0x18(%rsp),%xmm1
  403f9a:	f2 0f 51 c1          	sqrtsd %xmm1,%xmm0
  403f9e:	66 0f 2e c0          	ucomisd %xmm0,%xmm0
  403fa2:	0f 8a e5 01 00 00    	jp     40418d <statistics+0x39d>
  403fa8:	f2 41 0f 11 44 24 30 	movsd  %xmm0,0x30(%r12)
  403faf:	66 0f ef c9          	pxor   %xmm1,%xmm1
  403fb3:	f2 0f 10 03          	movsd  (%rbx),%xmm0
  403fb7:	66 0f 2e c1          	ucomisd %xmm1,%xmm0
  403fbb:	0f 8a eb 00 00 00    	jp     4040ac <statistics+0x2bc>
  403fc1:	0f 85 e5 00 00 00    	jne    4040ac <statistics+0x2bc>
  403fc7:	d9 ee                	fldz   
  403fc9:	48 83 fd 01          	cmp    $0x1,%rbp
  403fcd:	0f 8e 10 01 00 00    	jle    4040e3 <statistics+0x2f3>
  403fd3:	d9 e8                	fld1   
  403fd5:	48 8d 43 08          	lea    0x8(%rbx),%rax
  403fd9:	4a 8d 14 2b          	lea    (%rbx,%r13,1),%rdx
  403fdd:	66 0f 28 d1          	movapd %xmm1,%xmm2
  403fe1:	d9 ee                	fldz   
  403fe3:	eb 22                	jmp    404007 <statistics+0x217>
  403fe5:	90                   	nop
  403fe6:	66 2e 0f 1f 84 00 00 	nopw   %cs:0x0(%rax,%rax,1)
  403fed:	00 00 00 
  403ff0:	d9 c1                	fld    %st(1)
  403ff2:	f2 0f 11 04 24       	movsd  %xmm0,(%rsp)
  403ff7:	48 83 c0 08          	add    $0x8,%rax
  403ffb:	48 39 d0             	cmp    %rdx,%rax
  403ffe:	dd 04 24             	fldl   (%rsp)
  404001:	de f9                	fdivrp %st,%st(1)
  404003:	de c3                	faddp  %st,%st(3)
  404005:	74 23                	je     40402a <statistics+0x23a>
  404007:	f2 0f 10 00          	movsd  (%rax),%xmm0
  40400b:	66 0f 2e c1          	ucomisd %xmm1,%xmm0
  40400f:	7a df                	jp     403ff0 <statistics+0x200>
  404011:	66 0f 2e c2          	ucomisd %xmm2,%xmm0
  404015:	75 d9                	jne    403ff0 <statistics+0x200>
  404017:	d9 c0                	fld    %st(0)
  404019:	48 83 c0 08          	add    $0x8,%rax
  40401d:	48 39 d0             	cmp    %rdx,%rax
  404020:	de c3                	faddp  %st,%st(3)
  404022:	75 e3                	jne    404007 <statistics+0x217>
  404024:	dd d8                	fstp   %st(0)
  404026:	dd d8                	fstp   %st(0)
  404028:	eb 04                	jmp    40402e <statistics+0x23e>
  40402a:	dd d8                	fstp   %st(0)
  40402c:	dd d8                	fstp   %st(0)
  40402e:	d9 c1                	fld    %st(1)
  404030:	d8 f1                	fdiv   %st(1),%st
  404032:	41 dd 5c 24 38       	fstpl  0x38(%r12)
  404037:	f2 0f 10 03          	movsd  (%rbx),%xmm0
  40403b:	de f1                	fdivp  %st,%st(1)
  40403d:	66 0f 2e c1          	ucomisd %xmm1,%xmm0
  404041:	7a 06                	jp     404049 <statistics+0x259>
  404043:	0f 84 11 01 00 00    	je     40415a <statistics+0x36a>
  404049:	d9 e8                	fld1   
  40404b:	f2 0f 11 04 24       	movsd  %xmm0,(%rsp)
  404050:	dd 04 24             	fldl   (%rsp)
  404053:	de f9                	fdivrp %st,%st(1)
  404055:	d8 e1                	fsub   %st(1),%st
  404057:	d8 c8                	fmul   %st(0),%st
  404059:	d9 e8                	fld1   
  40405b:	31 c0                	xor    %eax,%eax
  40405d:	66 0f 28 d1          	movapd %xmm1,%xmm2
  404061:	d9 ee                	fldz   
  404063:	eb 31                	jmp    404096 <statistics+0x2a6>
  404065:	90                   	nop
  404066:	66 2e 0f 1f 84 00 00 	nopw   %cs:0x0(%rax,%rax,1)
  40406d:	00 00 00 
  404070:	d9 c1                	fld    %st(1)
  404072:	f2 0f 11 04 24       	movsd  %xmm0,(%rsp)
  404077:	dd 04 24             	fldl   (%rsp)
  40407a:	de f9                	fdivrp %st,%st(1)
  40407c:	d8 e4                	fsub   %st(4),%st
  40407e:	48 8d 50 01          	lea    0x1(%rax),%rdx
  404082:	48 83 c0 02          	add    $0x2,%rax
  404086:	48 39 c5             	cmp    %rax,%rbp
  404089:	d8 c8                	fmul   %st(0),%st
  40408b:	de c3                	faddp  %st,%st(3)
  40408d:	0f 8e 7d 00 00 00    	jle    404110 <statistics+0x320>
  404093:	48 89 d0             	mov    %rdx,%rax
  404096:	f2 0f 10 44 c3 08    	movsd  0x8(%rbx,%rax,8),%xmm0
  40409c:	66 0f 2e c1          	ucomisd %xmm1,%xmm0
  4040a0:	7a ce                	jp     404070 <statistics+0x280>
  4040a2:	66 0f 2e c2          	ucomisd %xmm2,%xmm0
  4040a6:	75 c8                	jne    404070 <statistics+0x280>
  4040a8:	d9 c0                	fld    %st(0)
  4040aa:	eb d0                	jmp    40407c <statistics+0x28c>
  4040ac:	d9 e8                	fld1   
  4040ae:	f2 0f 11 04 24       	movsd  %xmm0,(%rsp)
  4040b3:	dd 04 24             	fldl   (%rsp)
  4040b6:	de f9                	fdivrp %st,%st(1)
  4040b8:	e9 0c ff ff ff       	jmpq   403fc9 <statistics+0x1d9>
  4040bd:	f2 0f 10 0c c3       	movsd  (%rbx,%rax,8),%xmm1
  4040c2:	e9 33 fe ff ff       	jmpq   403efa <statistics+0x10a>
  4040c7:	f2 0f 10 1c c3       	movsd  (%rbx,%rax,8),%xmm3
  4040cc:	f2 0f 10 25 ec 19 00 	movsd  0x19ec(%rip),%xmm4        # 405ac0 <prng_state+0x20>
  4040d3:	00 
  4040d4:	e9 a5 fd ff ff       	jmpq   403e7e <statistics+0x8e>
  4040d9:	f2 0f 10 1c c3       	movsd  (%rbx,%rax,8),%xmm3
  4040de:	e9 db fd ff ff       	jmpq   403ebe <statistics+0xce>
  4040e3:	d9 c1                	fld    %st(1)
  4040e5:	d8 f1                	fdiv   %st(1),%st
  4040e7:	41 dd 5c 24 38       	fstpl  0x38(%r12)
  4040ec:	f2 0f 10 03          	movsd  (%rbx),%xmm0
  4040f0:	66 0f 2e c1          	ucomisd %xmm1,%xmm0
  4040f4:	de f1                	fdivp  %st,%st(1)
  4040f6:	0f 8a a5 00 00 00    	jp     4041a1 <statistics+0x3b1>
  4040fc:	0f 85 9f 00 00 00    	jne    4041a1 <statistics+0x3b1>
  404102:	d8 2d d8 19 00 00    	fsubrs 0x19d8(%rip)        # 405ae0 <prng_state+0x40>
  404108:	d8 c8                	fmul   %st(0),%st
  40410a:	eb 0a                	jmp    404116 <statistics+0x326>
  40410c:	0f 1f 40 00          	nopl   0x0(%rax)
  404110:	dd d8                	fstp   %st(0)
  404112:	dd d8                	fstp   %st(0)
  404114:	dd d9                	fstp   %st(1)
  404116:	dd 5c 24 18          	fstpl  0x18(%rsp)
  40411a:	f2 0f 10 4c 24 18    	movsd  0x18(%rsp),%xmm1
  404120:	f2 0f 51 c1          	sqrtsd %xmm1,%xmm0
  404124:	66 0f 2e c0          	ucomisd %xmm0,%xmm0
  404128:	7a 58                	jp     404182 <statistics+0x392>
  40412a:	66 0f ef c9          	pxor   %xmm1,%xmm1
  40412e:	f2 41 0f 10 54 24 38 	movsd  0x38(%r12),%xmm2
  404135:	f2 49 0f 2a ce       	cvtsi2sd %r14,%xmm1
  40413a:	f2 0f 5e c1          	divsd  %xmm1,%xmm0
  40413e:	f2 0f 59 c2          	mulsd  %xmm2,%xmm0
  404142:	f2 0f 59 c2          	mulsd  %xmm2,%xmm0
  404146:	f2 41 0f 11 44 24 40 	movsd  %xmm0,0x40(%r12)
  40414d:	48 83 c4 20          	add    $0x20,%rsp
  404151:	5b                   	pop    %rbx
  404152:	5d                   	pop    %rbp
  404153:	41 5c                	pop    %r12
  404155:	41 5d                	pop    %r13
  404157:	41 5e                	pop    %r14
  404159:	c3                   	retq   
  40415a:	d9 c0                	fld    %st(0)
  40415c:	d8 2d 7e 19 00 00    	fsubrs 0x197e(%rip)        # 405ae0 <prng_state+0x40>
  404162:	d8 c8                	fmul   %st(0),%st
  404164:	e9 f0 fe ff ff       	jmpq   404059 <statistics+0x269>
  404169:	48 89 2c 24          	mov    %rbp,(%rsp)
  40416d:	df 2c 24             	fildll (%rsp)
  404170:	dc f9                	fdivr  %st,%st(1)
  404172:	d9 c9                	fxch   %st(1)
  404174:	41 dd 54 24 28       	fstl   0x28(%r12)
  404179:	dc 2e                	fsubrl (%rsi)
  40417b:	d8 c8                	fmul   %st(0),%st
  40417d:	e9 01 fe ff ff       	jmpq   403f83 <statistics+0x193>
  404182:	66 0f 28 c1          	movapd %xmm1,%xmm0
  404186:	e8 d5 ca ff ff       	callq  400c60 <sqrt@plt>
  40418b:	eb 9d                	jmp    40412a <statistics+0x33a>
  40418d:	db 3c 24             	fstpt  (%rsp)
  404190:	66 0f 28 c1          	movapd %xmm1,%xmm0
  404194:	e8 c7 ca ff ff       	callq  400c60 <sqrt@plt>
  404199:	db 2c 24             	fldt   (%rsp)
  40419c:	e9 07 fe ff ff       	jmpq   403fa8 <statistics+0x1b8>
  4041a1:	d9 e8                	fld1   
  4041a3:	f2 0f 11 04 24       	movsd  %xmm0,(%rsp)
  4041a8:	dd 04 24             	fldl   (%rsp)
  4041ab:	de f9                	fdivrp %st,%st(1)
  4041ad:	de e1                	fsubp  %st,%st(1)
  4041af:	d8 c8                	fmul   %st(0),%st
  4041b1:	e9 60 ff ff ff       	jmpq   404116 <statistics+0x326>
  4041b6:	66 2e 0f 1f 84 00 00 	nopw   %cs:0x0(%rax,%rax,1)
  4041bd:	00 00 00 

00000000004041c0 <mrg_apply_transition.lto_priv.7>:
  4041c0:	41 57                	push   %r15
  4041c2:	41 56                	push   %r14
  4041c4:	41 55                	push   %r13
  4041c6:	41 54                	push   %r12
  4041c8:	55                   	push   %rbp
  4041c9:	53                   	push   %rbx
  4041ca:	48 83 ec 28          	sub    $0x28,%rsp
  4041ce:	4c 8b 17             	mov    (%rdi),%r10
  4041d1:	4c 8b 5e 20          	mov    0x20(%rsi),%r11
  4041d5:	4c 8b 6f 38          	mov    0x38(%rdi),%r13
  4041d9:	48 8b 5e 18          	mov    0x18(%rsi),%rbx
  4041dd:	4c 8b 4f 30          	mov    0x30(%rdi),%r9
  4041e1:	48 8b 6e 10          	mov    0x10(%rsi),%rbp
  4041e5:	49 81 fa fe ff ff 7f 	cmp    $0x7ffffffe,%r10
  4041ec:	4c 8b 47 28          	mov    0x28(%rdi),%r8
  4041f0:	4c 8b 66 08          	mov    0x8(%rsi),%r12
  4041f4:	0f 87 e8 04 00 00    	ja     4046e2 <mrg_apply_transition.lto_priv.7+0x522>
  4041fa:	49 81 fc fe ff ff 7f 	cmp    $0x7ffffffe,%r12
  404201:	0f 87 0d 05 00 00    	ja     404714 <mrg_apply_transition.lto_priv.7+0x554>
  404207:	49 81 f8 fe ff ff 7f 	cmp    $0x7ffffffe,%r8
  40420e:	0f 87 01 04 00 00    	ja     404615 <mrg_apply_transition.lto_priv.7+0x455>
  404214:	48 81 fd fe ff ff 7f 	cmp    $0x7ffffffe,%rbp
  40421b:	0f 87 76 04 00 00    	ja     404697 <mrg_apply_transition.lto_priv.7+0x4d7>
  404221:	49 81 f9 fe ff ff 7f 	cmp    $0x7ffffffe,%r9
  404228:	0f 87 50 04 00 00    	ja     40467e <mrg_apply_transition.lto_priv.7+0x4be>
  40422e:	48 81 fb fe ff ff 7f 	cmp    $0x7ffffffe,%rbx
  404235:	0f 87 75 04 00 00    	ja     4046b0 <mrg_apply_transition.lto_priv.7+0x4f0>
  40423b:	49 81 fd fe ff ff 7f 	cmp    $0x7ffffffe,%r13
  404242:	0f 87 81 04 00 00    	ja     4046c9 <mrg_apply_transition.lto_priv.7+0x509>
  404248:	49 81 fb fe ff ff 7f 	cmp    $0x7ffffffe,%r11
  40424f:	0f 87 f7 03 00 00    	ja     40464c <mrg_apply_transition.lto_priv.7+0x48c>
  404255:	4d 89 e7             	mov    %r12,%r15
  404258:	48 89 e8             	mov    %rbp,%rax
  40425b:	48 b9 05 00 00 00 02 	movabs $0x200000005,%rcx
  404262:	00 00 00 
  404265:	49 0f af c0          	imul   %r8,%rax
  404269:	49 89 d6             	mov    %rdx,%r14
  40426c:	4d 0f af fa          	imul   %r10,%r15
  404270:	49 01 c7             	add    %rax,%r15
  404273:	4c 89 d8             	mov    %r11,%rax
  404276:	49 0f af c5          	imul   %r13,%rax
  40427a:	4c 01 f8             	add    %r15,%rax
  40427d:	49 89 df             	mov    %rbx,%r15
  404280:	4d 0f af f9          	imul   %r9,%r15
  404284:	49 01 c7             	add    %rax,%r15
  404287:	4c 89 f8             	mov    %r15,%rax
  40428a:	48 f7 e1             	mul    %rcx
  40428d:	4c 89 f9             	mov    %r15,%rcx
  404290:	48 29 d1             	sub    %rdx,%rcx
  404293:	48 d1 e9             	shr    %rcx
  404296:	48 01 d1             	add    %rdx,%rcx
  404299:	48 c1 e9 1e          	shr    $0x1e,%rcx
  40429d:	48 89 c8             	mov    %rcx,%rax
  4042a0:	48 c1 e0 1f          	shl    $0x1f,%rax
  4042a4:	48 29 c8             	sub    %rcx,%rax
  4042a7:	4c 89 f9             	mov    %r15,%rcx
  4042aa:	4c 8b 7f 40          	mov    0x40(%rdi),%r15
  4042ae:	48 29 c1             	sub    %rax,%rcx
  4042b1:	48 8b 06             	mov    (%rsi),%rax
  4042b4:	49 81 ff fe ff ff 7f 	cmp    $0x7ffffffe,%r15
  4042bb:	48 89 04 24          	mov    %rax,(%rsp)
  4042bf:	0f 87 82 03 00 00    	ja     404647 <mrg_apply_transition.lto_priv.7+0x487>
  4042c5:	48 81 3c 24 fe ff ff 	cmpq   $0x7ffffffe,(%rsp)
  4042cc:	7f 
  4042cd:	0f 87 92 03 00 00    	ja     404665 <mrg_apply_transition.lto_priv.7+0x4a5>
  4042d3:	4c 0f af 3c 24       	imul   (%rsp),%r15
  4042d8:	48 be 05 00 00 00 02 	movabs $0x200000005,%rsi
  4042df:	00 00 00 
  4042e2:	48 69 c9 20 98 01 00 	imul   $0x19820,%rcx,%rcx
  4042e9:	4c 89 f8             	mov    %r15,%rax
  4042ec:	48 f7 e6             	mul    %rsi
  4042ef:	4c 89 f8             	mov    %r15,%rax
  4042f2:	48 29 d0             	sub    %rdx,%rax
  4042f5:	48 d1 e8             	shr    %rax
  4042f8:	48 01 c2             	add    %rax,%rdx
  4042fb:	48 c1 ea 1e          	shr    $0x1e,%rdx
  4042ff:	48 89 d0             	mov    %rdx,%rax
  404302:	48 c1 e0 1f          	shl    $0x1f,%rax
  404306:	48 29 d0             	sub    %rdx,%rax
  404309:	49 29 c7             	sub    %rax,%r15
  40430c:	49 01 cf             	add    %rcx,%r15
  40430f:	4c 89 f8             	mov    %r15,%rax
  404312:	48 f7 e6             	mul    %rsi
  404315:	4c 89 f8             	mov    %r15,%rax
  404318:	48 29 d0             	sub    %rdx,%rax
  40431b:	48 d1 e8             	shr    %rax
  40431e:	48 01 c2             	add    %rax,%rdx
  404321:	48 c1 ea 1e          	shr    $0x1e,%rdx
  404325:	48 89 d0             	mov    %rdx,%rax
  404328:	48 c1 e0 1f          	shl    $0x1f,%rax
  40432c:	48 29 d0             	sub    %rdx,%rax
  40432f:	49 29 c7             	sub    %rax,%r15
  404332:	48 89 d8             	mov    %rbx,%rax
  404335:	4c 89 7c 24 10       	mov    %r15,0x10(%rsp)
  40433a:	49 89 ef             	mov    %rbp,%r15
  40433d:	4d 0f af fa          	imul   %r10,%r15
  404341:	49 0f af c0          	imul   %r8,%rax
  404345:	4c 01 f8             	add    %r15,%rax
  404348:	4d 89 df             	mov    %r11,%r15
  40434b:	4d 0f af f9          	imul   %r9,%r15
  40434f:	49 01 c7             	add    %rax,%r15
  404352:	4c 89 f8             	mov    %r15,%rax
  404355:	4c 89 f9             	mov    %r15,%rcx
  404358:	48 f7 e6             	mul    %rsi
  40435b:	48 29 d1             	sub    %rdx,%rcx
  40435e:	48 d1 e9             	shr    %rcx
  404361:	48 01 d1             	add    %rdx,%rcx
  404364:	48 c1 e9 1e          	shr    $0x1e,%rcx
  404368:	48 89 c8             	mov    %rcx,%rax
  40436b:	48 c1 e0 1f          	shl    $0x1f,%rax
  40436f:	48 29 c8             	sub    %rcx,%rax
  404372:	4c 89 f9             	mov    %r15,%rcx
  404375:	4c 8b 7f 20          	mov    0x20(%rdi),%r15
  404379:	48 29 c1             	sub    %rax,%rcx
  40437c:	49 81 ff fe ff ff 7f 	cmp    $0x7ffffffe,%r15
  404383:	0f 87 72 03 00 00    	ja     4046fb <mrg_apply_transition.lto_priv.7+0x53b>
  404389:	4c 0f af 2c 24       	imul   (%rsp),%r13
  40438e:	4c 89 e0             	mov    %r12,%rax
  404391:	49 0f af c7          	imul   %r15,%rax
  404395:	48 69 c9 20 98 01 00 	imul   $0x19820,%rcx,%rcx
  40439c:	49 01 c5             	add    %rax,%r13
  40439f:	4c 89 e8             	mov    %r13,%rax
  4043a2:	48 f7 e6             	mul    %rsi
  4043a5:	4c 89 e8             	mov    %r13,%rax
  4043a8:	48 29 d0             	sub    %rdx,%rax
  4043ab:	48 d1 e8             	shr    %rax
  4043ae:	48 01 c2             	add    %rax,%rdx
  4043b1:	48 c1 ea 1e          	shr    $0x1e,%rdx
  4043b5:	48 89 d0             	mov    %rdx,%rax
  4043b8:	48 c1 e0 1f          	shl    $0x1f,%rax
  4043bc:	48 29 d0             	sub    %rdx,%rax
  4043bf:	49 29 c5             	sub    %rax,%r13
  4043c2:	49 01 cd             	add    %rcx,%r13
  4043c5:	4c 89 e8             	mov    %r13,%rax
  4043c8:	48 f7 e6             	mul    %rsi
  4043cb:	4c 89 e8             	mov    %r13,%rax
  4043ce:	48 29 d0             	sub    %rdx,%rax
  4043d1:	48 d1 e8             	shr    %rax
  4043d4:	48 01 c2             	add    %rax,%rdx
  4043d7:	48 c1 ea 1e          	shr    $0x1e,%rdx
  4043db:	48 89 d0             	mov    %rdx,%rax
  4043de:	48 c1 e0 1f          	shl    $0x1f,%rax
  4043e2:	48 29 d0             	sub    %rdx,%rax
  4043e5:	49 29 c5             	sub    %rax,%r13
  4043e8:	4c 89 d8             	mov    %r11,%rax
  4043eb:	4c 89 6c 24 18       	mov    %r13,0x18(%rsp)
  4043f0:	49 89 dd             	mov    %rbx,%r13
  4043f3:	49 0f af c0          	imul   %r8,%rax
  4043f7:	4d 0f af ea          	imul   %r10,%r13
  4043fb:	49 01 c5             	add    %rax,%r13
  4043fe:	4c 89 e8             	mov    %r13,%rax
  404401:	4c 89 e9             	mov    %r13,%rcx
  404404:	48 f7 e6             	mul    %rsi
  404407:	48 29 d1             	sub    %rdx,%rcx
  40440a:	48 d1 e9             	shr    %rcx
  40440d:	48 01 d1             	add    %rdx,%rcx
  404410:	48 c1 e9 1e          	shr    $0x1e,%rcx
  404414:	48 89 c8             	mov    %rcx,%rax
  404417:	48 c1 e0 1f          	shl    $0x1f,%rax
  40441b:	48 29 c8             	sub    %rcx,%rax
  40441e:	4c 89 e9             	mov    %r13,%rcx
  404421:	48 29 c1             	sub    %rax,%rcx
  404424:	48 8b 47 18          	mov    0x18(%rdi),%rax
  404428:	48 3d fe ff ff 7f    	cmp    $0x7ffffffe,%rax
  40442e:	48 89 44 24 08       	mov    %rax,0x8(%rsp)
  404433:	0f 87 f5 01 00 00    	ja     40462e <mrg_apply_transition.lto_priv.7+0x46e>
  404439:	4c 0f af 0c 24       	imul   (%rsp),%r9
  40443e:	49 0f af c4          	imul   %r12,%rax
  404442:	49 89 ed             	mov    %rbp,%r13
  404445:	4d 0f af ef          	imul   %r15,%r13
  404449:	49 01 c1             	add    %rax,%r9
  40444c:	4d 01 e9             	add    %r13,%r9
  40444f:	4c 89 c8             	mov    %r9,%rax
  404452:	4d 89 cd             	mov    %r9,%r13
  404455:	48 f7 e6             	mul    %rsi
  404458:	49 29 d5             	sub    %rdx,%r13
  40445b:	4c 89 e8             	mov    %r13,%rax
  40445e:	48 d1 e8             	shr    %rax
  404461:	48 01 c2             	add    %rax,%rdx
  404464:	48 c1 ea 1e          	shr    $0x1e,%rdx
  404468:	49 89 d5             	mov    %rdx,%r13
  40446b:	49 c1 e5 1f          	shl    $0x1f,%r13
  40446f:	4c 89 e8             	mov    %r13,%rax
  404472:	48 29 d0             	sub    %rdx,%rax
  404475:	48 69 d1 20 98 01 00 	imul   $0x19820,%rcx,%rdx
  40447c:	49 29 c1             	sub    %rax,%r9
  40447f:	49 8d 0c 11          	lea    (%r9,%rdx,1),%rcx
  404483:	48 89 c8             	mov    %rcx,%rax
  404486:	49 89 cd             	mov    %rcx,%r13
  404489:	48 f7 e6             	mul    %rsi
  40448c:	49 29 d5             	sub    %rdx,%r13
  40448f:	49 d1 ed             	shr    %r13
  404492:	49 01 d5             	add    %rdx,%r13
  404495:	49 c1 ed 1e          	shr    $0x1e,%r13
  404499:	4d 89 e9             	mov    %r13,%r9
  40449c:	49 c1 e1 1f          	shl    $0x1f,%r9
  4044a0:	4c 89 c8             	mov    %r9,%rax
  4044a3:	4d 89 d9             	mov    %r11,%r9
  4044a6:	4d 0f af ca          	imul   %r10,%r9
  4044aa:	4c 29 e8             	sub    %r13,%rax
  4044ad:	48 29 c1             	sub    %rax,%rcx
  4044b0:	49 89 cd             	mov    %rcx,%r13
  4044b3:	4c 89 c8             	mov    %r9,%rax
  4044b6:	4c 89 c9             	mov    %r9,%rcx
  4044b9:	48 f7 e6             	mul    %rsi
  4044bc:	48 29 d1             	sub    %rdx,%rcx
  4044bf:	48 d1 e9             	shr    %rcx
  4044c2:	48 01 d1             	add    %rdx,%rcx
  4044c5:	48 c1 e9 1e          	shr    $0x1e,%rcx
  4044c9:	48 89 ca             	mov    %rcx,%rdx
  4044cc:	48 c1 e2 1f          	shl    $0x1f,%rdx
  4044d0:	48 89 d0             	mov    %rdx,%rax
  4044d3:	48 29 c8             	sub    %rcx,%rax
  4044d6:	4c 89 c9             	mov    %r9,%rcx
  4044d9:	4c 8b 4f 10          	mov    0x10(%rdi),%r9
  4044dd:	48 29 c1             	sub    %rax,%rcx
  4044e0:	49 81 f9 fe ff ff 7f 	cmp    $0x7ffffffe,%r9
  4044e7:	0f 87 28 01 00 00    	ja     404615 <mrg_apply_transition.lto_priv.7+0x455>
  4044ed:	4c 0f af 04 24       	imul   (%rsp),%r8
  4044f2:	4c 89 e0             	mov    %r12,%rax
  4044f5:	49 0f af c1          	imul   %r9,%rax
  4044f9:	48 69 c9 20 98 01 00 	imul   $0x19820,%rcx,%rcx
  404500:	49 01 c0             	add    %rax,%r8
  404503:	48 89 d8             	mov    %rbx,%rax
  404506:	49 0f af c7          	imul   %r15,%rax
  40450a:	49 01 c0             	add    %rax,%r8
  40450d:	48 8b 44 24 08       	mov    0x8(%rsp),%rax
  404512:	48 0f af c5          	imul   %rbp,%rax
  404516:	49 01 c0             	add    %rax,%r8
  404519:	4c 89 c0             	mov    %r8,%rax
  40451c:	48 f7 e6             	mul    %rsi
  40451f:	4c 89 c0             	mov    %r8,%rax
  404522:	48 29 d0             	sub    %rdx,%rax
  404525:	48 d1 e8             	shr    %rax
  404528:	48 01 c2             	add    %rax,%rdx
  40452b:	48 c1 ea 1e          	shr    $0x1e,%rdx
  40452f:	48 89 d0             	mov    %rdx,%rax
  404532:	48 c1 e0 1f          	shl    $0x1f,%rax
  404536:	48 29 d0             	sub    %rdx,%rax
  404539:	49 29 c0             	sub    %rax,%r8
  40453c:	49 01 c8             	add    %rcx,%r8
  40453f:	4c 89 c0             	mov    %r8,%rax
  404542:	4c 89 c1             	mov    %r8,%rcx
  404545:	48 f7 e6             	mul    %rsi
  404548:	48 29 d1             	sub    %rdx,%rcx
  40454b:	48 89 c8             	mov    %rcx,%rax
  40454e:	48 d1 e8             	shr    %rax
  404551:	48 01 c2             	add    %rax,%rdx
  404554:	48 c1 ea 1e          	shr    $0x1e,%rdx
  404558:	48 89 d1             	mov    %rdx,%rcx
  40455b:	48 c1 e1 1f          	shl    $0x1f,%rcx
  40455f:	48 89 c8             	mov    %rcx,%rax
  404562:	48 29 d0             	sub    %rdx,%rax
  404565:	49 29 c0             	sub    %rax,%r8
  404568:	48 8b 47 08          	mov    0x8(%rdi),%rax
  40456c:	48 3d fe ff ff 7f    	cmp    $0x7ffffffe,%rax
  404572:	0f 87 b6 00 00 00    	ja     40462e <mrg_apply_transition.lto_priv.7+0x46e>
  404578:	4c 0f af 14 24       	imul   (%rsp),%r10
  40457d:	4c 0f af e0          	imul   %rax,%r12
  404581:	48 8b 7c 24 10       	mov    0x10(%rsp),%rdi
  404586:	4d 89 6e 10          	mov    %r13,0x10(%r14)
  40458a:	49 0f af e9          	imul   %r9,%rbp
  40458e:	4d 89 46 18          	mov    %r8,0x18(%r14)
  404592:	48 0f af 5c 24 08    	imul   0x8(%rsp),%rbx
  404598:	49 89 3e             	mov    %rdi,(%r14)
  40459b:	48 8b 7c 24 18       	mov    0x18(%rsp),%rdi
  4045a0:	4d 01 e2             	add    %r12,%r10
  4045a3:	49 89 7e 08          	mov    %rdi,0x8(%r14)
  4045a7:	4c 01 d5             	add    %r10,%rbp
  4045aa:	48 89 e8             	mov    %rbp,%rax
  4045ad:	48 89 ef             	mov    %rbp,%rdi
  4045b0:	48 f7 e6             	mul    %rsi
  4045b3:	4d 0f af df          	imul   %r15,%r11
  4045b7:	48 29 d7             	sub    %rdx,%rdi
  4045ba:	48 89 f8             	mov    %rdi,%rax
  4045bd:	49 01 db             	add    %rbx,%r11
  4045c0:	48 d1 e8             	shr    %rax
  4045c3:	48 01 c2             	add    %rax,%rdx
  4045c6:	48 c1 ea 1e          	shr    $0x1e,%rdx
  4045ca:	48 89 d7             	mov    %rdx,%rdi
  4045cd:	48 c1 e7 1f          	shl    $0x1f,%rdi
  4045d1:	48 89 f8             	mov    %rdi,%rax
  4045d4:	48 29 d0             	sub    %rdx,%rax
  4045d7:	48 29 c5             	sub    %rax,%rbp
  4045da:	4a 8d 5c 1d 00       	lea    0x0(%rbp,%r11,1),%rbx
  4045df:	48 89 d8             	mov    %rbx,%rax
  4045e2:	48 f7 e6             	mul    %rsi
  4045e5:	48 89 de             	mov    %rbx,%rsi
  4045e8:	48 29 d6             	sub    %rdx,%rsi
  4045eb:	48 d1 ee             	shr    %rsi
  4045ee:	48 01 f2             	add    %rsi,%rdx
  4045f1:	48 c1 ea 1e          	shr    $0x1e,%rdx
  4045f5:	48 89 d0             	mov    %rdx,%rax
  4045f8:	48 c1 e0 1f          	shl    $0x1f,%rax
  4045fc:	48 29 d0             	sub    %rdx,%rax
  4045ff:	48 29 c3             	sub    %rax,%rbx
  404602:	49 89 5e 20          	mov    %rbx,0x20(%r14)
  404606:	48 83 c4 28          	add    $0x28,%rsp
  40460a:	5b                   	pop    %rbx
  40460b:	5d                   	pop    %rbp
  40460c:	41 5c                	pop    %r12
  40460e:	41 5d                	pop    %r13
  404610:	41 5e                	pop    %r14
  404612:	41 5f                	pop    %r15
  404614:	c3                   	retq   
  404615:	b9 58 5b 40 00       	mov    $0x405b58,%ecx
  40461a:	ba 3f 00 00 00       	mov    $0x3f,%edx
  40461f:	be 28 57 40 00       	mov    $0x405728,%esi
  404624:	bf f4 5a 40 00       	mov    $0x405af4,%edi
  404629:	e8 32 c5 ff ff       	callq  400b60 <__assert_fail@plt>
  40462e:	b9 68 5b 40 00       	mov    $0x405b68,%ecx
  404633:	ba 34 00 00 00       	mov    $0x34,%edx
  404638:	be 28 57 40 00       	mov    $0x405728,%esi
  40463d:	bf f4 5a 40 00       	mov    $0x405af4,%edi
  404642:	e8 19 c5 ff ff       	callq  400b60 <__assert_fail@plt>
  404647:	e8 6f c6 ff ff       	callq  400cbb <mod_mul.part.0.lto_priv.10>
  40464c:	b9 58 5b 40 00       	mov    $0x405b58,%ecx
  404651:	ba 44 00 00 00       	mov    $0x44,%edx
  404656:	be 28 57 40 00       	mov    $0x405728,%esi
  40465b:	bf 44 5b 40 00       	mov    $0x405b44,%edi
  404660:	e8 fb c4 ff ff       	callq  400b60 <__assert_fail@plt>
  404665:	b9 28 5d 40 00       	mov    $0x405d28,%ecx
  40466a:	ba 1c 00 00 00       	mov    $0x1c,%edx
  40466f:	be 28 57 40 00       	mov    $0x405728,%esi
  404674:	bf e4 5a 40 00       	mov    $0x405ae4,%edi
  404679:	e8 e2 c4 ff ff       	callq  400b60 <__assert_fail@plt>
  40467e:	b9 58 5b 40 00       	mov    $0x405b58,%ecx
  404683:	ba 41 00 00 00       	mov    $0x41,%edx
  404688:	be 28 57 40 00       	mov    $0x405728,%esi
  40468d:	bf 14 5b 40 00       	mov    $0x405b14,%edi
  404692:	e8 c9 c4 ff ff       	callq  400b60 <__assert_fail@plt>
  404697:	b9 58 5b 40 00       	mov    $0x405b58,%ecx
  40469c:	ba 40 00 00 00       	mov    $0x40,%edx
  4046a1:	be 28 57 40 00       	mov    $0x405728,%esi
  4046a6:	bf 04 5b 40 00       	mov    $0x405b04,%edi
  4046ab:	e8 b0 c4 ff ff       	callq  400b60 <__assert_fail@plt>
  4046b0:	b9 58 5b 40 00       	mov    $0x405b58,%ecx
  4046b5:	ba 42 00 00 00       	mov    $0x42,%edx
  4046ba:	be 28 57 40 00       	mov    $0x405728,%esi
  4046bf:	bf 24 5b 40 00       	mov    $0x405b24,%edi
  4046c4:	e8 97 c4 ff ff       	callq  400b60 <__assert_fail@plt>
  4046c9:	b9 58 5b 40 00       	mov    $0x405b58,%ecx
  4046ce:	ba 43 00 00 00       	mov    $0x43,%edx
  4046d3:	be 28 57 40 00       	mov    $0x405728,%esi
  4046d8:	bf 34 5b 40 00       	mov    $0x405b34,%edi
  4046dd:	e8 7e c4 ff ff       	callq  400b60 <__assert_fail@plt>
  4046e2:	b9 58 5b 40 00       	mov    $0x405b58,%ecx
  4046e7:	ba 3d 00 00 00       	mov    $0x3d,%edx
  4046ec:	be 28 57 40 00       	mov    $0x405728,%esi
  4046f1:	bf c4 50 40 00       	mov    $0x4050c4,%edi
  4046f6:	e8 65 c4 ff ff       	callq  400b60 <__assert_fail@plt>
  4046fb:	b9 78 5b 40 00       	mov    $0x405b78,%ecx
  404700:	ba 2b 00 00 00       	mov    $0x2b,%edx
  404705:	be 28 57 40 00       	mov    $0x405728,%esi
  40470a:	bf f4 5a 40 00       	mov    $0x405af4,%edi
  40470f:	e8 4c c4 ff ff       	callq  400b60 <__assert_fail@plt>
  404714:	b9 58 5b 40 00       	mov    $0x405b58,%ecx
  404719:	ba 3e 00 00 00       	mov    $0x3e,%edx
  40471e:	be 28 57 40 00       	mov    $0x405728,%esi
  404723:	bf e4 5a 40 00       	mov    $0x405ae4,%edi
  404728:	e8 33 c4 ff ff       	callq  400b60 <__assert_fail@plt>
  40472d:	0f 1f 00             	nopl   (%rax)

0000000000404730 <toc>:
  404730:	48 83 ec 18          	sub    $0x18,%rsp
  404734:	bf 01 00 00 00       	mov    $0x1,%edi
  404739:	48 89 e6             	mov    %rsp,%rsi
  40473c:	e8 0f c4 ff ff       	callq  400b50 <clock_gettime@plt>
  404741:	66 0f ef c0          	pxor   %xmm0,%xmm0
  404745:	66 0f ef c9          	pxor   %xmm1,%xmm1
  404749:	66 0f ef d2          	pxor   %xmm2,%xmm2
  40474d:	f2 48 0f 2a 44 24 08 	cvtsi2sdq 0x8(%rsp),%xmm0
  404754:	f2 48 0f 2a 0d 1b ed 	cvtsi2sdq 0x26ed1b(%rip),%xmm1        # 673478 <tic_ts.lto_priv.16+0x8>
  40475b:	26 00 
  40475d:	f2 0f 5c c1          	subsd  %xmm1,%xmm0
  404761:	f2 0f 10 0d 2f 13 00 	movsd  0x132f(%rip),%xmm1        # 405a98 <__PRETTY_FUNCTION__.5645+0x38>
  404768:	00 
  404769:	f2 48 0f 2a 15 fe ec 	cvtsi2sdq 0x26ecfe(%rip),%xmm2        # 673470 <tic_ts.lto_priv.16>
  404770:	26 00 
  404772:	f2 0f 59 c8          	mulsd  %xmm0,%xmm1
  404776:	66 0f ef c0          	pxor   %xmm0,%xmm0
  40477a:	f2 48 0f 2a 04 24    	cvtsi2sdq (%rsp),%xmm0
  404780:	f2 0f 5c c2          	subsd  %xmm2,%xmm0
  404784:	48 83 c4 18          	add    $0x18,%rsp
  404788:	f2 0f 58 c1          	addsd  %xmm1,%xmm0
  40478c:	c3                   	retq   
  40478d:	0f 1f 00             	nopl   (%rax)

0000000000404790 <xmalloc_large_ext>:
  404790:	53                   	push   %rbx
  404791:	48 89 fb             	mov    %rdi,%rbx
  404794:	e8 47 c4 ff ff       	callq  400be0 <malloc@plt>
  404799:	48 85 c0             	test   %rax,%rax
  40479c:	74 02                	je     4047a0 <xmalloc_large_ext+0x10>
  40479e:	5b                   	pop    %rbx
  40479f:	c3                   	retq   
  4047a0:	48 89 df             	mov    %rbx,%rdi
  4047a3:	e8 d8 c4 ff ff       	callq  400c80 <xmalloc.part.0.lto_priv.11>
  4047a8:	0f 1f 84 00 00 00 00 	nopl   0x0(%rax,%rax,1)
  4047af:	00 

00000000004047b0 <xmalloc_large>:
  4047b0:	53                   	push   %rbx
  4047b1:	48 89 fb             	mov    %rdi,%rbx
  4047b4:	e8 27 c4 ff ff       	callq  400be0 <malloc@plt>
  4047b9:	48 85 c0             	test   %rax,%rax
  4047bc:	74 02                	je     4047c0 <xmalloc_large+0x10>
  4047be:	5b                   	pop    %rbx
  4047bf:	c3                   	retq   
  4047c0:	48 89 df             	mov    %rbx,%rdi
  4047c3:	e8 b8 c4 ff ff       	callq  400c80 <xmalloc.part.0.lto_priv.11>
  4047c8:	0f 1f 84 00 00 00 00 	nopl   0x0(%rax,%rax,1)
  4047cf:	00 

00000000004047d0 <xfree_large>:
  4047d0:	e9 1b c3 ff ff       	jmpq   400af0 <free@plt>
  4047d5:	66 2e 0f 1f 84 00 00 	nopw   %cs:0x0(%rax,%rax,1)
  4047dc:	00 00 00 
  4047df:	90                   	nop

00000000004047e0 <output_results.constprop.5>:
  4047e0:	55                   	push   %rbp
  4047e1:	49 89 d0             	mov    %rdx,%r8
  4047e4:	48 89 e5             	mov    %rsp,%rbp
  4047e7:	41 57                	push   %r15
  4047e9:	41 56                	push   %r14
  4047eb:	41 55                	push   %r13
  4047ed:	4c 63 e9             	movslq %ecx,%r13
  4047f0:	41 54                	push   %r12
  4047f2:	4e 8d 3c ed 00 00 00 	lea    0x0(,%r13,8),%r15
  4047f9:	00 
  4047fa:	53                   	push   %rbx
  4047fb:	89 f9                	mov    %edi,%ecx
  4047fd:	4d 89 ee             	mov    %r13,%r14
  404800:	49 8d 47 1e          	lea    0x1e(%r15),%rax
  404804:	48 83 ec 38          	sub    $0x38,%rsp
  404808:	f2 0f 11 45 a0       	movsd  %xmm0,-0x60(%rbp)
  40480d:	66 0f ef c0          	pxor   %xmm0,%xmm0
  404811:	f2 0f 11 6d c8       	movsd  %xmm5,-0x38(%rbp)
  404816:	48 83 e0 f0          	and    $0xfffffffffffffff0,%rax
  40481a:	f2 0f 11 65 c0       	movsd  %xmm4,-0x40(%rbp)
  40481f:	48 29 c4             	sub    %rax,%rsp
  404822:	48 89 d0             	mov    %rdx,%rax
  404825:	48 89 fa             	mov    %rdi,%rdx
  404828:	48 d3 e0             	shl    %cl,%rax
  40482b:	48 8d 5c 24 0f       	lea    0xf(%rsp),%rbx
  404830:	48 89 f1             	mov    %rsi,%rcx
  404833:	48 c1 e0 04          	shl    $0x4,%rax
  404837:	48 83 ec 60          	sub    $0x60,%rsp
  40483b:	be 88 5b 40 00       	mov    $0x405b88,%esi
  404840:	f2 48 0f 2a c0       	cvtsi2sd %rax,%xmm0
  404845:	bf 01 00 00 00       	mov    $0x1,%edi
  40484a:	b8 01 00 00 00       	mov    $0x1,%eax
  40484f:	f2 0f 11 4d a8       	movsd  %xmm1,-0x58(%rbp)
  404854:	4c 8d 64 24 0f       	lea    0xf(%rsp),%r12
  404859:	f2 0f 11 55 b0       	movsd  %xmm2,-0x50(%rbp)
  40485e:	48 83 e3 f0          	and    $0xfffffffffffffff0,%rbx
  404862:	f2 0f 11 5d b8       	movsd  %xmm3,-0x48(%rbp)
  404867:	49 83 e4 f0          	and    $0xfffffffffffffff0,%r12
  40486b:	f2 0f 5e 05 cd d4 06 	divsd  0x6d4cd(%rip),%xmm0        # 471d40 <mrg_skip_matrices+0x6c000>
  404872:	00 
  404873:	e8 78 c3 ff ff       	callq  400bf0 <__printf_chk@plt>
  404878:	f2 0f 10 75 a0       	movsd  -0x60(%rbp),%xmm6
  40487d:	be c0 5b 40 00       	mov    $0x405bc0,%esi
  404882:	f2 0f 10 5d b8       	movsd  -0x48(%rbp),%xmm3
  404887:	bf 01 00 00 00       	mov    $0x1,%edi
  40488c:	66 0f 28 c6          	movapd %xmm6,%xmm0
  404890:	b8 04 00 00 00       	mov    $0x4,%eax
  404895:	f2 0f 10 55 b0       	movsd  -0x50(%rbp),%xmm2
  40489a:	f2 0f 10 4d a8       	movsd  -0x58(%rbp),%xmm1
  40489f:	e8 4c c3 ff ff       	callq  400bf0 <__printf_chk@plt>
  4048a4:	f2 0f 10 65 c0       	movsd  -0x40(%rbp),%xmm4
  4048a9:	be 20 5c 40 00       	mov    $0x405c20,%esi
  4048ae:	bf 01 00 00 00       	mov    $0x1,%edi
  4048b3:	b8 01 00 00 00       	mov    $0x1,%eax
  4048b8:	66 0f 28 c4          	movapd %xmm4,%xmm0
  4048bc:	e8 2f c3 ff ff       	callq  400bf0 <__printf_chk@plt>
  4048c1:	f2 0f 10 6d c8       	movsd  -0x38(%rbp),%xmm5
  4048c6:	be 3a 5c 40 00       	mov    $0x405c3a,%esi
  4048cb:	bf 01 00 00 00       	mov    $0x1,%edi
  4048d0:	b8 01 00 00 00       	mov    $0x1,%eax
  4048d5:	66 0f 28 c5          	movapd %xmm5,%xmm0
  4048d9:	e8 12 c3 ff ff       	callq  400bf0 <__printf_chk@plt>
  4048de:	44 89 ea             	mov    %r13d,%edx
  4048e1:	be 56 5c 40 00       	mov    $0x405c56,%esi
  4048e6:	bf 01 00 00 00       	mov    $0x1,%edi
  4048eb:	31 c0                	xor    %eax,%eax
  4048ed:	e8 fe c2 ff ff       	callq  400bf0 <__printf_chk@plt>
  4048f2:	4c 89 fa             	mov    %r15,%rdx
  4048f5:	be 80 36 67 00       	mov    $0x673680,%esi
  4048fa:	48 89 df             	mov    %rbx,%rdi
  4048fd:	e8 ce c2 ff ff       	callq  400bd0 <memcpy@plt>
  404902:	4c 89 ea             	mov    %r13,%rdx
  404905:	48 89 de             	mov    %rbx,%rsi
  404908:	4c 89 e7             	mov    %r12,%rdi
  40490b:	e8 e0 f4 ff ff       	callq  403df0 <statistics>
  404910:	f2 41 0f 10 04 24    	movsd  (%r12),%xmm0
  404916:	ba 60 5c 40 00       	mov    $0x405c60,%edx
  40491b:	be 65 5c 40 00       	mov    $0x405c65,%esi
  404920:	bf 01 00 00 00       	mov    $0x1,%edi
  404925:	b8 01 00 00 00       	mov    $0x1,%eax
  40492a:	e8 c1 c2 ff ff       	callq  400bf0 <__printf_chk@plt>
  40492f:	f2 41 0f 10 44 24 08 	movsd  0x8(%r12),%xmm0
  404936:	ba 60 5c 40 00       	mov    $0x405c60,%edx
  40493b:	be 76 5c 40 00       	mov    $0x405c76,%esi
  404940:	bf 01 00 00 00       	mov    $0x1,%edi
  404945:	b8 01 00 00 00       	mov    $0x1,%eax
  40494a:	e8 a1 c2 ff ff       	callq  400bf0 <__printf_chk@plt>
  40494f:	f2 41 0f 10 44 24 10 	movsd  0x10(%r12),%xmm0
  404956:	ba 60 5c 40 00       	mov    $0x405c60,%edx
  40495b:	be 91 5c 40 00       	mov    $0x405c91,%esi
  404960:	bf 01 00 00 00       	mov    $0x1,%edi
  404965:	b8 01 00 00 00       	mov    $0x1,%eax
  40496a:	e8 81 c2 ff ff       	callq  400bf0 <__printf_chk@plt>
  40496f:	f2 41 0f 10 44 24 18 	movsd  0x18(%r12),%xmm0
  404976:	ba 60 5c 40 00       	mov    $0x405c60,%edx
  40497b:	be a5 5c 40 00       	mov    $0x405ca5,%esi
  404980:	bf 01 00 00 00       	mov    $0x1,%edi
  404985:	b8 01 00 00 00       	mov    $0x1,%eax
  40498a:	e8 61 c2 ff ff       	callq  400bf0 <__printf_chk@plt>
  40498f:	f2 41 0f 10 44 24 20 	movsd  0x20(%r12),%xmm0
  404996:	ba 60 5c 40 00       	mov    $0x405c60,%edx
  40499b:	be c0 5c 40 00       	mov    $0x405cc0,%esi
  4049a0:	bf 01 00 00 00       	mov    $0x1,%edi
  4049a5:	b8 01 00 00 00       	mov    $0x1,%eax
  4049aa:	e8 41 c2 ff ff       	callq  400bf0 <__printf_chk@plt>
  4049af:	f2 41 0f 10 44 24 28 	movsd  0x28(%r12),%xmm0
  4049b6:	ba 60 5c 40 00       	mov    $0x405c60,%edx
  4049bb:	be e5 5c 40 00       	mov    $0x405ce5,%esi
  4049c0:	bf 01 00 00 00       	mov    $0x1,%edi
  4049c5:	b8 01 00 00 00       	mov    $0x1,%eax
  4049ca:	e8 21 c2 ff ff       	callq  400bf0 <__printf_chk@plt>
  4049cf:	f2 41 0f 10 44 24 30 	movsd  0x30(%r12),%xmm0
  4049d6:	ba 60 5c 40 00       	mov    $0x405c60,%edx
  4049db:	be 00 5d 40 00       	mov    $0x405d00,%esi
  4049e0:	bf 01 00 00 00       	mov    $0x1,%edi
  4049e5:	b8 01 00 00 00       	mov    $0x1,%eax
  4049ea:	e8 01 c2 ff ff       	callq  400bf0 <__printf_chk@plt>
  4049ef:	31 c0                	xor    %eax,%eax
  4049f1:	45 85 ed             	test   %r13d,%r13d
  4049f4:	7e 26                	jle    404a1c <output_results.constprop.5+0x23c>
  4049f6:	66 2e 0f 1f 84 00 00 	nopw   %cs:0x0(%rax,%rax,1)
  4049fd:	00 00 00 
  404a00:	66 0f ef c0          	pxor   %xmm0,%xmm0
  404a04:	f2 48 0f 2a 04 c5 80 	cvtsi2sdq 0x673480(,%rax,8),%xmm0
  404a0b:	34 67 00 
  404a0e:	f2 0f 11 04 c3       	movsd  %xmm0,(%rbx,%rax,8)
  404a13:	48 83 c0 01          	add    $0x1,%rax
  404a17:	41 39 c6             	cmp    %eax,%r14d
  404a1a:	7f e4                	jg     404a00 <output_results.constprop.5+0x220>
  404a1c:	4c 89 ea             	mov    %r13,%rdx
  404a1f:	48 89 de             	mov    %rbx,%rsi
  404a22:	4c 89 e7             	mov    %r12,%rdi
  404a25:	e8 c6 f3 ff ff       	callq  403df0 <statistics>
  404a2a:	f2 41 0f 10 04 24    	movsd  (%r12),%xmm0
  404a30:	ba d1 5c 40 00       	mov    $0x405cd1,%edx
  404a35:	be 65 5c 40 00       	mov    $0x405c65,%esi
  404a3a:	bf 01 00 00 00       	mov    $0x1,%edi
  404a3f:	b8 01 00 00 00       	mov    $0x1,%eax
  404a44:	e8 a7 c1 ff ff       	callq  400bf0 <__printf_chk@plt>
  404a49:	f2 41 0f 10 44 24 08 	movsd  0x8(%r12),%xmm0
  404a50:	ba d1 5c 40 00       	mov    $0x405cd1,%edx
  404a55:	be 76 5c 40 00       	mov    $0x405c76,%esi
  404a5a:	bf 01 00 00 00       	mov    $0x1,%edi
  404a5f:	b8 01 00 00 00       	mov    $0x1,%eax
  404a64:	e8 87 c1 ff ff       	callq  400bf0 <__printf_chk@plt>
  404a69:	f2 41 0f 10 44 24 10 	movsd  0x10(%r12),%xmm0
  404a70:	ba d1 5c 40 00       	mov    $0x405cd1,%edx
  404a75:	be 91 5c 40 00       	mov    $0x405c91,%esi
  404a7a:	bf 01 00 00 00       	mov    $0x1,%edi
  404a7f:	b8 01 00 00 00       	mov    $0x1,%eax
  404a84:	e8 67 c1 ff ff       	callq  400bf0 <__printf_chk@plt>
  404a89:	f2 41 0f 10 44 24 18 	movsd  0x18(%r12),%xmm0
  404a90:	ba d1 5c 40 00       	mov    $0x405cd1,%edx
  404a95:	be a5 5c 40 00       	mov    $0x405ca5,%esi
  404a9a:	bf 01 00 00 00       	mov    $0x1,%edi
  404a9f:	b8 01 00 00 00       	mov    $0x1,%eax
  404aa4:	e8 47 c1 ff ff       	callq  400bf0 <__printf_chk@plt>
  404aa9:	f2 41 0f 10 44 24 20 	movsd  0x20(%r12),%xmm0
  404ab0:	ba d1 5c 40 00       	mov    $0x405cd1,%edx
  404ab5:	be c0 5c 40 00       	mov    $0x405cc0,%esi
  404aba:	bf 01 00 00 00       	mov    $0x1,%edi
  404abf:	b8 01 00 00 00       	mov    $0x1,%eax
  404ac4:	e8 27 c1 ff ff       	callq  400bf0 <__printf_chk@plt>
  404ac9:	f2 41 0f 10 44 24 28 	movsd  0x28(%r12),%xmm0
  404ad0:	ba d1 5c 40 00       	mov    $0x405cd1,%edx
  404ad5:	be e5 5c 40 00       	mov    $0x405ce5,%esi
  404ada:	bf 01 00 00 00       	mov    $0x1,%edi
  404adf:	b8 01 00 00 00       	mov    $0x1,%eax
  404ae4:	e8 07 c1 ff ff       	callq  400bf0 <__printf_chk@plt>
  404ae9:	f2 41 0f 10 44 24 30 	movsd  0x30(%r12),%xmm0
  404af0:	ba d1 5c 40 00       	mov    $0x405cd1,%edx
  404af5:	be 00 5d 40 00       	mov    $0x405d00,%esi
  404afa:	bf 01 00 00 00       	mov    $0x1,%edi
  404aff:	b8 01 00 00 00       	mov    $0x1,%eax
  404b04:	e8 e7 c0 ff ff       	callq  400bf0 <__printf_chk@plt>
  404b09:	45 85 f6             	test   %r14d,%r14d
  404b0c:	7e 35                	jle    404b43 <output_results.constprop.5+0x363>
  404b0e:	41 8d 46 ff          	lea    -0x1(%r14),%eax
  404b12:	48 8d 14 c5 08 00 00 	lea    0x8(,%rax,8),%rdx
  404b19:	00 
  404b1a:	31 c0                	xor    %eax,%eax
  404b1c:	0f 1f 40 00          	nopl   0x0(%rax)
  404b20:	66 0f ef c0          	pxor   %xmm0,%xmm0
  404b24:	f2 48 0f 2a 80 80 34 	cvtsi2sdq 0x673480(%rax),%xmm0
  404b2b:	67 00 
  404b2d:	f2 0f 5e 80 80 36 67 	divsd  0x673680(%rax),%xmm0
  404b34:	00 
  404b35:	f2 0f 11 04 03       	movsd  %xmm0,(%rbx,%rax,1)
  404b3a:	48 83 c0 08          	add    $0x8,%rax
  404b3e:	48 39 d0             	cmp    %rdx,%rax
  404b41:	75 dd                	jne    404b20 <output_results.constprop.5+0x340>
  404b43:	4c 89 ea             	mov    %r13,%rdx
  404b46:	48 89 de             	mov    %rbx,%rsi
  404b49:	4c 89 e7             	mov    %r12,%rdi
  404b4c:	e8 9f f2 ff ff       	callq  403df0 <statistics>
  404b51:	f2 41 0f 10 04 24    	movsd  (%r12),%xmm0
  404b57:	ba d7 5c 40 00       	mov    $0x405cd7,%edx
  404b5c:	be 65 5c 40 00       	mov    $0x405c65,%esi
  404b61:	bf 01 00 00 00       	mov    $0x1,%edi
  404b66:	b8 01 00 00 00       	mov    $0x1,%eax
  404b6b:	e8 80 c0 ff ff       	callq  400bf0 <__printf_chk@plt>
  404b70:	f2 41 0f 10 44 24 08 	movsd  0x8(%r12),%xmm0
  404b77:	ba d7 5c 40 00       	mov    $0x405cd7,%edx
  404b7c:	be 76 5c 40 00       	mov    $0x405c76,%esi
  404b81:	bf 01 00 00 00       	mov    $0x1,%edi
  404b86:	b8 01 00 00 00       	mov    $0x1,%eax
  404b8b:	e8 60 c0 ff ff       	callq  400bf0 <__printf_chk@plt>
  404b90:	f2 41 0f 10 44 24 10 	movsd  0x10(%r12),%xmm0
  404b97:	ba d7 5c 40 00       	mov    $0x405cd7,%edx
  404b9c:	be 91 5c 40 00       	mov    $0x405c91,%esi
  404ba1:	bf 01 00 00 00       	mov    $0x1,%edi
  404ba6:	b8 01 00 00 00       	mov    $0x1,%eax
  404bab:	e8 40 c0 ff ff       	callq  400bf0 <__printf_chk@plt>
  404bb0:	f2 41 0f 10 44 24 18 	movsd  0x18(%r12),%xmm0
  404bb7:	ba d7 5c 40 00       	mov    $0x405cd7,%edx
  404bbc:	be a5 5c 40 00       	mov    $0x405ca5,%esi
  404bc1:	bf 01 00 00 00       	mov    $0x1,%edi
  404bc6:	b8 01 00 00 00       	mov    $0x1,%eax
  404bcb:	e8 20 c0 ff ff       	callq  400bf0 <__printf_chk@plt>
  404bd0:	f2 41 0f 10 44 24 20 	movsd  0x20(%r12),%xmm0
  404bd7:	ba d7 5c 40 00       	mov    $0x405cd7,%edx
  404bdc:	be c0 5c 40 00       	mov    $0x405cc0,%esi
  404be1:	bf 01 00 00 00       	mov    $0x1,%edi
  404be6:	b8 01 00 00 00       	mov    $0x1,%eax
  404beb:	e8 00 c0 ff ff       	callq  400bf0 <__printf_chk@plt>
  404bf0:	f2 41 0f 10 44 24 38 	movsd  0x38(%r12),%xmm0
  404bf7:	ba d7 5c 40 00       	mov    $0x405cd7,%edx
  404bfc:	be dc 5c 40 00       	mov    $0x405cdc,%esi
  404c01:	bf 01 00 00 00       	mov    $0x1,%edi
  404c06:	b8 01 00 00 00       	mov    $0x1,%eax
  404c0b:	e8 e0 bf ff ff       	callq  400bf0 <__printf_chk@plt>
  404c10:	f2 41 0f 10 44 24 40 	movsd  0x40(%r12),%xmm0
  404c17:	ba d7 5c 40 00       	mov    $0x405cd7,%edx
  404c1c:	be f7 5c 40 00       	mov    $0x405cf7,%esi
  404c21:	bf 01 00 00 00       	mov    $0x1,%edi
  404c26:	b8 01 00 00 00       	mov    $0x1,%eax
  404c2b:	e8 c0 bf ff ff       	callq  400bf0 <__printf_chk@plt>
  404c30:	48 8d 65 d8          	lea    -0x28(%rbp),%rsp
  404c34:	5b                   	pop    %rbx
  404c35:	41 5c                	pop    %r12
  404c37:	41 5d                	pop    %r13
  404c39:	41 5e                	pop    %r14
  404c3b:	41 5f                	pop    %r15
  404c3d:	5d                   	pop    %rbp
  404c3e:	c3                   	retq   
  404c3f:	90                   	nop

0000000000404c40 <mrg_skip.constprop.2>:
  404c40:	41 55                	push   %r13
  404c42:	41 54                	push   %r12
  404c44:	49 89 fd             	mov    %rdi,%r13
  404c47:	55                   	push   %rbp
  404c48:	53                   	push   %rbx
  404c49:	48 89 d5             	mov    %rdx,%rbp
  404c4c:	48 89 f3             	mov    %rsi,%rbx
  404c4f:	41 bc 08 00 00 00    	mov    $0x8,%r12d
  404c55:	48 83 ec 08          	sub    $0x8,%rsp
  404c59:	48 85 d2             	test   %rdx,%rdx
  404c5c:	75 0f                	jne    404c6d <mrg_skip.constprop.2+0x2d>
  404c5e:	eb 45                	jmp    404ca5 <mrg_skip.constprop.2+0x65>
  404c60:	48 c1 ed 08          	shr    $0x8,%rbp
  404c64:	41 83 c4 01          	add    $0x1,%r12d
  404c68:	48 85 ed             	test   %rbp,%rbp
  404c6b:	74 38                	je     404ca5 <mrg_skip.constprop.2+0x65>
  404c6d:	40 84 ed             	test   %bpl,%bpl
  404c70:	74 ee                	je     404c60 <mrg_skip.constprop.2+0x20>
  404c72:	40 0f b6 c5          	movzbl %bpl,%eax
  404c76:	4c 89 ee             	mov    %r13,%rsi
  404c79:	48 c1 ed 08          	shr    $0x8,%rbp
  404c7d:	48 8d 14 c0          	lea    (%rax,%rax,8),%rdx
  404c81:	49 63 c4             	movslq %r12d,%rax
  404c84:	41 83 c4 01          	add    $0x1,%r12d
  404c88:	48 8d 04 c0          	lea    (%rax,%rax,8),%rax
  404c8c:	48 c1 e0 0b          	shl    $0xb,%rax
  404c90:	48 8d bc d0 40 5d 40 	lea    0x405d40(%rax,%rdx,8),%rdi
  404c97:	00 
  404c98:	4c 89 ea             	mov    %r13,%rdx
  404c9b:	e8 20 f5 ff ff       	callq  4041c0 <mrg_apply_transition.lto_priv.7>
  404ca0:	48 85 ed             	test   %rbp,%rbp
  404ca3:	75 c8                	jne    404c6d <mrg_skip.constprop.2+0x2d>
  404ca5:	48 85 db             	test   %rbx,%rbx
  404ca8:	bd 10 00 00 00       	mov    $0x10,%ebp
  404cad:	75 1d                	jne    404ccc <mrg_skip.constprop.2+0x8c>
  404caf:	eb 50                	jmp    404d01 <mrg_skip.constprop.2+0xc1>
  404cb1:	0f 1f 44 00 00       	nopl   0x0(%rax,%rax,1)
  404cb6:	66 2e 0f 1f 84 00 00 	nopw   %cs:0x0(%rax,%rax,1)
  404cbd:	00 00 00 
  404cc0:	48 c1 eb 08          	shr    $0x8,%rbx
  404cc4:	83 c5 01             	add    $0x1,%ebp
  404cc7:	48 85 db             	test   %rbx,%rbx
  404cca:	74 35                	je     404d01 <mrg_skip.constprop.2+0xc1>
  404ccc:	84 db                	test   %bl,%bl
  404cce:	74 f0                	je     404cc0 <mrg_skip.constprop.2+0x80>
  404cd0:	0f b6 c3             	movzbl %bl,%eax
  404cd3:	4c 89 ee             	mov    %r13,%rsi
  404cd6:	48 c1 eb 08          	shr    $0x8,%rbx
  404cda:	48 8d 14 c0          	lea    (%rax,%rax,8),%rdx
  404cde:	48 63 c5             	movslq %ebp,%rax
  404ce1:	83 c5 01             	add    $0x1,%ebp
  404ce4:	48 8d 04 c0          	lea    (%rax,%rax,8),%rax
  404ce8:	48 c1 e0 0b          	shl    $0xb,%rax
  404cec:	48 8d bc d0 40 5d 40 	lea    0x405d40(%rax,%rdx,8),%rdi
  404cf3:	00 
  404cf4:	4c 89 ea             	mov    %r13,%rdx
  404cf7:	e8 c4 f4 ff ff       	callq  4041c0 <mrg_apply_transition.lto_priv.7>
  404cfc:	48 85 db             	test   %rbx,%rbx
  404cff:	75 cb                	jne    404ccc <mrg_skip.constprop.2+0x8c>
  404d01:	48 83 c4 08          	add    $0x8,%rsp
  404d05:	5b                   	pop    %rbx
  404d06:	5d                   	pop    %rbp
  404d07:	41 5c                	pop    %r12
  404d09:	41 5d                	pop    %r13
  404d0b:	c3                   	retq   
  404d0c:	0f 1f 40 00          	nopl   0x0(%rax)

0000000000404d10 <xmalloc>:
  404d10:	53                   	push   %rbx
  404d11:	48 89 fb             	mov    %rdi,%rbx
  404d14:	e8 c7 be ff ff       	callq  400be0 <malloc@plt>
  404d19:	48 85 c0             	test   %rax,%rax
  404d1c:	74 02                	je     404d20 <xmalloc+0x10>
  404d1e:	5b                   	pop    %rbx
  404d1f:	c3                   	retq   
  404d20:	48 89 df             	mov    %rbx,%rdi
  404d23:	e8 58 bf ff ff       	callq  400c80 <xmalloc.part.0.lto_priv.11>
  404d28:	0f 1f 84 00 00 00 00 	nopl   0x0(%rax,%rax,1)
  404d2f:	00 

0000000000404d30 <mrg_orig_step.lto_priv.12>:
  404d30:	48 83 ec 08          	sub    $0x8,%rsp
  404d34:	4c 8b 07             	mov    (%rdi),%r8
  404d37:	48 8b 4f 20          	mov    0x20(%rdi),%rcx
  404d3b:	49 81 f8 fe ff ff 7f 	cmp    $0x7ffffffe,%r8
  404d42:	0f 87 91 00 00 00    	ja     404dd9 <mrg_orig_step.lto_priv.12+0xa9>
  404d48:	4d 69 c8 66 66 66 06 	imul   $0x6666666,%r8,%r9
  404d4f:	48 be 05 00 00 00 02 	movabs $0x200000005,%rsi
  404d56:	00 00 00 
  404d59:	4c 89 c8             	mov    %r9,%rax
  404d5c:	48 f7 e6             	mul    %rsi
  404d5f:	4c 89 c8             	mov    %r9,%rax
  404d62:	48 29 d0             	sub    %rdx,%rax
  404d65:	48 d1 e8             	shr    %rax
  404d68:	48 01 c2             	add    %rax,%rdx
  404d6b:	48 c1 ea 1e          	shr    $0x1e,%rdx
  404d6f:	48 89 d0             	mov    %rdx,%rax
  404d72:	48 c1 e0 1f          	shl    $0x1f,%rax
  404d76:	48 29 d0             	sub    %rdx,%rax
  404d79:	4c 89 ca             	mov    %r9,%rdx
  404d7c:	48 29 c2             	sub    %rax,%rdx
  404d7f:	48 81 f9 fe ff ff 7f 	cmp    $0x7ffffffe,%rcx
  404d86:	77 56                	ja     404dde <mrg_orig_step.lto_priv.12+0xae>
  404d88:	48 8b 47 18          	mov    0x18(%rdi),%rax
  404d8c:	48 69 c9 20 98 01 00 	imul   $0x19820,%rcx,%rcx
  404d93:	48 89 47 20          	mov    %rax,0x20(%rdi)
  404d97:	48 8b 47 10          	mov    0x10(%rdi),%rax
  404d9b:	48 01 d1             	add    %rdx,%rcx
  404d9e:	48 89 47 18          	mov    %rax,0x18(%rdi)
  404da2:	48 8b 47 08          	mov    0x8(%rdi),%rax
  404da6:	4c 89 47 08          	mov    %r8,0x8(%rdi)
  404daa:	48 89 47 10          	mov    %rax,0x10(%rdi)
  404dae:	48 89 c8             	mov    %rcx,%rax
  404db1:	48 f7 e6             	mul    %rsi
  404db4:	48 89 c8             	mov    %rcx,%rax
  404db7:	48 29 d0             	sub    %rdx,%rax
  404dba:	48 d1 e8             	shr    %rax
  404dbd:	48 01 c2             	add    %rax,%rdx
  404dc0:	48 c1 ea 1e          	shr    $0x1e,%rdx
  404dc4:	48 89 d0             	mov    %rdx,%rax
  404dc7:	48 c1 e0 1f          	shl    $0x1f,%rax
  404dcb:	48 29 d0             	sub    %rdx,%rax
  404dce:	48 29 c1             	sub    %rax,%rcx
  404dd1:	48 89 0f             	mov    %rcx,(%rdi)
  404dd4:	48 83 c4 08          	add    $0x8,%rsp
  404dd8:	c3                   	retq   
  404dd9:	e8 dd be ff ff       	callq  400cbb <mod_mul.part.0.lto_priv.10>
  404dde:	b9 20 5d 40 00       	mov    $0x405d20,%ecx
  404de3:	ba 22 00 00 00       	mov    $0x22,%edx
  404de8:	be 28 57 40 00       	mov    $0x405728,%esi
  404ded:	bf c4 50 40 00       	mov    $0x4050c4,%edi
  404df2:	e8 69 bd ff ff       	callq  400b60 <__assert_fail@plt>
  404df7:	66 0f 1f 84 00 00 00 	nopw   0x0(%rax,%rax,1)
  404dfe:	00 00 

0000000000404e00 <__libc_csu_init>:
  404e00:	41 57                	push   %r15
  404e02:	41 56                	push   %r14
  404e04:	41 89 ff             	mov    %edi,%r15d
  404e07:	41 55                	push   %r13
  404e09:	41 54                	push   %r12
  404e0b:	4c 8d 25 ee df 26 00 	lea    0x26dfee(%rip),%r12        # 672e00 <__frame_dummy_init_array_entry>
  404e12:	55                   	push   %rbp
  404e13:	48 8d 2d ee df 26 00 	lea    0x26dfee(%rip),%rbp        # 672e08 <__init_array_end>
  404e1a:	53                   	push   %rbx
  404e1b:	49 89 f6             	mov    %rsi,%r14
  404e1e:	49 89 d5             	mov    %rdx,%r13
  404e21:	4c 29 e5             	sub    %r12,%rbp
  404e24:	48 83 ec 08          	sub    $0x8,%rsp
  404e28:	48 c1 fd 03          	sar    $0x3,%rbp
  404e2c:	e8 7f bc ff ff       	callq  400ab0 <_init>
  404e31:	48 85 ed             	test   %rbp,%rbp
  404e34:	74 20                	je     404e56 <__libc_csu_init+0x56>
  404e36:	31 db                	xor    %ebx,%ebx
  404e38:	0f 1f 84 00 00 00 00 	nopl   0x0(%rax,%rax,1)
  404e3f:	00 
  404e40:	4c 89 ea             	mov    %r13,%rdx
  404e43:	4c 89 f6             	mov    %r14,%rsi
  404e46:	44 89 ff             	mov    %r15d,%edi
  404e49:	41 ff 14 dc          	callq  *(%r12,%rbx,8)
  404e4d:	48 83 c3 01          	add    $0x1,%rbx
  404e51:	48 39 eb             	cmp    %rbp,%rbx
  404e54:	75 ea                	jne    404e40 <__libc_csu_init+0x40>
  404e56:	48 83 c4 08          	add    $0x8,%rsp
  404e5a:	5b                   	pop    %rbx
  404e5b:	5d                   	pop    %rbp
  404e5c:	41 5c                	pop    %r12
  404e5e:	41 5d                	pop    %r13
  404e60:	41 5e                	pop    %r14
  404e62:	41 5f                	pop    %r15
  404e64:	c3                   	retq   
  404e65:	90                   	nop
  404e66:	66 2e 0f 1f 84 00 00 	nopw   %cs:0x0(%rax,%rax,1)
  404e6d:	00 00 00 

0000000000404e70 <__libc_csu_fini>:
  404e70:	f3 c3                	repz retq 

Disassembly of section .fini:

0000000000404e74 <_fini>:
  404e74:	48 83 ec 08          	sub    $0x8,%rsp
  404e78:	48 83 c4 08          	add    $0x8,%rsp
  404e7c:	c3                   	retq   
