
a.out:     file format elf64-x86-64


Disassembly of section .init:

0000000000400610 <_init>:
  400610:	48 83 ec 08          	sub    $0x8,%rsp
  400614:	48 8b 05 dd 39 20 00 	mov    0x2039dd(%rip),%rax        # 603ff8 <_DYNAMIC+0x1e0>
  40061b:	48 85 c0             	test   %rax,%rax
  40061e:	74 05                	je     400625 <_init+0x15>
  400620:	e8 ab 00 00 00       	callq  4006d0 <sqrt@plt+0x10>
  400625:	48 83 c4 08          	add    $0x8,%rsp
  400629:	c3                   	retq   

Disassembly of section .plt:

0000000000400630 <puts@plt-0x10>:
  400630:	ff 35 d2 39 20 00    	pushq  0x2039d2(%rip)        # 604008 <_GLOBAL_OFFSET_TABLE_+0x8>
  400636:	ff 25 d4 39 20 00    	jmpq   *0x2039d4(%rip)        # 604010 <_GLOBAL_OFFSET_TABLE_+0x10>
  40063c:	0f 1f 40 00          	nopl   0x0(%rax)

0000000000400640 <puts@plt>:
  400640:	ff 25 d2 39 20 00    	jmpq   *0x2039d2(%rip)        # 604018 <_GLOBAL_OFFSET_TABLE_+0x18>
  400646:	68 00 00 00 00       	pushq  $0x0
  40064b:	e9 e0 ff ff ff       	jmpq   400630 <_init+0x20>

0000000000400650 <printf@plt>:
  400650:	ff 25 ca 39 20 00    	jmpq   *0x2039ca(%rip)        # 604020 <_GLOBAL_OFFSET_TABLE_+0x20>
  400656:	68 01 00 00 00       	pushq  $0x1
  40065b:	e9 d0 ff ff ff       	jmpq   400630 <_init+0x20>

0000000000400660 <gettimeofday@plt>:
  400660:	ff 25 c2 39 20 00    	jmpq   *0x2039c2(%rip)        # 604028 <_GLOBAL_OFFSET_TABLE_+0x28>
  400666:	68 02 00 00 00       	pushq  $0x2
  40066b:	e9 c0 ff ff ff       	jmpq   400630 <_init+0x20>

0000000000400670 <memset@plt>:
  400670:	ff 25 ba 39 20 00    	jmpq   *0x2039ba(%rip)        # 604030 <_GLOBAL_OFFSET_TABLE_+0x30>
  400676:	68 03 00 00 00       	pushq  $0x3
  40067b:	e9 b0 ff ff ff       	jmpq   400630 <_init+0x20>

0000000000400680 <pow@plt>:
  400680:	ff 25 b2 39 20 00    	jmpq   *0x2039b2(%rip)        # 604038 <_GLOBAL_OFFSET_TABLE_+0x38>
  400686:	68 04 00 00 00       	pushq  $0x4
  40068b:	e9 a0 ff ff ff       	jmpq   400630 <_init+0x20>

0000000000400690 <__libc_start_main@plt>:
  400690:	ff 25 aa 39 20 00    	jmpq   *0x2039aa(%rip)        # 604040 <_GLOBAL_OFFSET_TABLE_+0x40>
  400696:	68 05 00 00 00       	pushq  $0x5
  40069b:	e9 90 ff ff ff       	jmpq   400630 <_init+0x20>

00000000004006a0 <memcpy@plt>:
  4006a0:	ff 25 a2 39 20 00    	jmpq   *0x2039a2(%rip)        # 604048 <_GLOBAL_OFFSET_TABLE_+0x48>
  4006a6:	68 06 00 00 00       	pushq  $0x6
  4006ab:	e9 80 ff ff ff       	jmpq   400630 <_init+0x20>

00000000004006b0 <exit@plt>:
  4006b0:	ff 25 9a 39 20 00    	jmpq   *0x20399a(%rip)        # 604050 <_GLOBAL_OFFSET_TABLE_+0x50>
  4006b6:	68 07 00 00 00       	pushq  $0x7
  4006bb:	e9 70 ff ff ff       	jmpq   400630 <_init+0x20>

00000000004006c0 <sqrt@plt>:
  4006c0:	ff 25 92 39 20 00    	jmpq   *0x203992(%rip)        # 604058 <_GLOBAL_OFFSET_TABLE_+0x58>
  4006c6:	68 08 00 00 00       	pushq  $0x8
  4006cb:	e9 60 ff ff ff       	jmpq   400630 <_init+0x20>

Disassembly of section .plt.got:

00000000004006d0 <.plt.got>:
  4006d0:	ff 25 22 39 20 00    	jmpq   *0x203922(%rip)        # 603ff8 <_DYNAMIC+0x1e0>
  4006d6:	66 90                	xchg   %ax,%ax

Disassembly of section .text:

00000000004006e0 <_start>:
  4006e0:	31 ed                	xor    %ebp,%ebp
  4006e2:	49 89 d1             	mov    %rdx,%r9
  4006e5:	5e                   	pop    %rsi
  4006e6:	48 89 e2             	mov    %rsp,%rdx
  4006e9:	48 83 e4 f0          	and    $0xfffffffffffffff0,%rsp
  4006ed:	50                   	push   %rax
  4006ee:	54                   	push   %rsp
  4006ef:	49 c7 c0 c0 28 40 00 	mov    $0x4028c0,%r8
  4006f6:	48 c7 c1 50 28 40 00 	mov    $0x402850,%rcx
  4006fd:	48 c7 c7 e0 07 40 00 	mov    $0x4007e0,%rdi
  400704:	e8 87 ff ff ff       	callq  400690 <__libc_start_main@plt>
  400709:	f4                   	hlt    
  40070a:	66 0f 1f 44 00 00    	nopw   0x0(%rax,%rax,1)

0000000000400710 <deregister_tm_clones>:
  400710:	b8 7f 40 60 00       	mov    $0x60407f,%eax
  400715:	55                   	push   %rbp
  400716:	48 2d 78 40 60 00    	sub    $0x604078,%rax
  40071c:	48 83 f8 0e          	cmp    $0xe,%rax
  400720:	48 89 e5             	mov    %rsp,%rbp
  400723:	76 1b                	jbe    400740 <deregister_tm_clones+0x30>
  400725:	b8 00 00 00 00       	mov    $0x0,%eax
  40072a:	48 85 c0             	test   %rax,%rax
  40072d:	74 11                	je     400740 <deregister_tm_clones+0x30>
  40072f:	5d                   	pop    %rbp
  400730:	bf 78 40 60 00       	mov    $0x604078,%edi
  400735:	ff e0                	jmpq   *%rax
  400737:	66 0f 1f 84 00 00 00 	nopw   0x0(%rax,%rax,1)
  40073e:	00 00 
  400740:	5d                   	pop    %rbp
  400741:	c3                   	retq   
  400742:	0f 1f 40 00          	nopl   0x0(%rax)
  400746:	66 2e 0f 1f 84 00 00 	nopw   %cs:0x0(%rax,%rax,1)
  40074d:	00 00 00 

0000000000400750 <register_tm_clones>:
  400750:	be 78 40 60 00       	mov    $0x604078,%esi
  400755:	55                   	push   %rbp
  400756:	48 81 ee 78 40 60 00 	sub    $0x604078,%rsi
  40075d:	48 c1 fe 03          	sar    $0x3,%rsi
  400761:	48 89 e5             	mov    %rsp,%rbp
  400764:	48 89 f0             	mov    %rsi,%rax
  400767:	48 c1 e8 3f          	shr    $0x3f,%rax
  40076b:	48 01 c6             	add    %rax,%rsi
  40076e:	48 d1 fe             	sar    %rsi
  400771:	74 15                	je     400788 <register_tm_clones+0x38>
  400773:	b8 00 00 00 00       	mov    $0x0,%eax
  400778:	48 85 c0             	test   %rax,%rax
  40077b:	74 0b                	je     400788 <register_tm_clones+0x38>
  40077d:	5d                   	pop    %rbp
  40077e:	bf 78 40 60 00       	mov    $0x604078,%edi
  400783:	ff e0                	jmpq   *%rax
  400785:	0f 1f 00             	nopl   (%rax)
  400788:	5d                   	pop    %rbp
  400789:	c3                   	retq   
  40078a:	66 0f 1f 44 00 00    	nopw   0x0(%rax,%rax,1)

0000000000400790 <__do_global_dtors_aux>:
  400790:	80 3d e9 38 20 00 00 	cmpb   $0x0,0x2038e9(%rip)        # 604080 <completed.7585>
  400797:	75 11                	jne    4007aa <__do_global_dtors_aux+0x1a>
  400799:	55                   	push   %rbp
  40079a:	48 89 e5             	mov    %rsp,%rbp
  40079d:	e8 6e ff ff ff       	callq  400710 <deregister_tm_clones>
  4007a2:	5d                   	pop    %rbp
  4007a3:	c6 05 d6 38 20 00 01 	movb   $0x1,0x2038d6(%rip)        # 604080 <completed.7585>
  4007aa:	f3 c3                	repz retq 
  4007ac:	0f 1f 40 00          	nopl   0x0(%rax)

00000000004007b0 <frame_dummy>:
  4007b0:	bf 10 3e 60 00       	mov    $0x603e10,%edi
  4007b5:	48 83 3f 00          	cmpq   $0x0,(%rdi)
  4007b9:	75 05                	jne    4007c0 <frame_dummy+0x10>
  4007bb:	eb 93                	jmp    400750 <register_tm_clones>
  4007bd:	0f 1f 00             	nopl   (%rax)
  4007c0:	b8 00 00 00 00       	mov    $0x0,%eax
  4007c5:	48 85 c0             	test   %rax,%rax
  4007c8:	74 f1                	je     4007bb <frame_dummy+0xb>
  4007ca:	55                   	push   %rbp
  4007cb:	48 89 e5             	mov    %rsp,%rbp
  4007ce:	ff d0                	callq  *%rax
  4007d0:	5d                   	pop    %rbp
  4007d1:	e9 7a ff ff ff       	jmpq   400750 <register_tm_clones>
  4007d6:	66 2e 0f 1f 84 00 00 	nopw   %cs:0x0(%rax,%rax,1)
  4007dd:	00 00 00 

00000000004007e0 <main>:
  4007e0:	55                   	push   %rbp
  4007e1:	41 57                	push   %r15
  4007e3:	41 56                	push   %r14
  4007e5:	41 55                	push   %r13
  4007e7:	41 54                	push   %r12
  4007e9:	53                   	push   %rbx
  4007ea:	48 83 ec 68          	sub    $0x68,%rsp
  4007ee:	c6 05 9b 38 20 00 01 	movb   $0x1,0x20389b(%rip)        # 604090 <firstrow>
  4007f5:	c6 05 98 38 20 00 01 	movb   $0x1,0x203898(%rip)        # 604094 <lastrow>
  4007fc:	c6 05 95 38 20 00 01 	movb   $0x1,0x203895(%rip)        # 604098 <firstcol>
  400803:	c6 05 92 38 20 00 01 	movb   $0x1,0x203892(%rip)        # 60409c <lastcol>
  40080a:	bf 60 2a 40 00       	mov    $0x402a60,%edi
  40080f:	e8 2c fe ff ff       	callq  400640 <puts@plt>
  400814:	31 ed                	xor    %ebp,%ebp
  400816:	41 bf f8 24 01 00    	mov    $0x124f8,%r15d
  40081c:	bf 50 29 40 00       	mov    $0x402950,%edi
  400821:	be f8 24 01 00       	mov    $0x124f8,%esi
  400826:	31 c0                	xor    %eax,%eax
  400828:	e8 23 fe ff ff       	callq  400650 <printf@plt>
  40082d:	bf 5d 29 40 00       	mov    $0x40295d,%edi
  400832:	be 4b 00 00 00       	mov    $0x4b,%esi
  400837:	31 c0                	xor    %eax,%eax
  400839:	e8 12 fe ff ff       	callq  400650 <printf@plt>
  40083e:	c6 05 5b 38 20 00 01 	movb   $0x1,0x20385b(%rip)        # 6040a0 <naa>
  400845:	c6 05 58 38 20 00 01 	movb   $0x1,0x203858(%rip)        # 6040a4 <nzz>
  40084c:	48 b8 00 00 00 a1 b0 	movabs $0x41b2b9b0a1000000,%rax
  400853:	b9 b2 41 
  400856:	48 89 05 4b 38 20 00 	mov    %rax,0x20384b(%rip)        # 6040a8 <tran>
  40085d:	48 b8 00 00 40 e5 9c 	movabs $0x41d2309ce5400000,%rax
  400864:	30 d2 41 
  400867:	48 89 05 42 38 20 00 	mov    %rax,0x203842(%rip)        # 6040b0 <amult>
  40086e:	f2 0f 10 05 62 20 00 	movsd  0x2062(%rip),%xmm0        # 4028d8 <_IO_stdin_used+0x8>
  400875:	00 
  400876:	bf a8 40 60 00       	mov    $0x6040a8,%edi
  40087b:	e8 30 1e 00 00       	callq  4026b0 <randlc>
  400880:	8a 05 1a 38 20 00    	mov    0x20381a(%rip),%al        # 6040a0 <naa>
  400886:	88 44 24 0f          	mov    %al,0xf(%rsp)
  40088a:	84 c0                	test   %al,%al
  40088c:	bb 00 00 00 00       	mov    $0x0,%ebx
  400891:	41 0f 45 df          	cmovne %r15d,%ebx
  400895:	8a 05 09 38 20 00    	mov    0x203809(%rip),%al        # 6040a4 <nzz>
  40089b:	84 c0                	test   %al,%al
  40089d:	41 be 68 78 f1 00    	mov    $0xf17868,%r14d
  4008a3:	44 0f 44 f5          	cmove  %ebp,%r14d
  4008a7:	44 0f b6 25 e1 37 20 	movzbl 0x2037e1(%rip),%r12d        # 604090 <firstrow>
  4008ae:	00 
  4008af:	8a 05 df 37 20 00    	mov    0x2037df(%rip),%al        # 604094 <lastrow>
  4008b5:	84 c0                	test   %al,%al
  4008b7:	41 bd 00 00 00 00    	mov    $0x0,%r13d
  4008bd:	45 0f 45 ef          	cmovne %r15d,%r13d
  4008c1:	0f b6 05 d0 37 20 00 	movzbl 0x2037d0(%rip),%eax        # 604098 <firstcol>
  4008c8:	89 44 24 2c          	mov    %eax,0x2c(%rsp)
  4008cc:	8a 05 ca 37 20 00    	mov    0x2037ca(%rip),%al        # 60409c <lastcol>
  4008d2:	84 c0                	test   %al,%al
  4008d4:	44 0f 44 fd          	cmove  %ebp,%r15d
  4008d8:	0f 57 c0             	xorps  %xmm0,%xmm0
  4008db:	f2 0f 2a c3          	cvtsi2sd %ebx,%xmm0
  4008df:	f2 0f 10 0d f9 1f 00 	movsd  0x1ff9(%rip),%xmm1        # 4028e0 <_IO_stdin_used+0x10>
  4008e6:	00 
  4008e7:	f2 0f 5e c8          	divsd  %xmm0,%xmm1
  4008eb:	f2 0f 10 05 f5 1f 00 	movsd  0x1ff5(%rip),%xmm0        # 4028e8 <_IO_stdin_used+0x18>
  4008f2:	00 
  4008f3:	e8 88 fd ff ff       	callq  400680 <pow@plt>
  4008f8:	44 8b 5c 24 2c       	mov    0x2c(%rsp),%r11d
  4008fd:	45 89 f2             	mov    %r14d,%r10d
  400900:	45 89 f9             	mov    %r15d,%r9d
  400903:	f2 0f 11 44 24 58    	movsd  %xmm0,0x58(%rsp)
  400909:	80 7c 24 0f 00       	cmpb   $0x0,0xf(%rsp)
  40090e:	0f 84 c6 04 00 00    	je     400dda <main+0x5fa>
  400914:	89 dd                	mov    %ebx,%ebp
  400916:	48 89 e8             	mov    %rbp,%rax
  400919:	48 83 c8 01          	or     $0x1,%rax
  40091d:	48 8d 3c 85 10 04 ec 	lea    0x7ec0410(,%rax,4),%rdi
  400924:	07 
  400925:	8d 43 ff             	lea    -0x1(%rbx),%eax
  400928:	48 8d 14 85 04 00 00 	lea    0x4(,%rax,4),%rdx
  40092f:	00 
  400930:	45 31 ff             	xor    %r15d,%r15d
  400933:	31 f6                	xor    %esi,%esi
  400935:	44 89 4c 24 4c       	mov    %r9d,0x4c(%rsp)
  40093a:	44 89 54 24 48       	mov    %r10d,0x48(%rsp)
  40093f:	e8 2c fd ff ff       	callq  400670 <memset@plt>
  400944:	4c 8d 34 ad 10 04 ec 	lea    0x7ec0410(,%rbp,4),%r14
  40094b:	07 
  40094c:	b8 01 00 00 00       	mov    $0x1,%eax
  400951:	48 89 44 24 10       	mov    %rax,0x10(%rsp)
  400956:	f2 0f 10 05 82 1f 00 	movsd  0x1f82(%rip),%xmm0        # 4028e0 <_IO_stdin_used+0x10>
  40095d:	00 
  40095e:	66 0f 28 d0          	movapd %xmm0,%xmm2
  400962:	66 66 66 66 66 2e 0f 	data16 data16 data16 data16 nopw %cs:0x0(%rax,%rax,1)
  400969:	1f 84 00 00 00 00 00 
  400970:	f2 0f 11 54 24 60    	movsd  %xmm2,0x60(%rsp)
  400976:	b8 01 00 00 00       	mov    $0x1,%eax
  40097b:	0f 1f 44 00 00       	nopl   0x0(%rax,%rax,1)
  400980:	01 c0                	add    %eax,%eax
  400982:	39 d8                	cmp    %ebx,%eax
  400984:	7c fa                	jl     400980 <main+0x1a0>
  400986:	0f 57 c0             	xorps  %xmm0,%xmm0
  400989:	f2 0f 2a c0          	cvtsi2sd %eax,%xmm0
  40098d:	f2 0f 11 44 24 20    	movsd  %xmm0,0x20(%rsp)
  400993:	31 ed                	xor    %ebp,%ebp
  400995:	66 66 2e 0f 1f 84 00 	data16 nopw %cs:0x0(%rax,%rax,1)
  40099c:	00 00 00 00 
  4009a0:	f2 0f 10 05 08 37 20 	movsd  0x203708(%rip),%xmm0        # 6040b0 <amult>
  4009a7:	00 
  4009a8:	bf a8 40 60 00       	mov    $0x6040a8,%edi
  4009ad:	e8 fe 1c 00 00       	callq  4026b0 <randlc>
  4009b2:	f2 0f 11 44 24 30    	movsd  %xmm0,0x30(%rsp)
  4009b8:	f2 0f 10 05 f0 36 20 	movsd  0x2036f0(%rip),%xmm0        # 6040b0 <amult>
  4009bf:	00 
  4009c0:	bf a8 40 60 00       	mov    $0x6040a8,%edi
  4009c5:	e8 e6 1c 00 00       	callq  4026b0 <randlc>
  4009ca:	f2 0f 59 44 24 20    	mulsd  0x20(%rsp),%xmm0
  4009d0:	f2 0f 2c c8          	cvttsd2si %xmm0,%ecx
  4009d4:	8d 41 01             	lea    0x1(%rcx),%eax
  4009d7:	39 d9                	cmp    %ebx,%ecx
  4009d9:	7d c5                	jge    4009a0 <main+0x1c0>
  4009db:	48 98                	cltq   
  4009dd:	41 83 3c 86 00       	cmpl   $0x0,(%r14,%rax,4)
  4009e2:	75 bc                	jne    4009a0 <main+0x1c0>
  4009e4:	41 c7 04 86 01 00 00 	movl   $0x1,(%r14,%rax,4)
  4009eb:	00 
  4009ec:	89 04 ad 14 04 ec 07 	mov    %eax,0x7ec0414(,%rbp,4)
  4009f3:	f2 0f 10 44 24 30    	movsd  0x30(%rsp),%xmm0
  4009f9:	f2 0f 11 04 ed 68 00 	movsd  %xmm0,0x1ace0068(,%rbp,8)
  400a00:	ce 1a 
  400a02:	89 04 ad 34 28 d7 1a 	mov    %eax,0x1ad72834(,%rbp,4)
  400a09:	48 ff c5             	inc    %rbp
  400a0c:	48 83 fd 0d          	cmp    $0xd,%rbp
  400a10:	75 8e                	jne    4009a0 <main+0x1c0>
  400a12:	48 63 05 fb f9 ab 07 	movslq 0x7abf9fb(%rip),%rax        # 7ec0414 <colidx+0x4>
  400a19:	41 c7 04 86 00 00 00 	movl   $0x0,(%r14,%rax,4)
  400a20:	00 
  400a21:	48 63 05 f0 f9 ab 07 	movslq 0x7abf9f0(%rip),%rax        # 7ec0418 <colidx+0x8>
  400a28:	41 c7 04 86 00 00 00 	movl   $0x0,(%r14,%rax,4)
  400a2f:	00 
  400a30:	48 63 05 e5 f9 ab 07 	movslq 0x7abf9e5(%rip),%rax        # 7ec041c <colidx+0xc>
  400a37:	41 c7 04 86 00 00 00 	movl   $0x0,(%r14,%rax,4)
  400a3e:	00 
  400a3f:	48 63 05 da f9 ab 07 	movslq 0x7abf9da(%rip),%rax        # 7ec0420 <colidx+0x10>
  400a46:	41 c7 04 86 00 00 00 	movl   $0x0,(%r14,%rax,4)
  400a4d:	00 
  400a4e:	48 63 05 cf f9 ab 07 	movslq 0x7abf9cf(%rip),%rax        # 7ec0424 <colidx+0x14>
  400a55:	41 c7 04 86 00 00 00 	movl   $0x0,(%r14,%rax,4)
  400a5c:	00 
  400a5d:	48 63 05 c4 f9 ab 07 	movslq 0x7abf9c4(%rip),%rax        # 7ec0428 <colidx+0x18>
  400a64:	41 c7 04 86 00 00 00 	movl   $0x0,(%r14,%rax,4)
  400a6b:	00 
  400a6c:	48 63 05 b9 f9 ab 07 	movslq 0x7abf9b9(%rip),%rax        # 7ec042c <colidx+0x1c>
  400a73:	41 c7 04 86 00 00 00 	movl   $0x0,(%r14,%rax,4)
  400a7a:	00 
  400a7b:	48 63 05 ae f9 ab 07 	movslq 0x7abf9ae(%rip),%rax        # 7ec0430 <colidx+0x20>
  400a82:	41 c7 04 86 00 00 00 	movl   $0x0,(%r14,%rax,4)
  400a89:	00 
  400a8a:	48 63 05 a3 f9 ab 07 	movslq 0x7abf9a3(%rip),%rax        # 7ec0434 <colidx+0x24>
  400a91:	41 c7 04 86 00 00 00 	movl   $0x0,(%r14,%rax,4)
  400a98:	00 
  400a99:	48 63 05 98 f9 ab 07 	movslq 0x7abf998(%rip),%rax        # 7ec0438 <colidx+0x28>
  400aa0:	41 c7 04 86 00 00 00 	movl   $0x0,(%r14,%rax,4)
  400aa7:	00 
  400aa8:	48 63 05 8d f9 ab 07 	movslq 0x7abf98d(%rip),%rax        # 7ec043c <colidx+0x2c>
  400aaf:	41 c7 04 86 00 00 00 	movl   $0x0,(%r14,%rax,4)
  400ab6:	00 
  400ab7:	48 63 05 82 f9 ab 07 	movslq 0x7abf982(%rip),%rax        # 7ec0440 <colidx+0x30>
  400abe:	41 c7 04 86 00 00 00 	movl   $0x0,(%r14,%rax,4)
  400ac5:	00 
  400ac6:	48 63 05 77 f9 ab 07 	movslq 0x7abf977(%rip),%rax        # 7ec0444 <colidx+0x34>
  400acd:	41 c7 04 86 00 00 00 	movl   $0x0,(%r14,%rax,4)
  400ad4:	00 
  400ad5:	44 8b 05 58 1d 97 1a 	mov    0x1a971d58(%rip),%r8d        # 1ad72834 <iv+0x4>
  400adc:	31 c9                	xor    %ecx,%ecx
  400ade:	48 8b 44 24 10       	mov    0x10(%rsp),%rax
  400ae3:	41 39 c0             	cmp    %eax,%r8d
  400ae6:	75 16                	jne    400afe <main+0x31e>
  400ae8:	48 b8 00 00 00 00 00 	movabs $0x3fe0000000000000,%rax
  400aef:	00 e0 3f 
  400af2:	48 89 05 6f f5 8d 1a 	mov    %rax,0x1a8df56f(%rip)        # 1ace0068 <v+0x8>
  400af9:	b9 01 00 00 00       	mov    $0x1,%ecx
  400afe:	48 8b 35 33 1d 97 1a 	mov    0x1a971d33(%rip),%rsi        # 1ad72838 <iv+0x8>
  400b05:	48 89 f2             	mov    %rsi,%rdx
  400b08:	48 c1 ea 20          	shr    $0x20,%rdx
  400b0c:	48 8b 44 24 10       	mov    0x10(%rsp),%rax
  400b11:	39 c6                	cmp    %eax,%esi
  400b13:	44 8b 4c 24 4c       	mov    0x4c(%rsp),%r9d
  400b18:	44 8b 54 24 48       	mov    0x48(%rsp),%r10d
  400b1d:	44 8b 5c 24 2c       	mov    0x2c(%rsp),%r11d
  400b22:	f2 0f 10 54 24 60    	movsd  0x60(%rsp),%xmm2
  400b28:	75 16                	jne    400b40 <main+0x360>
  400b2a:	48 b8 00 00 00 00 00 	movabs $0x3fe0000000000000,%rax
  400b31:	00 e0 3f 
  400b34:	48 89 05 35 f5 8d 1a 	mov    %rax,0x1a8df535(%rip)        # 1ace0070 <v+0x10>
  400b3b:	b9 01 00 00 00       	mov    $0x1,%ecx
  400b40:	48 8b 44 24 10       	mov    0x10(%rsp),%rax
  400b45:	39 c2                	cmp    %eax,%edx
  400b47:	75 16                	jne    400b5f <main+0x37f>
  400b49:	48 b8 00 00 00 00 00 	movabs $0x3fe0000000000000,%rax
  400b50:	00 e0 3f 
  400b53:	48 89 05 1e f5 8d 1a 	mov    %rax,0x1a8df51e(%rip)        # 1ace0078 <v+0x18>
  400b5a:	b9 01 00 00 00       	mov    $0x1,%ecx
  400b5f:	48 8b 05 da 1c 97 1a 	mov    0x1a971cda(%rip),%rax        # 1ad72840 <iv+0x10>
  400b66:	48 89 c2             	mov    %rax,%rdx
  400b69:	48 c1 ea 20          	shr    $0x20,%rdx
  400b6d:	48 8b 74 24 10       	mov    0x10(%rsp),%rsi
  400b72:	39 f0                	cmp    %esi,%eax
  400b74:	75 16                	jne    400b8c <main+0x3ac>
  400b76:	48 b8 00 00 00 00 00 	movabs $0x3fe0000000000000,%rax
  400b7d:	00 e0 3f 
  400b80:	48 89 05 f9 f4 8d 1a 	mov    %rax,0x1a8df4f9(%rip)        # 1ace0080 <v+0x20>
  400b87:	b9 01 00 00 00       	mov    $0x1,%ecx
  400b8c:	48 8b 44 24 10       	mov    0x10(%rsp),%rax
  400b91:	39 c2                	cmp    %eax,%edx
  400b93:	75 16                	jne    400bab <main+0x3cb>
  400b95:	48 b8 00 00 00 00 00 	movabs $0x3fe0000000000000,%rax
  400b9c:	00 e0 3f 
  400b9f:	48 89 05 e2 f4 8d 1a 	mov    %rax,0x1a8df4e2(%rip)        # 1ace0088 <v+0x28>
  400ba6:	b9 01 00 00 00       	mov    $0x1,%ecx
  400bab:	48 8b 05 96 1c 97 1a 	mov    0x1a971c96(%rip),%rax        # 1ad72848 <iv+0x18>
  400bb2:	48 89 c2             	mov    %rax,%rdx
  400bb5:	48 c1 ea 20          	shr    $0x20,%rdx
  400bb9:	48 8b 74 24 10       	mov    0x10(%rsp),%rsi
  400bbe:	39 f0                	cmp    %esi,%eax
  400bc0:	75 16                	jne    400bd8 <main+0x3f8>
  400bc2:	48 b8 00 00 00 00 00 	movabs $0x3fe0000000000000,%rax
  400bc9:	00 e0 3f 
  400bcc:	48 89 05 bd f4 8d 1a 	mov    %rax,0x1a8df4bd(%rip)        # 1ace0090 <v+0x30>
  400bd3:	b9 01 00 00 00       	mov    $0x1,%ecx
  400bd8:	48 8b 44 24 10       	mov    0x10(%rsp),%rax
  400bdd:	39 c2                	cmp    %eax,%edx
  400bdf:	75 16                	jne    400bf7 <main+0x417>
  400be1:	48 b8 00 00 00 00 00 	movabs $0x3fe0000000000000,%rax
  400be8:	00 e0 3f 
  400beb:	48 89 05 a6 f4 8d 1a 	mov    %rax,0x1a8df4a6(%rip)        # 1ace0098 <v+0x38>
  400bf2:	b9 01 00 00 00       	mov    $0x1,%ecx
  400bf7:	48 8b 05 52 1c 97 1a 	mov    0x1a971c52(%rip),%rax        # 1ad72850 <iv+0x20>
  400bfe:	48 89 c2             	mov    %rax,%rdx
  400c01:	48 c1 ea 20          	shr    $0x20,%rdx
  400c05:	48 8b 74 24 10       	mov    0x10(%rsp),%rsi
  400c0a:	39 f0                	cmp    %esi,%eax
  400c0c:	75 16                	jne    400c24 <main+0x444>
  400c0e:	48 b8 00 00 00 00 00 	movabs $0x3fe0000000000000,%rax
  400c15:	00 e0 3f 
  400c18:	48 89 05 81 f4 8d 1a 	mov    %rax,0x1a8df481(%rip)        # 1ace00a0 <v+0x40>
  400c1f:	b9 01 00 00 00       	mov    $0x1,%ecx
  400c24:	48 8b 44 24 10       	mov    0x10(%rsp),%rax
  400c29:	39 c2                	cmp    %eax,%edx
  400c2b:	75 16                	jne    400c43 <main+0x463>
  400c2d:	48 b8 00 00 00 00 00 	movabs $0x3fe0000000000000,%rax
  400c34:	00 e0 3f 
  400c37:	48 89 05 6a f4 8d 1a 	mov    %rax,0x1a8df46a(%rip)        # 1ace00a8 <v+0x48>
  400c3e:	b9 01 00 00 00       	mov    $0x1,%ecx
  400c43:	48 8b 05 0e 1c 97 1a 	mov    0x1a971c0e(%rip),%rax        # 1ad72858 <iv+0x28>
  400c4a:	48 89 c2             	mov    %rax,%rdx
  400c4d:	48 c1 ea 20          	shr    $0x20,%rdx
  400c51:	48 8b 74 24 10       	mov    0x10(%rsp),%rsi
  400c56:	39 f0                	cmp    %esi,%eax
  400c58:	75 16                	jne    400c70 <main+0x490>
  400c5a:	48 b8 00 00 00 00 00 	movabs $0x3fe0000000000000,%rax
  400c61:	00 e0 3f 
  400c64:	48 89 05 45 f4 8d 1a 	mov    %rax,0x1a8df445(%rip)        # 1ace00b0 <v+0x50>
  400c6b:	b9 01 00 00 00       	mov    $0x1,%ecx
  400c70:	48 8b 44 24 10       	mov    0x10(%rsp),%rax
  400c75:	39 c2                	cmp    %eax,%edx
  400c77:	75 16                	jne    400c8f <main+0x4af>
  400c79:	48 b8 00 00 00 00 00 	movabs $0x3fe0000000000000,%rax
  400c80:	00 e0 3f 
  400c83:	48 89 05 2e f4 8d 1a 	mov    %rax,0x1a8df42e(%rip)        # 1ace00b8 <v+0x58>
  400c8a:	b9 01 00 00 00       	mov    $0x1,%ecx
  400c8f:	48 8b 05 ca 1b 97 1a 	mov    0x1a971bca(%rip),%rax        # 1ad72860 <iv+0x30>
  400c96:	48 89 c2             	mov    %rax,%rdx
  400c99:	48 c1 ea 20          	shr    $0x20,%rdx
  400c9d:	48 8b 74 24 10       	mov    0x10(%rsp),%rsi
  400ca2:	39 f0                	cmp    %esi,%eax
  400ca4:	75 16                	jne    400cbc <main+0x4dc>
  400ca6:	48 b8 00 00 00 00 00 	movabs $0x3fe0000000000000,%rax
  400cad:	00 e0 3f 
  400cb0:	48 89 05 09 f4 8d 1a 	mov    %rax,0x1a8df409(%rip)        # 1ace00c0 <v+0x60>
  400cb7:	b9 01 00 00 00       	mov    $0x1,%ecx
  400cbc:	48 8b 44 24 10       	mov    0x10(%rsp),%rax
  400cc1:	39 c2                	cmp    %eax,%edx
  400cc3:	75 1b                	jne    400ce0 <main+0x500>
  400cc5:	48 b8 00 00 00 00 00 	movabs $0x3fe0000000000000,%rax
  400ccc:	00 e0 3f 
  400ccf:	48 89 05 f2 f3 8d 1a 	mov    %rax,0x1a8df3f2(%rip)        # 1ace00c8 <v+0x68>
  400cd6:	b9 0d 00 00 00       	mov    $0xd,%ecx
  400cdb:	eb 33                	jmp    400d10 <main+0x530>
  400cdd:	0f 1f 00             	nopl   (%rax)
  400ce0:	85 c9                	test   %ecx,%ecx
  400ce2:	b9 0d 00 00 00       	mov    $0xd,%ecx
  400ce7:	75 27                	jne    400d10 <main+0x530>
  400ce9:	48 b8 00 00 00 00 00 	movabs $0x3fe0000000000000,%rax
  400cf0:	00 e0 3f 
  400cf3:	48 89 05 d6 f3 8d 1a 	mov    %rax,0x1a8df3d6(%rip)        # 1ace00d0 <v+0x70>
  400cfa:	48 8b 44 24 10       	mov    0x10(%rsp),%rax
  400cff:	89 05 63 1b 97 1a    	mov    %eax,0x1a971b63(%rip)        # 1ad72868 <iv+0x38>
  400d05:	b9 0e 00 00 00       	mov    $0xe,%ecx
  400d0a:	66 0f 1f 44 00 00    	nopw   0x0(%rax,%rax,1)
  400d10:	ba 01 00 00 00       	mov    $0x1,%edx
  400d15:	eb 17                	jmp    400d2e <main+0x54e>
  400d17:	66 0f 1f 84 00 00 00 	nopw   0x0(%rax,%rax,1)
  400d1e:	00 00 
  400d20:	44 8b 04 95 34 28 d7 	mov    0x1ad72834(,%rdx,4),%r8d
  400d27:	1a 
  400d28:	48 ff c2             	inc    %rdx
  400d2b:	41 89 ef             	mov    %ebp,%r15d
  400d2e:	45 39 d8             	cmp    %r11d,%r8d
  400d31:	7c 7d                	jl     400db0 <main+0x5d0>
  400d33:	45 39 c8             	cmp    %r9d,%r8d
  400d36:	7f 78                	jg     400db0 <main+0x5d0>
  400d38:	f2 0f 10 04 d5 60 00 	movsd  0x1ace0060(,%rdx,8),%xmm0
  400d3f:	ce 1a 
  400d41:	f2 0f 59 c2          	mulsd  %xmm2,%xmm0
  400d45:	31 f6                	xor    %esi,%esi
  400d47:	66 0f 1f 84 00 00 00 	nopw   0x0(%rax,%rax,1)
  400d4e:	00 00 
  400d50:	8b 3c b5 34 28 d7 1a 	mov    0x1ad72834(,%rsi,4),%edi
  400d57:	44 39 e7             	cmp    %r12d,%edi
  400d5a:	7c 44                	jl     400da0 <main+0x5c0>
  400d5c:	44 39 ef             	cmp    %r13d,%edi
  400d5f:	7f 3f                	jg     400da0 <main+0x5c0>
  400d61:	41 8d 6f 01          	lea    0x1(%r15),%ebp
  400d65:	45 39 d7             	cmp    %r10d,%r15d
  400d68:	0f 8d 3d 0e 00 00    	jge    401bab <main+0x13cb>
  400d6e:	48 63 c5             	movslq %ebp,%rax
  400d71:	44 89 04 85 60 5b 7c 	mov    %r8d,0xf7c5b60(,%rax,4)
  400d78:	0f 
  400d79:	89 3c 85 b0 79 b6 0b 	mov    %edi,0xbb679b0(,%rax,4)
  400d80:	f2 0f 10 0c f5 68 00 	movsd  0x1ace0068(,%rsi,8),%xmm1
  400d87:	ce 1a 
  400d89:	f2 0f 59 c8          	mulsd  %xmm0,%xmm1
  400d8d:	f2 0f 11 0c c5 10 3d 	movsd  %xmm1,0x13423d10(,%rax,8)
  400d94:	42 13 
  400d96:	eb 0b                	jmp    400da3 <main+0x5c3>
  400d98:	0f 1f 84 00 00 00 00 	nopl   0x0(%rax,%rax,1)
  400d9f:	00 
  400da0:	44 89 fd             	mov    %r15d,%ebp
  400da3:	48 ff c6             	inc    %rsi
  400da6:	48 39 ce             	cmp    %rcx,%rsi
  400da9:	41 89 ef             	mov    %ebp,%r15d
  400dac:	7c a2                	jl     400d50 <main+0x570>
  400dae:	eb 03                	jmp    400db3 <main+0x5d3>
  400db0:	44 89 fd             	mov    %r15d,%ebp
  400db3:	48 39 ca             	cmp    %rcx,%rdx
  400db6:	0f 8c 64 ff ff ff    	jl     400d20 <main+0x540>
  400dbc:	f2 0f 59 54 24 58    	mulsd  0x58(%rsp),%xmm2
  400dc2:	48 8b 44 24 10       	mov    0x10(%rsp),%rax
  400dc7:	39 d8                	cmp    %ebx,%eax
  400dc9:	8d 40 01             	lea    0x1(%rax),%eax
  400dcc:	41 89 ef             	mov    %ebp,%r15d
  400dcf:	48 89 44 24 10       	mov    %rax,0x10(%rsp)
  400dd4:	0f 8c 96 fb ff ff    	jl     400970 <main+0x190>
  400dda:	45 39 e5             	cmp    %r12d,%r13d
  400ddd:	73 05                	jae    400de4 <main+0x604>
  400ddf:	41 89 e8             	mov    %ebp,%r8d
  400de2:	eb 6a                	jmp    400e4e <main+0x66e>
  400de4:	48 b9 33 33 33 33 33 	movabs $0xc04df33333333333,%rcx
  400deb:	f3 4d c0 
  400dee:	44 89 e0             	mov    %r12d,%eax
  400df1:	66 66 66 66 66 66 2e 	data16 data16 data16 data16 data16 nopw %cs:0x0(%rax,%rax,1)
  400df8:	0f 1f 84 00 00 00 00 
  400dff:	00 
  400e00:	44 39 d8             	cmp    %r11d,%eax
  400e03:	7c 3b                	jl     400e40 <main+0x660>
  400e05:	44 39 c8             	cmp    %r9d,%eax
  400e08:	7f 36                	jg     400e40 <main+0x660>
  400e0a:	44 8d 45 01          	lea    0x1(%rbp),%r8d
  400e0e:	44 39 d5             	cmp    %r10d,%ebp
  400e11:	0f 8d cc 0d 00 00    	jge    401be3 <main+0x1403>
  400e17:	49 63 d0             	movslq %r8d,%rdx
  400e1a:	89 04 95 60 5b 7c 0f 	mov    %eax,0xf7c5b60(,%rdx,4)
  400e21:	89 04 95 b0 79 b6 0b 	mov    %eax,0xbb679b0(,%rdx,4)
  400e28:	48 89 0c d5 10 3d 42 	mov    %rcx,0x13423d10(,%rdx,8)
  400e2f:	13 
  400e30:	eb 11                	jmp    400e43 <main+0x663>
  400e32:	66 66 66 66 66 2e 0f 	data16 data16 data16 data16 nopw %cs:0x0(%rax,%rax,1)
  400e39:	1f 84 00 00 00 00 00 
  400e40:	41 89 e8             	mov    %ebp,%r8d
  400e43:	44 39 e8             	cmp    %r13d,%eax
  400e46:	8d 40 01             	lea    0x1(%rax),%eax
  400e49:	44 89 c5             	mov    %r8d,%ebp
  400e4c:	7c b2                	jl     400e00 <main+0x620>
  400e4e:	41 89 de             	mov    %ebx,%r14d
  400e51:	4d 63 fd             	movslq %r13d,%r15
  400e54:	4d 29 e7             	sub    %r12,%r15
  400e57:	80 7c 24 0f 00       	cmpb   $0x0,0xf(%rsp)
  400e5c:	74 3f                	je     400e9d <main+0x6bd>
  400e5e:	8d 43 ff             	lea    -0x1(%rbx),%eax
  400e61:	48 8d 2c 85 04 00 00 	lea    0x4(,%rax,4),%rbp
  400e68:	00 
  400e69:	bf c4 e5 b1 0b       	mov    $0xbb1e5c4,%edi
  400e6e:	31 f6                	xor    %esi,%esi
  400e70:	48 89 ea             	mov    %rbp,%rdx
  400e73:	4c 89 7c 24 30       	mov    %r15,0x30(%rsp)
  400e78:	4d 89 f7             	mov    %r14,%r15
  400e7b:	4d 89 c6             	mov    %r8,%r14
  400e7e:	e8 ed f7 ff ff       	callq  400670 <memset@plt>
  400e83:	bf 34 28 d7 1a       	mov    $0x1ad72834,%edi
  400e88:	31 f6                	xor    %esi,%esi
  400e8a:	48 89 ea             	mov    %rbp,%rdx
  400e8d:	e8 de f7 ff ff       	callq  400670 <memset@plt>
  400e92:	4d 89 f0             	mov    %r14,%r8
  400e95:	4d 89 fe             	mov    %r15,%r14
  400e98:	4c 8b 7c 24 30       	mov    0x30(%rsp),%r15
  400e9d:	89 d8                	mov    %ebx,%eax
  400e9f:	83 c8 01             	or     $0x1,%eax
  400ea2:	c7 04 85 c0 e5 b1 0b 	movl   $0x0,0xbb1e5c0(,%rax,4)
  400ea9:	00 00 00 00 
  400ead:	45 85 c0             	test   %r8d,%r8d
  400eb0:	7e 73                	jle    400f25 <main+0x745>
  400eb2:	b8 02 00 00 00       	mov    $0x2,%eax
  400eb7:	44 29 e0             	sub    %r12d,%eax
  400eba:	44 89 c1             	mov    %r8d,%ecx
  400ebd:	83 e1 01             	and    $0x1,%ecx
  400ec0:	ba 01 00 00 00       	mov    $0x1,%edx
  400ec5:	41 83 f8 01          	cmp    $0x1,%r8d
  400ec9:	74 46                	je     400f11 <main+0x731>
  400ecb:	44 89 c6             	mov    %r8d,%esi
  400ece:	29 ce                	sub    %ecx,%esi
  400ed0:	31 d2                	xor    %edx,%edx
  400ed2:	66 66 66 66 66 2e 0f 	data16 data16 data16 data16 nopw %cs:0x0(%rax,%rax,1)
  400ed9:	1f 84 00 00 00 00 00 
  400ee0:	8b 3c 95 b4 79 b6 0b 	mov    0xbb679b4(,%rdx,4),%edi
  400ee7:	01 c7                	add    %eax,%edi
  400ee9:	48 63 ff             	movslq %edi,%rdi
  400eec:	ff 04 bd c0 e5 b1 0b 	incl   0xbb1e5c0(,%rdi,4)
  400ef3:	8b 3c 95 b8 79 b6 0b 	mov    0xbb679b8(,%rdx,4),%edi
  400efa:	01 c7                	add    %eax,%edi
  400efc:	48 63 ff             	movslq %edi,%rdi
  400eff:	ff 04 bd c0 e5 b1 0b 	incl   0xbb1e5c0(,%rdi,4)
  400f06:	48 83 c2 02          	add    $0x2,%rdx
  400f0a:	39 d6                	cmp    %edx,%esi
  400f0c:	75 d2                	jne    400ee0 <main+0x700>
  400f0e:	48 ff c2             	inc    %rdx
  400f11:	85 c9                	test   %ecx,%ecx
  400f13:	74 10                	je     400f25 <main+0x745>
  400f15:	03 04 95 b0 79 b6 0b 	add    0xbb679b0(,%rdx,4),%eax
  400f1c:	48 98                	cltq   
  400f1e:	ff 04 85 c0 e5 b1 0b 	incl   0xbb1e5c0(,%rax,4)
  400f25:	c7 05 95 d6 71 0b 01 	movl   $0x1,0xb71d695(%rip)        # bb1e5c4 <rowstr+0x4>
  400f2c:	00 00 00 
  400f2f:	45 85 ff             	test   %r15d,%r15d
  400f32:	78 32                	js     400f66 <main+0x786>
  400f34:	4c 89 f8             	mov    %r15,%rax
  400f37:	48 83 c0 02          	add    $0x2,%rax
  400f3b:	b9 01 00 00 00       	mov    $0x1,%ecx
  400f40:	ba 01 00 00 00       	mov    $0x1,%edx
  400f45:	66 66 2e 0f 1f 84 00 	data16 nopw %cs:0x0(%rax,%rax,1)
  400f4c:	00 00 00 00 
  400f50:	03 0c 95 c4 e5 b1 0b 	add    0xbb1e5c4(,%rdx,4),%ecx
  400f57:	89 0c 95 c4 e5 b1 0b 	mov    %ecx,0xbb1e5c4(,%rdx,4)
  400f5e:	48 ff c2             	inc    %rdx
  400f61:	48 39 c2             	cmp    %rax,%rdx
  400f64:	7c ea                	jl     400f50 <main+0x770>
  400f66:	45 85 c0             	test   %r8d,%r8d
  400f69:	0f 8e e6 00 00 00    	jle    401055 <main+0x875>
  400f6f:	44 89 e0             	mov    %r12d,%eax
  400f72:	83 f0 01             	xor    $0x1,%eax
  400f75:	44 89 c2             	mov    %r8d,%edx
  400f78:	83 e2 01             	and    $0x1,%edx
  400f7b:	b9 01 00 00 00       	mov    $0x1,%ecx
  400f80:	41 83 f8 01          	cmp    $0x1,%r8d
  400f84:	0f 84 8e 00 00 00    	je     401018 <main+0x838>
  400f8a:	41 29 d0             	sub    %edx,%r8d
  400f8d:	31 c9                	xor    %ecx,%ecx
  400f8f:	90                   	nop
  400f90:	8b 34 8d b4 79 b6 0b 	mov    0xbb679b4(,%rcx,4),%esi
  400f97:	01 c6                	add    %eax,%esi
  400f99:	48 63 f6             	movslq %esi,%rsi
  400f9c:	48 63 3c b5 c0 e5 b1 	movslq 0xbb1e5c0(,%rsi,4),%rdi
  400fa3:	0b 
  400fa4:	48 8b 2c cd 18 3d 42 	mov    0x13423d18(,%rcx,8),%rbp
  400fab:	13 
  400fac:	48 89 2c fd c0 40 60 	mov    %rbp,0x6040c0(,%rdi,8)
  400fb3:	00 
  400fb4:	8b 2c 8d 64 5b 7c 0f 	mov    0xf7c5b64(,%rcx,4),%ebp
  400fbb:	89 2c bd 10 04 ec 07 	mov    %ebp,0x7ec0410(,%rdi,4)
  400fc2:	8d 7f 01             	lea    0x1(%rdi),%edi
  400fc5:	89 3c b5 c0 e5 b1 0b 	mov    %edi,0xbb1e5c0(,%rsi,4)
  400fcc:	8b 34 8d b8 79 b6 0b 	mov    0xbb679b8(,%rcx,4),%esi
  400fd3:	01 c6                	add    %eax,%esi
  400fd5:	48 63 f6             	movslq %esi,%rsi
  400fd8:	48 63 3c b5 c0 e5 b1 	movslq 0xbb1e5c0(,%rsi,4),%rdi
  400fdf:	0b 
  400fe0:	48 8b 2c cd 20 3d 42 	mov    0x13423d20(,%rcx,8),%rbp
  400fe7:	13 
  400fe8:	48 89 2c fd c0 40 60 	mov    %rbp,0x6040c0(,%rdi,8)
  400fef:	00 
  400ff0:	8b 2c 8d 68 5b 7c 0f 	mov    0xf7c5b68(,%rcx,4),%ebp
  400ff7:	89 2c bd 10 04 ec 07 	mov    %ebp,0x7ec0410(,%rdi,4)
  400ffe:	8d 7f 01             	lea    0x1(%rdi),%edi
  401001:	89 3c b5 c0 e5 b1 0b 	mov    %edi,0xbb1e5c0(,%rsi,4)
  401008:	48 83 c1 02          	add    $0x2,%rcx
  40100c:	41 39 c8             	cmp    %ecx,%r8d
  40100f:	0f 85 7b ff ff ff    	jne    400f90 <main+0x7b0>
  401015:	48 ff c1             	inc    %rcx
  401018:	85 d2                	test   %edx,%edx
  40101a:	74 39                	je     401055 <main+0x875>
  40101c:	03 04 8d b0 79 b6 0b 	add    0xbb679b0(,%rcx,4),%eax
  401023:	48 98                	cltq   
  401025:	48 63 14 85 c0 e5 b1 	movslq 0xbb1e5c0(,%rax,4),%rdx
  40102c:	0b 
  40102d:	48 8b 34 cd 10 3d 42 	mov    0x13423d10(,%rcx,8),%rsi
  401034:	13 
  401035:	48 89 34 d5 c0 40 60 	mov    %rsi,0x6040c0(,%rdx,8)
  40103c:	00 
  40103d:	8b 0c 8d 60 5b 7c 0f 	mov    0xf7c5b60(,%rcx,4),%ecx
  401044:	89 0c 95 10 04 ec 07 	mov    %ecx,0x7ec0410(,%rdx,4)
  40104b:	8d 4a 01             	lea    0x1(%rdx),%ecx
  40104e:	89 0c 85 c0 e5 b1 0b 	mov    %ecx,0xbb1e5c0(,%rax,4)
  401055:	45 85 ff             	test   %r15d,%r15d
  401058:	78 3c                	js     401096 <main+0x8b6>
  40105a:	41 8d 47 01          	lea    0x1(%r15),%eax
  40105e:	48 98                	cltq   
  401060:	48 ff c0             	inc    %rax
  401063:	41 8d 4d 02          	lea    0x2(%r13),%ecx
  401067:	44 29 e1             	sub    %r12d,%ecx
  40106a:	48 63 c9             	movslq %ecx,%rcx
  40106d:	48 8d 0c 8d c0 e5 b1 	lea    0xbb1e5c0(,%rcx,4),%rcx
  401074:	0b 
  401075:	66 66 2e 0f 1f 84 00 	data16 nopw %cs:0x0(%rax,%rax,1)
  40107c:	00 00 00 00 
  401080:	8b 14 85 bc e5 b1 0b 	mov    0xbb1e5bc(,%rax,4),%edx
  401087:	89 11                	mov    %edx,(%rcx)
  401089:	48 ff c8             	dec    %rax
  40108c:	48 83 c1 fc          	add    $0xfffffffffffffffc,%rcx
  401090:	48 83 f8 01          	cmp    $0x1,%rax
  401094:	7f ea                	jg     401080 <main+0x8a0>
  401096:	c7 05 24 d5 71 0b 01 	movl   $0x1,0xb71d524(%rip)        # bb1e5c4 <rowstr+0x4>
  40109d:	00 00 00 
  4010a0:	80 7c 24 0f 00       	cmpb   $0x0,0xf(%rsp)
  4010a5:	74 2a                	je     4010d1 <main+0x8f1>
  4010a7:	ff cb                	dec    %ebx
  4010a9:	48 8d 14 dd 08 00 00 	lea    0x8(,%rbx,8),%rdx
  4010b0:	00 
  4010b1:	bf 68 00 ce 1a       	mov    $0x1ace0068,%edi
  4010b6:	31 f6                	xor    %esi,%esi
  4010b8:	e8 b3 f5 ff ff       	callq  400670 <memset@plt>
  4010bd:	48 8d 14 9d 04 00 00 	lea    0x4(,%rbx,4),%rdx
  4010c4:	00 
  4010c5:	bf 34 28 d7 1a       	mov    $0x1ad72834,%edi
  4010ca:	31 f6                	xor    %esi,%esi
  4010cc:	e8 9f f5 ff ff       	callq  400670 <memset@plt>
  4010d1:	45 85 ff             	test   %r15d,%r15d
  4010d4:	0f 88 ca 01 00 00    	js     4012a4 <main+0xac4>
  4010da:	4a 8d 04 b5 30 28 d7 	lea    0x1ad72830(,%r14,4),%rax
  4010e1:	1a 
  4010e2:	41 b8 02 00 00 00    	mov    $0x2,%r8d
  4010e8:	45 29 e0             	sub    %r12d,%r8d
  4010eb:	45 09 e8             	or     %r13d,%r8d
  4010ee:	41 bb 01 00 00 00    	mov    $0x1,%r11d
  4010f4:	31 d2                	xor    %edx,%edx
  4010f6:	41 ba 01 00 00 00    	mov    $0x1,%r10d
  4010fc:	66 0f 57 c0          	xorpd  %xmm0,%xmm0
  401100:	44 89 df             	mov    %r11d,%edi
  401103:	4d 89 d6             	mov    %r10,%r14
  401106:	4d 8d 56 01          	lea    0x1(%r14),%r10
  40110a:	46 8b 1c b5 c4 e5 b1 	mov    0xbb1e5c4(,%r14,4),%r11d
  401111:	0b 
  401112:	44 39 df             	cmp    %r11d,%edi
  401115:	0f 8d 75 01 00 00    	jge    401290 <main+0xab0>
  40111b:	49 63 cb             	movslq %r11d,%rcx
  40111e:	48 63 ef             	movslq %edi,%rbp
  401121:	31 db                	xor    %ebx,%ebx
  401123:	66 66 66 66 2e 0f 1f 	data16 data16 data16 nopw %cs:0x0(%rax,%rax,1)
  40112a:	84 00 00 00 00 00 
  401130:	8b 3c ad 10 04 ec 07 	mov    0x7ec0410(,%rbp,4),%edi
  401137:	48 63 ff             	movslq %edi,%rdi
  40113a:	f2 0f 10 0c fd 60 00 	movsd  0x1ace0060(,%rdi,8),%xmm1
  401141:	ce 1a 
  401143:	f2 0f 58 0c ed c0 40 	addsd  0x6040c0(,%rbp,8),%xmm1
  40114a:	60 00 
  40114c:	f2 0f 11 0c fd 60 00 	movsd  %xmm1,0x1ace0060(,%rdi,8)
  401153:	ce 1a 
  401155:	66 0f 2e c8          	ucomisd %xmm0,%xmm1
  401159:	75 02                	jne    40115d <main+0x97d>
  40115b:	7b 1f                	jnp    40117c <main+0x99c>
  40115d:	8b 34 bd 30 28 d7 1a 	mov    0x1ad72830(,%rdi,4),%esi
  401164:	85 f6                	test   %esi,%esi
  401166:	75 14                	jne    40117c <main+0x99c>
  401168:	c7 04 bd 30 28 d7 1a 	movl   $0x1,0x1ad72830(,%rdi,4)
  40116f:	01 00 00 00 
  401173:	48 63 f3             	movslq %ebx,%rsi
  401176:	ff c3                	inc    %ebx
  401178:	89 7c b0 04          	mov    %edi,0x4(%rax,%rsi,4)
  40117c:	48 ff c5             	inc    %rbp
  40117f:	48 39 e9             	cmp    %rbp,%rcx
  401182:	75 ac                	jne    401130 <main+0x950>
  401184:	85 db                	test   %ebx,%ebx
  401186:	0f 8e 04 01 00 00    	jle    401290 <main+0xab0>
  40118c:	41 89 d9             	mov    %ebx,%r9d
  40118f:	41 83 e1 01          	and    $0x1,%r9d
  401193:	83 fb 01             	cmp    $0x1,%ebx
  401196:	75 0a                	jne    4011a2 <main+0x9c2>
  401198:	b9 01 00 00 00       	mov    $0x1,%ecx
  40119d:	e9 a1 00 00 00       	jmpq   401243 <main+0xa63>
  4011a2:	44 29 cb             	sub    %r9d,%ebx
  4011a5:	31 c9                	xor    %ecx,%ecx
  4011a7:	66 0f 1f 84 00 00 00 	nopw   0x0(%rax,%rax,1)
  4011ae:	00 00 
  4011b0:	48 63 7c 88 04       	movslq 0x4(%rax,%rcx,4),%rdi
  4011b5:	c7 04 bd 30 28 d7 1a 	movl   $0x0,0x1ad72830(,%rdi,4)
  4011bc:	00 00 00 00 
  4011c0:	f2 0f 10 0c fd 60 00 	movsd  0x1ace0060(,%rdi,8),%xmm1
  4011c7:	ce 1a 
  4011c9:	48 c7 04 fd 60 00 ce 	movq   $0x0,0x1ace0060(,%rdi,8)
  4011d0:	1a 00 00 00 00 
  4011d5:	66 0f 2e c8          	ucomisd %xmm0,%xmm1
  4011d9:	75 02                	jne    4011dd <main+0x9fd>
  4011db:	7b 15                	jnp    4011f2 <main+0xa12>
  4011dd:	48 63 f2             	movslq %edx,%rsi
  4011e0:	ff c2                	inc    %edx
  4011e2:	f2 0f 11 0c f5 c8 40 	movsd  %xmm1,0x6040c8(,%rsi,8)
  4011e9:	60 00 
  4011eb:	89 3c b5 14 04 ec 07 	mov    %edi,0x7ec0414(,%rsi,4)
  4011f2:	48 63 7c 88 08       	movslq 0x8(%rax,%rcx,4),%rdi
  4011f7:	c7 04 bd 30 28 d7 1a 	movl   $0x0,0x1ad72830(,%rdi,4)
  4011fe:	00 00 00 00 
  401202:	f2 0f 10 0c fd 60 00 	movsd  0x1ace0060(,%rdi,8),%xmm1
  401209:	ce 1a 
  40120b:	48 c7 04 fd 60 00 ce 	movq   $0x0,0x1ace0060(,%rdi,8)
  401212:	1a 00 00 00 00 
  401217:	66 0f 2e c8          	ucomisd %xmm0,%xmm1
  40121b:	75 02                	jne    40121f <main+0xa3f>
  40121d:	7b 15                	jnp    401234 <main+0xa54>
  40121f:	48 63 f2             	movslq %edx,%rsi
  401222:	ff c2                	inc    %edx
  401224:	f2 0f 11 0c f5 c8 40 	movsd  %xmm1,0x6040c8(,%rsi,8)
  40122b:	60 00 
  40122d:	89 3c b5 14 04 ec 07 	mov    %edi,0x7ec0414(,%rsi,4)
  401234:	48 83 c1 02          	add    $0x2,%rcx
  401238:	39 cb                	cmp    %ecx,%ebx
  40123a:	0f 85 70 ff ff ff    	jne    4011b0 <main+0x9d0>
  401240:	48 ff c1             	inc    %rcx
  401243:	45 85 c9             	test   %r9d,%r9d
  401246:	74 48                	je     401290 <main+0xab0>
  401248:	48 63 0c 88          	movslq (%rax,%rcx,4),%rcx
  40124c:	c7 04 8d 30 28 d7 1a 	movl   $0x0,0x1ad72830(,%rcx,4)
  401253:	00 00 00 00 
  401257:	f2 0f 10 0c cd 60 00 	movsd  0x1ace0060(,%rcx,8),%xmm1
  40125e:	ce 1a 
  401260:	48 c7 04 cd 60 00 ce 	movq   $0x0,0x1ace0060(,%rcx,8)
  401267:	1a 00 00 00 00 
  40126c:	66 0f 2e c8          	ucomisd %xmm0,%xmm1
  401270:	75 02                	jne    401274 <main+0xa94>
  401272:	7b 1c                	jnp    401290 <main+0xab0>
  401274:	48 63 f2             	movslq %edx,%rsi
  401277:	ff c2                	inc    %edx
  401279:	f2 0f 11 0c f5 c8 40 	movsd  %xmm1,0x6040c8(,%rsi,8)
  401280:	60 00 
  401282:	89 0c b5 14 04 ec 07 	mov    %ecx,0x7ec0414(,%rsi,4)
  401289:	0f 1f 80 00 00 00 00 	nopl   0x0(%rax)
  401290:	8d 4a 01             	lea    0x1(%rdx),%ecx
  401293:	42 89 0c b5 c4 e5 b1 	mov    %ecx,0xbb1e5c4(,%r14,4)
  40129a:	0b 
  40129b:	45 39 c2             	cmp    %r8d,%r10d
  40129e:	0f 85 5c fe ff ff    	jne    401100 <main+0x920>
  4012a4:	8a 05 ea 2d 20 00    	mov    0x202dea(%rip),%al        # 604094 <lastrow>
  4012aa:	8b 0d e0 2d 20 00    	mov    0x202de0(%rip),%ecx        # 604090 <firstrow>
  4012b0:	c1 e1 1f             	shl    $0x1f,%ecx
  4012b3:	c1 f9 1f             	sar    $0x1f,%ecx
  4012b6:	84 c0                	test   %al,%al
  4012b8:	b8 f9 24 01 00       	mov    $0x124f9,%eax
  4012bd:	41 be 01 00 00 00    	mov    $0x1,%r14d
  4012c3:	41 0f 44 c6          	cmove  %r14d,%eax
  4012c7:	01 c8                	add    %ecx,%eax
  4012c9:	0f 8e 88 01 00 00    	jle    401457 <main+0xc77>
  4012cf:	8b 0d c3 2d 20 00    	mov    0x202dc3(%rip),%ecx        # 604098 <firstcol>
  4012d5:	c1 e1 1f             	shl    $0x1f,%ecx
  4012d8:	c1 f9 1f             	sar    $0x1f,%ecx
  4012db:	4c 63 c0             	movslq %eax,%r8
  4012de:	66 0f 6e c1          	movd   %ecx,%xmm0
  4012e2:	66 0f 70 c0 00       	pshufd $0x0,%xmm0,%xmm0
  4012e7:	be 01 00 00 00       	mov    $0x1,%esi
  4012ec:	66 0f 6f 0d 2c 16 00 	movdqa 0x162c(%rip),%xmm1        # 402920 <_IO_stdin_used+0x50>
  4012f3:	00 
  4012f4:	66 66 66 2e 0f 1f 84 	data16 data16 nopw %cs:0x0(%rax,%rax,1)
  4012fb:	00 00 00 00 00 
  401300:	44 89 f0             	mov    %r14d,%eax
  401303:	44 8b 34 b5 c4 e5 b1 	mov    0xbb1e5c4(,%rsi,4),%r14d
  40130a:	0b 
  40130b:	44 39 f0             	cmp    %r14d,%eax
  40130e:	0f 8d 36 01 00 00    	jge    40144a <main+0xc6a>
  401314:	49 63 fe             	movslq %r14d,%rdi
  401317:	48 63 e8             	movslq %eax,%rbp
  40131a:	49 89 ff             	mov    %rdi,%r15
  40131d:	49 29 ef             	sub    %rbp,%r15
  401320:	49 83 ff 08          	cmp    $0x8,%r15
  401324:	0f 82 06 01 00 00    	jb     401430 <main+0xc50>
  40132a:	4d 89 f9             	mov    %r15,%r9
  40132d:	49 83 e1 f8          	and    $0xfffffffffffffff8,%r9
  401331:	4d 89 fa             	mov    %r15,%r10
  401334:	49 83 e2 f8          	and    $0xfffffffffffffff8,%r10
  401338:	0f 84 f2 00 00 00    	je     401430 <main+0xc50>
  40133e:	48 98                	cltq   
  401340:	48 89 fb             	mov    %rdi,%rbx
  401343:	48 29 c3             	sub    %rax,%rbx
  401346:	48 83 c3 f8          	add    $0xfffffffffffffff8,%rbx
  40134a:	48 c1 eb 03          	shr    $0x3,%rbx
  40134e:	44 8d 5b 01          	lea    0x1(%rbx),%r11d
  401352:	41 83 e3 01          	and    $0x1,%r11d
  401356:	48 85 db             	test   %rbx,%rbx
  401359:	ba 00 00 00 00       	mov    $0x0,%edx
  40135e:	0f 84 86 00 00 00    	je     4013ea <main+0xc0a>
  401364:	49 8d 43 ff          	lea    -0x1(%r11),%rax
  401368:	48 29 d8             	sub    %rbx,%rax
  40136b:	31 d2                	xor    %edx,%edx
  40136d:	0f 1f 00             	nopl   (%rax)
  401370:	48 8d 1c ad 00 00 00 	lea    0x0(,%rbp,4),%rbx
  401377:	00 
  401378:	f3 0f 6f 94 93 10 04 	movdqu 0x7ec0410(%rbx,%rdx,4),%xmm2
  40137f:	ec 07 
  401381:	f3 0f 6f 9c 93 20 04 	movdqu 0x7ec0420(%rbx,%rdx,4),%xmm3
  401388:	ec 07 
  40138a:	66 0f fe d0          	paddd  %xmm0,%xmm2
  40138e:	66 0f fe d8          	paddd  %xmm0,%xmm3
  401392:	66 0f fe d1          	paddd  %xmm1,%xmm2
  401396:	66 0f fe d9          	paddd  %xmm1,%xmm3
  40139a:	f3 0f 7f 94 93 10 04 	movdqu %xmm2,0x7ec0410(%rbx,%rdx,4)
  4013a1:	ec 07 
  4013a3:	f3 0f 7f 9c 93 20 04 	movdqu %xmm3,0x7ec0420(%rbx,%rdx,4)
  4013aa:	ec 07 
  4013ac:	f3 0f 6f 94 93 30 04 	movdqu 0x7ec0430(%rbx,%rdx,4),%xmm2
  4013b3:	ec 07 
  4013b5:	f3 0f 6f 9c 93 40 04 	movdqu 0x7ec0440(%rbx,%rdx,4),%xmm3
  4013bc:	ec 07 
  4013be:	66 0f fe d0          	paddd  %xmm0,%xmm2
  4013c2:	66 0f fe d8          	paddd  %xmm0,%xmm3
  4013c6:	66 0f fe d1          	paddd  %xmm1,%xmm2
  4013ca:	66 0f fe d9          	paddd  %xmm1,%xmm3
  4013ce:	f3 0f 7f 94 93 30 04 	movdqu %xmm2,0x7ec0430(%rbx,%rdx,4)
  4013d5:	ec 07 
  4013d7:	f3 0f 7f 9c 93 40 04 	movdqu %xmm3,0x7ec0440(%rbx,%rdx,4)
  4013de:	ec 07 
  4013e0:	48 83 c2 10          	add    $0x10,%rdx
  4013e4:	48 83 c0 02          	add    $0x2,%rax
  4013e8:	75 86                	jne    401370 <main+0xb90>
  4013ea:	4d 85 db             	test   %r11,%r11
  4013ed:	74 37                	je     401426 <main+0xc46>
  4013ef:	48 01 ea             	add    %rbp,%rdx
  4013f2:	f3 0f 6f 14 95 10 04 	movdqu 0x7ec0410(,%rdx,4),%xmm2
  4013f9:	ec 07 
  4013fb:	f3 0f 6f 1c 95 20 04 	movdqu 0x7ec0420(,%rdx,4),%xmm3
  401402:	ec 07 
  401404:	66 0f fe d0          	paddd  %xmm0,%xmm2
  401408:	66 0f fe d8          	paddd  %xmm0,%xmm3
  40140c:	66 0f fe d1          	paddd  %xmm1,%xmm2
  401410:	66 0f fe d9          	paddd  %xmm1,%xmm3
  401414:	f3 0f 7f 14 95 10 04 	movdqu %xmm2,0x7ec0410(,%rdx,4)
  40141b:	ec 07 
  40141d:	f3 0f 7f 1c 95 20 04 	movdqu %xmm3,0x7ec0420(,%rdx,4)
  401424:	ec 07 
  401426:	4d 39 d7             	cmp    %r10,%r15
  401429:	74 1f                	je     40144a <main+0xc6a>
  40142b:	4c 01 cd             	add    %r9,%rbp
  40142e:	66 90                	xchg   %ax,%ax
  401430:	8b 04 ad 10 04 ec 07 	mov    0x7ec0410(,%rbp,4),%eax
  401437:	8d 44 08 01          	lea    0x1(%rax,%rcx,1),%eax
  40143b:	89 04 ad 10 04 ec 07 	mov    %eax,0x7ec0410(,%rbp,4)
  401442:	48 ff c5             	inc    %rbp
  401445:	48 39 fd             	cmp    %rdi,%rbp
  401448:	7c e6                	jl     401430 <main+0xc50>
  40144a:	4c 39 c6             	cmp    %r8,%rsi
  40144d:	48 8d 76 01          	lea    0x1(%rsi),%rsi
  401451:	0f 8c a9 fe ff ff    	jl     401300 <main+0xb20>
  401457:	48 c7 c0 40 d8 f6 ff 	mov    $0xfffffffffff6d840,%rax
  40145e:	66 0f 28 05 ca 14 00 	movapd 0x14ca(%rip),%xmm0        # 402930 <_IO_stdin_used+0x60>
  401465:	00 
  401466:	66 2e 0f 1f 84 00 00 	nopw   %cs:0x0(%rax,%rax,1)
  40146d:	00 00 00 
  401470:	66 0f 11 80 c8 77 e9 	movupd %xmm0,0x1ae977c8(%rax)
  401477:	1a 
  401478:	66 0f 11 80 d8 77 e9 	movupd %xmm0,0x1ae977d8(%rax)
  40147f:	1a 
  401480:	66 0f 11 80 e8 77 e9 	movupd %xmm0,0x1ae977e8(%rax)
  401487:	1a 
  401488:	66 0f 11 80 f8 77 e9 	movupd %xmm0,0x1ae977f8(%rax)
  40148f:	1a 
  401490:	66 0f 11 80 08 78 e9 	movupd %xmm0,0x1ae97808(%rax)
  401497:	1a 
  401498:	66 0f 11 80 18 78 e9 	movupd %xmm0,0x1ae97818(%rax)
  40149f:	1a 
  4014a0:	66 0f 11 80 28 78 e9 	movupd %xmm0,0x1ae97828(%rax)
  4014a7:	1a 
  4014a8:	66 0f 11 80 38 78 e9 	movupd %xmm0,0x1ae97838(%rax)
  4014af:	1a 
  4014b0:	66 0f 11 80 48 78 e9 	movupd %xmm0,0x1ae97848(%rax)
  4014b7:	1a 
  4014b8:	66 0f 11 80 58 78 e9 	movupd %xmm0,0x1ae97858(%rax)
  4014bf:	1a 
  4014c0:	66 0f 11 80 68 78 e9 	movupd %xmm0,0x1ae97868(%rax)
  4014c7:	1a 
  4014c8:	66 0f 11 80 78 78 e9 	movupd %xmm0,0x1ae97878(%rax)
  4014cf:	1a 
  4014d0:	48 05 c0 00 00 00    	add    $0xc0,%rax
  4014d6:	75 98                	jne    401470 <main+0xc90>
  4014d8:	49 be 00 00 00 00 00 	movabs $0x3ff0000000000000,%r14
  4014df:	00 f0 3f 
  4014e2:	4c 89 35 df 62 a9 1a 	mov    %r14,0x1aa962df(%rip)        # 1ae977c8 <x+0x927c8>
  4014e9:	48 8d 7c 24 50       	lea    0x50(%rsp),%rdi
  4014ee:	e8 2d 07 00 00       	callq  401c20 <conj_grad>
  4014f3:	8a 05 a3 2b 20 00    	mov    0x202ba3(%rip),%al        # 60409c <lastcol>
  4014f9:	8b 0d 99 2b 20 00    	mov    0x202b99(%rip),%ecx        # 604098 <firstcol>
  4014ff:	c1 e1 1f             	shl    $0x1f,%ecx
  401502:	c1 f9 1f             	sar    $0x1f,%ecx
  401505:	84 c0                	test   %al,%al
  401507:	ba f9 24 01 00       	mov    $0x124f9,%edx
  40150c:	b8 01 00 00 00       	mov    $0x1,%eax
  401511:	0f 45 c2             	cmovne %edx,%eax
  401514:	01 c8                	add    %ecx,%eax
  401516:	66 0f 57 c0          	xorpd  %xmm0,%xmm0
  40151a:	0f 8e a5 00 00 00    	jle    4015c5 <main+0xde5>
  401520:	48 63 d0             	movslq %eax,%rdx
  401523:	48 8d 72 ff          	lea    -0x1(%rdx),%rsi
  401527:	89 d0                	mov    %edx,%eax
  401529:	83 e0 03             	and    $0x3,%eax
  40152c:	b9 01 00 00 00       	mov    $0x1,%ecx
  401531:	48 83 fe 03          	cmp    $0x3,%rsi
  401535:	73 06                	jae    40153d <main+0xd5d>
  401537:	66 0f 57 c0          	xorpd  %xmm0,%xmm0
  40153b:	eb 63                	jmp    4015a0 <main+0xdc0>
  40153d:	48 29 c2             	sub    %rax,%rdx
  401540:	66 0f 57 c0          	xorpd  %xmm0,%xmm0
  401544:	31 c9                	xor    %ecx,%ecx
  401546:	66 2e 0f 1f 84 00 00 	nopw   %cs:0x0(%rax,%rax,1)
  40154d:	00 00 00 
  401550:	f2 0f 10 0c cd e8 77 	movsd  0x1ae977e8(,%rcx,8),%xmm1
  401557:	e9 1a 
  401559:	f2 0f 59 c9          	mulsd  %xmm1,%xmm1
  40155d:	f2 0f 58 c8          	addsd  %xmm0,%xmm1
  401561:	f2 0f 10 04 cd f0 77 	movsd  0x1ae977f0(,%rcx,8),%xmm0
  401568:	e9 1a 
  40156a:	f2 0f 59 c0          	mulsd  %xmm0,%xmm0
  40156e:	f2 0f 58 c1          	addsd  %xmm1,%xmm0
  401572:	f2 0f 10 0c cd f8 77 	movsd  0x1ae977f8(,%rcx,8),%xmm1
  401579:	e9 1a 
  40157b:	f2 0f 59 c9          	mulsd  %xmm1,%xmm1
  40157f:	f2 0f 58 c8          	addsd  %xmm0,%xmm1
  401583:	f2 0f 10 04 cd 00 78 	movsd  0x1ae97800(,%rcx,8),%xmm0
  40158a:	e9 1a 
  40158c:	f2 0f 59 c0          	mulsd  %xmm0,%xmm0
  401590:	f2 0f 58 c1          	addsd  %xmm1,%xmm0
  401594:	48 83 c1 04          	add    $0x4,%rcx
  401598:	48 39 ca             	cmp    %rcx,%rdx
  40159b:	75 b3                	jne    401550 <main+0xd70>
  40159d:	48 ff c1             	inc    %rcx
  4015a0:	48 85 c0             	test   %rax,%rax
  4015a3:	74 20                	je     4015c5 <main+0xde5>
  4015a5:	48 8d 0c cd e0 77 e9 	lea    0x1ae977e0(,%rcx,8),%rcx
  4015ac:	1a 
  4015ad:	48 f7 d8             	neg    %rax
  4015b0:	f2 0f 10 09          	movsd  (%rcx),%xmm1
  4015b4:	f2 0f 59 c9          	mulsd  %xmm1,%xmm1
  4015b8:	f2 0f 58 c1          	addsd  %xmm1,%xmm0
  4015bc:	48 83 c1 08          	add    $0x8,%rcx
  4015c0:	48 ff c0             	inc    %rax
  4015c3:	75 eb                	jne    4015b0 <main+0xdd0>
  4015c5:	0f 57 c9             	xorps  %xmm1,%xmm1
  4015c8:	f2 0f 51 c8          	sqrtsd %xmm0,%xmm1
  4015cc:	66 0f 2e c9          	ucomisd %xmm1,%xmm1
  4015d0:	7b 09                	jnp    4015db <main+0xdfb>
  4015d2:	e8 e9 f0 ff ff       	callq  4006c0 <sqrt@plt>
  4015d7:	66 0f 28 c8          	movapd %xmm0,%xmm1
  4015db:	8a 05 bb 2a 20 00    	mov    0x202abb(%rip),%al        # 60409c <lastcol>
  4015e1:	8b 0d b1 2a 20 00    	mov    0x202ab1(%rip),%ecx        # 604098 <firstcol>
  4015e7:	c1 e1 1f             	shl    $0x1f,%ecx
  4015ea:	c1 f9 1f             	sar    $0x1f,%ecx
  4015ed:	84 c0                	test   %al,%al
  4015ef:	ba f9 24 01 00       	mov    $0x124f9,%edx
  4015f4:	b8 01 00 00 00       	mov    $0x1,%eax
  4015f9:	0f 45 c2             	cmovne %edx,%eax
  4015fc:	01 c8                	add    %ecx,%eax
  4015fe:	0f 8e 3a 01 00 00    	jle    40173e <main+0xf5e>
  401604:	f2 0f 10 05 d4 12 00 	movsd  0x12d4(%rip),%xmm0        # 4028e0 <_IO_stdin_used+0x10>
  40160b:	00 
  40160c:	f2 0f 5e c1          	divsd  %xmm1,%xmm0
  401610:	48 98                	cltq   
  401612:	be 01 00 00 00       	mov    $0x1,%esi
  401617:	83 f8 04             	cmp    $0x4,%eax
  40161a:	0f 82 ef 00 00 00    	jb     40170f <main+0xf2f>
  401620:	48 89 c1             	mov    %rax,%rcx
  401623:	48 83 e1 fc          	and    $0xfffffffffffffffc,%rcx
  401627:	48 89 c2             	mov    %rax,%rdx
  40162a:	48 83 e2 fc          	and    $0xfffffffffffffffc,%rdx
  40162e:	be 01 00 00 00       	mov    $0x1,%esi
  401633:	0f 84 d6 00 00 00    	je     40170f <main+0xf2f>
  401639:	66 0f 28 c8          	movapd %xmm0,%xmm1
  40163d:	0f 16 c9             	movlhps %xmm1,%xmm1
  401640:	48 8d 5a fc          	lea    -0x4(%rdx),%rbx
  401644:	48 c1 eb 02          	shr    $0x2,%rbx
  401648:	8d 7b 01             	lea    0x1(%rbx),%edi
  40164b:	83 e7 01             	and    $0x1,%edi
  40164e:	be 01 00 00 00       	mov    $0x1,%esi
  401653:	48 85 db             	test   %rbx,%rbx
  401656:	74 7a                	je     4016d2 <main+0xef2>
  401658:	48 8d 6f ff          	lea    -0x1(%rdi),%rbp
  40165c:	48 29 dd             	sub    %rbx,%rbp
  40165f:	be 01 00 00 00       	mov    $0x1,%esi
  401664:	66 66 66 2e 0f 1f 84 	data16 data16 nopw %cs:0x0(%rax,%rax,1)
  40166b:	00 00 00 00 00 
  401670:	66 0f 10 14 f5 e0 77 	movupd 0x1ae977e0(,%rsi,8),%xmm2
  401677:	e9 1a 
  401679:	66 0f 10 1c f5 f0 77 	movupd 0x1ae977f0(,%rsi,8),%xmm3
  401680:	e9 1a 
  401682:	66 0f 59 d1          	mulpd  %xmm1,%xmm2
  401686:	66 0f 59 d9          	mulpd  %xmm1,%xmm3
  40168a:	66 0f 11 14 f5 00 50 	movupd %xmm2,0x1ae05000(,%rsi,8)
  401691:	e0 1a 
  401693:	66 0f 11 1c f5 10 50 	movupd %xmm3,0x1ae05010(,%rsi,8)
  40169a:	e0 1a 
  40169c:	66 0f 10 14 f5 00 78 	movupd 0x1ae97800(,%rsi,8),%xmm2
  4016a3:	e9 1a 
  4016a5:	66 0f 10 1c f5 10 78 	movupd 0x1ae97810(,%rsi,8),%xmm3
  4016ac:	e9 1a 
  4016ae:	66 0f 59 d1          	mulpd  %xmm1,%xmm2
  4016b2:	66 0f 59 d9          	mulpd  %xmm1,%xmm3
  4016b6:	66 0f 11 14 f5 20 50 	movupd %xmm2,0x1ae05020(,%rsi,8)
  4016bd:	e0 1a 
  4016bf:	66 0f 11 1c f5 30 50 	movupd %xmm3,0x1ae05030(,%rsi,8)
  4016c6:	e0 1a 
  4016c8:	48 8d 76 08          	lea    0x8(%rsi),%rsi
  4016cc:	48 83 c5 02          	add    $0x2,%rbp
  4016d0:	75 9e                	jne    401670 <main+0xe90>
  4016d2:	48 85 ff             	test   %rdi,%rdi
  4016d5:	74 2c                	je     401703 <main+0xf23>
  4016d7:	66 0f 10 14 f5 e0 77 	movupd 0x1ae977e0(,%rsi,8),%xmm2
  4016de:	e9 1a 
  4016e0:	66 0f 10 1c f5 f0 77 	movupd 0x1ae977f0(,%rsi,8),%xmm3
  4016e7:	e9 1a 
  4016e9:	66 0f 59 d1          	mulpd  %xmm1,%xmm2
  4016ed:	66 0f 59 d9          	mulpd  %xmm1,%xmm3
  4016f1:	66 0f 11 14 f5 00 50 	movupd %xmm2,0x1ae05000(,%rsi,8)
  4016f8:	e0 1a 
  4016fa:	66 0f 11 1c f5 10 50 	movupd %xmm3,0x1ae05010(,%rsi,8)
  401701:	e0 1a 
  401703:	48 39 d0             	cmp    %rdx,%rax
  401706:	74 36                	je     40173e <main+0xf5e>
  401708:	48 83 c9 01          	or     $0x1,%rcx
  40170c:	48 89 ce             	mov    %rcx,%rsi
  40170f:	48 ff ce             	dec    %rsi
  401712:	66 66 66 66 66 2e 0f 	data16 data16 data16 data16 nopw %cs:0x0(%rax,%rax,1)
  401719:	1f 84 00 00 00 00 00 
  401720:	f2 0f 10 0c f5 e8 77 	movsd  0x1ae977e8(,%rsi,8),%xmm1
  401727:	e9 1a 
  401729:	f2 0f 59 c8          	mulsd  %xmm0,%xmm1
  40172d:	f2 0f 11 0c f5 08 50 	movsd  %xmm1,0x1ae05008(,%rsi,8)
  401734:	e0 1a 
  401736:	48 ff c6             	inc    %rsi
  401739:	48 39 c6             	cmp    %rax,%rsi
  40173c:	7c e2                	jl     401720 <main+0xf40>
  40173e:	48 c7 c0 40 d8 f6 ff 	mov    $0xfffffffffff6d840,%rax
  401745:	66 0f 28 05 e3 11 00 	movapd 0x11e3(%rip),%xmm0        # 402930 <_IO_stdin_used+0x60>
  40174c:	00 
  40174d:	0f 1f 00             	nopl   (%rax)
  401750:	66 0f 11 80 c8 77 e9 	movupd %xmm0,0x1ae977c8(%rax)
  401757:	1a 
  401758:	66 0f 11 80 d8 77 e9 	movupd %xmm0,0x1ae977d8(%rax)
  40175f:	1a 
  401760:	66 0f 11 80 e8 77 e9 	movupd %xmm0,0x1ae977e8(%rax)
  401767:	1a 
  401768:	66 0f 11 80 f8 77 e9 	movupd %xmm0,0x1ae977f8(%rax)
  40176f:	1a 
  401770:	66 0f 11 80 08 78 e9 	movupd %xmm0,0x1ae97808(%rax)
  401777:	1a 
  401778:	66 0f 11 80 18 78 e9 	movupd %xmm0,0x1ae97818(%rax)
  40177f:	1a 
  401780:	66 0f 11 80 28 78 e9 	movupd %xmm0,0x1ae97828(%rax)
  401787:	1a 
  401788:	66 0f 11 80 38 78 e9 	movupd %xmm0,0x1ae97838(%rax)
  40178f:	1a 
  401790:	66 0f 11 80 48 78 e9 	movupd %xmm0,0x1ae97848(%rax)
  401797:	1a 
  401798:	66 0f 11 80 58 78 e9 	movupd %xmm0,0x1ae97858(%rax)
  40179f:	1a 
  4017a0:	66 0f 11 80 68 78 e9 	movupd %xmm0,0x1ae97868(%rax)
  4017a7:	1a 
  4017a8:	66 0f 11 80 78 78 e9 	movupd %xmm0,0x1ae97878(%rax)
  4017af:	1a 
  4017b0:	48 05 c0 00 00 00    	add    $0xc0,%rax
  4017b6:	75 98                	jne    401750 <main+0xf70>
  4017b8:	4c 89 35 09 60 a9 1a 	mov    %r14,0x1aa96009(%rip)        # 1ae977c8 <x+0x927c8>
  4017bf:	bb 01 00 00 00       	mov    $0x1,%ebx
  4017c4:	bf 01 00 00 00       	mov    $0x1,%edi
  4017c9:	e8 f2 0d 00 00       	callq  4025c0 <timer_clear>
  4017ce:	bf 01 00 00 00       	mov    $0x1,%edi
  4017d3:	e8 f8 0d 00 00       	callq  4025d0 <timer_start>
  4017d8:	4c 8d 74 24 50       	lea    0x50(%rsp),%r14
  4017dd:	41 bf f9 24 01 00    	mov    $0x124f9,%r15d
  4017e3:	66 66 66 66 2e 0f 1f 	data16 data16 data16 nopw %cs:0x0(%rax,%rax,1)
  4017ea:	84 00 00 00 00 00 
  4017f0:	4c 89 f7             	mov    %r14,%rdi
  4017f3:	e8 28 04 00 00       	callq  401c20 <conj_grad>
  4017f8:	8a 05 9e 28 20 00    	mov    0x20289e(%rip),%al        # 60409c <lastcol>
  4017fe:	8b 0d 94 28 20 00    	mov    0x202894(%rip),%ecx        # 604098 <firstcol>
  401804:	c1 e1 1f             	shl    $0x1f,%ecx
  401807:	c1 f9 1f             	sar    $0x1f,%ecx
  40180a:	84 c0                	test   %al,%al
  40180c:	ba 01 00 00 00       	mov    $0x1,%edx
  401811:	41 0f 45 d7          	cmovne %r15d,%edx
  401815:	01 ca                	add    %ecx,%edx
  401817:	66 0f 57 d2          	xorpd  %xmm2,%xmm2
  40181b:	0f 8e 93 00 00 00    	jle    4018b4 <main+0x10d4>
  401821:	89 d0                	mov    %edx,%eax
  401823:	83 e0 01             	and    $0x1,%eax
  401826:	66 0f 57 d2          	xorpd  %xmm2,%xmm2
  40182a:	83 fa 01             	cmp    $0x1,%edx
  40182d:	b9 01 00 00 00       	mov    $0x1,%ecx
  401832:	74 5a                	je     40188e <main+0x10ae>
  401834:	48 63 d2             	movslq %edx,%rdx
  401837:	48 29 c2             	sub    %rax,%rdx
  40183a:	66 0f 57 d2          	xorpd  %xmm2,%xmm2
  40183e:	31 c9                	xor    %ecx,%ecx
  401840:	f2 0f 10 04 cd e8 77 	movsd  0x1ae977e8(,%rcx,8),%xmm0
  401847:	e9 1a 
  401849:	66 0f 28 c8          	movapd %xmm0,%xmm1
  40184d:	0f 16 c9             	movlhps %xmm1,%xmm1
  401850:	66 0f 16 04 cd 08 50 	movhpd 0x1ae05008(,%rcx,8),%xmm0
  401857:	e0 1a 
  401859:	66 0f 59 c1          	mulpd  %xmm1,%xmm0
  40185d:	66 0f 58 c2          	addpd  %xmm2,%xmm0
  401861:	f2 0f 10 14 cd f0 77 	movsd  0x1ae977f0(,%rcx,8),%xmm2
  401868:	e9 1a 
  40186a:	66 0f 28 ca          	movapd %xmm2,%xmm1
  40186e:	0f 16 c9             	movlhps %xmm1,%xmm1
  401871:	66 0f 16 14 cd 10 50 	movhpd 0x1ae05010(,%rcx,8),%xmm2
  401878:	e0 1a 
  40187a:	66 0f 59 d1          	mulpd  %xmm1,%xmm2
  40187e:	66 0f 58 d0          	addpd  %xmm0,%xmm2
  401882:	48 83 c1 02          	add    $0x2,%rcx
  401886:	48 39 ca             	cmp    %rcx,%rdx
  401889:	75 b5                	jne    401840 <main+0x1060>
  40188b:	48 ff c1             	inc    %rcx
  40188e:	48 85 c0             	test   %rax,%rax
  401891:	74 21                	je     4018b4 <main+0x10d4>
  401893:	f2 0f 10 04 cd e0 77 	movsd  0x1ae977e0(,%rcx,8),%xmm0
  40189a:	e9 1a 
  40189c:	66 0f 28 c8          	movapd %xmm0,%xmm1
  4018a0:	0f 16 c9             	movlhps %xmm1,%xmm1
  4018a3:	66 0f 16 04 cd 00 50 	movhpd 0x1ae05000(,%rcx,8),%xmm0
  4018aa:	e0 1a 
  4018ac:	66 0f 59 c1          	mulpd  %xmm1,%xmm0
  4018b0:	66 0f 58 d0          	addpd  %xmm0,%xmm2
  4018b4:	0f 57 c0             	xorps  %xmm0,%xmm0
  4018b7:	f2 0f 51 c2          	sqrtsd %xmm2,%xmm0
  4018bb:	66 0f 2e c0          	ucomisd %xmm0,%xmm0
  4018bf:	7b 15                	jnp    4018d6 <main+0x10f6>
  4018c1:	66 0f 28 c2          	movapd %xmm2,%xmm0
  4018c5:	66 0f 29 54 24 30    	movapd %xmm2,0x30(%rsp)
  4018cb:	e8 f0 ed ff ff       	callq  4006c0 <sqrt@plt>
  4018d0:	66 0f 28 54 24 30    	movapd 0x30(%rsp),%xmm2
  4018d6:	f2 0f 11 44 24 30    	movsd  %xmm0,0x30(%rsp)
  4018dc:	66 0f c6 d2 01       	shufpd $0x1,%xmm2,%xmm2
  4018e1:	f2 0f 10 05 f7 0f 00 	movsd  0xff7(%rip),%xmm0        # 4028e0 <_IO_stdin_used+0x10>
  4018e8:	00 
  4018e9:	66 0f 28 c8          	movapd %xmm0,%xmm1
  4018ed:	f2 0f 5e ca          	divsd  %xmm2,%xmm1
  4018f1:	f2 0f 58 0d f7 0f 00 	addsd  0xff7(%rip),%xmm1        # 4028f0 <_IO_stdin_used+0x20>
  4018f8:	00 
  4018f9:	83 fb 01             	cmp    $0x1,%ebx
  4018fc:	f2 0f 11 4c 24 20    	movsd  %xmm1,0x20(%rsp)
  401902:	75 10                	jne    401914 <main+0x1134>
  401904:	bf e0 2a 40 00       	mov    $0x402ae0,%edi
  401909:	e8 32 ed ff ff       	callq  400640 <puts@plt>
  40190e:	f2 0f 10 4c 24 20    	movsd  0x20(%rsp),%xmm1
  401914:	f2 0f 10 44 24 50    	movsd  0x50(%rsp),%xmm0
  40191a:	bf 6f 29 40 00       	mov    $0x40296f,%edi
  40191f:	b0 02                	mov    $0x2,%al
  401921:	89 de                	mov    %ebx,%esi
  401923:	e8 28 ed ff ff       	callq  400650 <printf@plt>
  401928:	8a 05 6e 27 20 00    	mov    0x20276e(%rip),%al        # 60409c <lastcol>
  40192e:	8b 0d 64 27 20 00    	mov    0x202764(%rip),%ecx        # 604098 <firstcol>
  401934:	c1 e1 1f             	shl    $0x1f,%ecx
  401937:	c1 f9 1f             	sar    $0x1f,%ecx
  40193a:	84 c0                	test   %al,%al
  40193c:	b8 01 00 00 00       	mov    $0x1,%eax
  401941:	41 0f 45 c7          	cmovne %r15d,%eax
  401945:	01 c8                	add    %ecx,%eax
  401947:	0f 8e 31 01 00 00    	jle    401a7e <main+0x129e>
  40194d:	f2 0f 10 05 8b 0f 00 	movsd  0xf8b(%rip),%xmm0        # 4028e0 <_IO_stdin_used+0x10>
  401954:	00 
  401955:	f2 0f 5e 44 24 30    	divsd  0x30(%rsp),%xmm0
  40195b:	48 98                	cltq   
  40195d:	83 f8 04             	cmp    $0x4,%eax
  401960:	be 01 00 00 00       	mov    $0x1,%esi
  401965:	0f 82 e5 00 00 00    	jb     401a50 <main+0x1270>
  40196b:	49 89 c0             	mov    %rax,%r8
  40196e:	49 83 e0 fc          	and    $0xfffffffffffffffc,%r8
  401972:	48 89 c2             	mov    %rax,%rdx
  401975:	48 83 e2 fc          	and    $0xfffffffffffffffc,%rdx
  401979:	be 01 00 00 00       	mov    $0x1,%esi
  40197e:	0f 84 cc 00 00 00    	je     401a50 <main+0x1270>
  401984:	66 0f 28 c8          	movapd %xmm0,%xmm1
  401988:	0f 16 c9             	movlhps %xmm1,%xmm1
  40198b:	48 8d 4a fc          	lea    -0x4(%rdx),%rcx
  40198f:	48 c1 e9 02          	shr    $0x2,%rcx
  401993:	8d 71 01             	lea    0x1(%rcx),%esi
  401996:	83 e6 01             	and    $0x1,%esi
  401999:	48 85 c9             	test   %rcx,%rcx
  40199c:	bf 01 00 00 00       	mov    $0x1,%edi
  4019a1:	74 6f                	je     401a12 <main+0x1232>
  4019a3:	48 8d 6e ff          	lea    -0x1(%rsi),%rbp
  4019a7:	48 29 cd             	sub    %rcx,%rbp
  4019aa:	bf 01 00 00 00       	mov    $0x1,%edi
  4019af:	90                   	nop
  4019b0:	66 0f 10 14 fd e0 77 	movupd 0x1ae977e0(,%rdi,8),%xmm2
  4019b7:	e9 1a 
  4019b9:	66 0f 10 1c fd f0 77 	movupd 0x1ae977f0(,%rdi,8),%xmm3
  4019c0:	e9 1a 
  4019c2:	66 0f 59 d1          	mulpd  %xmm1,%xmm2
  4019c6:	66 0f 59 d9          	mulpd  %xmm1,%xmm3
  4019ca:	66 0f 11 14 fd 00 50 	movupd %xmm2,0x1ae05000(,%rdi,8)
  4019d1:	e0 1a 
  4019d3:	66 0f 11 1c fd 10 50 	movupd %xmm3,0x1ae05010(,%rdi,8)
  4019da:	e0 1a 
  4019dc:	66 0f 10 14 fd 00 78 	movupd 0x1ae97800(,%rdi,8),%xmm2
  4019e3:	e9 1a 
  4019e5:	66 0f 10 1c fd 10 78 	movupd 0x1ae97810(,%rdi,8),%xmm3
  4019ec:	e9 1a 
  4019ee:	66 0f 59 d1          	mulpd  %xmm1,%xmm2
  4019f2:	66 0f 59 d9          	mulpd  %xmm1,%xmm3
  4019f6:	66 0f 11 14 fd 20 50 	movupd %xmm2,0x1ae05020(,%rdi,8)
  4019fd:	e0 1a 
  4019ff:	66 0f 11 1c fd 30 50 	movupd %xmm3,0x1ae05030(,%rdi,8)
  401a06:	e0 1a 
  401a08:	48 8d 7f 08          	lea    0x8(%rdi),%rdi
  401a0c:	48 83 c5 02          	add    $0x2,%rbp
  401a10:	75 9e                	jne    4019b0 <main+0x11d0>
  401a12:	48 85 f6             	test   %rsi,%rsi
  401a15:	74 2c                	je     401a43 <main+0x1263>
  401a17:	66 0f 10 14 fd e0 77 	movupd 0x1ae977e0(,%rdi,8),%xmm2
  401a1e:	e9 1a 
  401a20:	66 0f 10 1c fd f0 77 	movupd 0x1ae977f0(,%rdi,8),%xmm3
  401a27:	e9 1a 
  401a29:	66 0f 59 d1          	mulpd  %xmm1,%xmm2
  401a2d:	66 0f 59 d9          	mulpd  %xmm1,%xmm3
  401a31:	66 0f 11 14 fd 00 50 	movupd %xmm2,0x1ae05000(,%rdi,8)
  401a38:	e0 1a 
  401a3a:	66 0f 11 1c fd 10 50 	movupd %xmm3,0x1ae05010(,%rdi,8)
  401a41:	e0 1a 
  401a43:	48 39 d0             	cmp    %rdx,%rax
  401a46:	74 36                	je     401a7e <main+0x129e>
  401a48:	49 83 c8 01          	or     $0x1,%r8
  401a4c:	4c 89 c6             	mov    %r8,%rsi
  401a4f:	90                   	nop
  401a50:	48 ff ce             	dec    %rsi
  401a53:	66 66 66 66 2e 0f 1f 	data16 data16 data16 nopw %cs:0x0(%rax,%rax,1)
  401a5a:	84 00 00 00 00 00 
  401a60:	f2 0f 10 0c f5 e8 77 	movsd  0x1ae977e8(,%rsi,8),%xmm1
  401a67:	e9 1a 
  401a69:	f2 0f 59 c8          	mulsd  %xmm0,%xmm1
  401a6d:	f2 0f 11 0c f5 08 50 	movsd  %xmm1,0x1ae05008(,%rsi,8)
  401a74:	e0 1a 
  401a76:	48 ff c6             	inc    %rsi
  401a79:	48 39 c6             	cmp    %rax,%rsi
  401a7c:	7c e2                	jl     401a60 <main+0x1280>
  401a7e:	ff c3                	inc    %ebx
  401a80:	83 fb 0b             	cmp    $0xb,%ebx
  401a83:	0f 85 67 fd ff ff    	jne    4017f0 <main+0x1010>
  401a89:	bf 01 00 00 00       	mov    $0x1,%edi
  401a8e:	e8 6d 0b 00 00       	callq  402600 <timer_stop>
  401a93:	bf 01 00 00 00       	mov    $0x1,%edi
  401a98:	e8 a3 0b 00 00       	callq  402640 <timer_read>
  401a9d:	f2 0f 11 44 24 30    	movsd  %xmm0,0x30(%rsp)
  401aa3:	bf a0 2a 40 00       	mov    $0x402aa0,%edi
  401aa8:	e8 93 eb ff ff       	callq  400640 <puts@plt>
  401aad:	f2 0f 10 1d 43 0e 00 	movsd  0xe43(%rip),%xmm3        # 4028f8 <_IO_stdin_used+0x28>
  401ab4:	00 
  401ab5:	f2 0f 10 54 24 20    	movsd  0x20(%rsp),%xmm2
  401abb:	f2 0f 58 da          	addsd  %xmm2,%xmm3
  401abf:	66 0f 28 05 79 0e 00 	movapd 0xe79(%rip),%xmm0        # 402940 <_IO_stdin_used+0x70>
  401ac6:	00 
  401ac7:	66 0f 54 c3          	andpd  %xmm3,%xmm0
  401acb:	31 c0                	xor    %eax,%eax
  401acd:	f2 0f 10 0d 2b 0e 00 	movsd  0xe2b(%rip),%xmm1        # 402900 <_IO_stdin_used+0x30>
  401ad4:	00 
  401ad5:	66 0f 2e c8          	ucomisd %xmm0,%xmm1
  401ad9:	72 39                	jb     401b14 <main+0x1334>
  401adb:	bf c0 2a 40 00       	mov    $0x402ac0,%edi
  401ae0:	66 0f 29 5c 24 10    	movapd %xmm3,0x10(%rsp)
  401ae6:	e8 55 eb ff ff       	callq  400640 <puts@plt>
  401aeb:	bf 8d 29 40 00       	mov    $0x40298d,%edi
  401af0:	b0 01                	mov    $0x1,%al
  401af2:	f2 0f 10 44 24 20    	movsd  0x20(%rsp),%xmm0
  401af8:	e8 53 eb ff ff       	callq  400650 <printf@plt>
  401afd:	bf a2 29 40 00       	mov    $0x4029a2,%edi
  401b02:	b0 01                	mov    $0x1,%al
  401b04:	66 0f 28 44 24 10    	movapd 0x10(%rsp),%xmm0
  401b0a:	e8 41 eb ff ff       	callq  400650 <printf@plt>
  401b0f:	b8 01 00 00 00       	mov    $0x1,%eax
  401b14:	66 0f 57 c9          	xorpd  %xmm1,%xmm1
  401b18:	f2 0f 10 44 24 30    	movsd  0x30(%rsp),%xmm0
  401b1e:	66 0f 2e c1          	ucomisd %xmm1,%xmm0
  401b22:	75 02                	jne    401b26 <main+0x1346>
  401b24:	7b 14                	jnp    401b3a <main+0x135a>
  401b26:	f2 0f 10 0d da 0d 00 	movsd  0xdda(%rip),%xmm1        # 402908 <_IO_stdin_used+0x38>
  401b2d:	00 
  401b2e:	f2 0f 5e c8          	divsd  %xmm0,%xmm1
  401b32:	f2 0f 5e 0d d6 0d 00 	divsd  0xdd6(%rip),%xmm1        # 402910 <_IO_stdin_used+0x40>
  401b39:	00 
  401b3a:	48 83 ec 08          	sub    $0x8,%rsp
  401b3e:	bf b7 29 40 00       	mov    $0x4029b7,%edi
  401b43:	be 42 00 00 00       	mov    $0x42,%esi
  401b48:	ba f8 24 01 00       	mov    $0x124f8,%edx
  401b4d:	b9 00 00 00 00       	mov    $0x0,%ecx
  401b52:	41 b8 00 00 00 00    	mov    $0x0,%r8d
  401b58:	41 b9 4b 00 00 00    	mov    $0x4b,%r9d
  401b5e:	68 2f 2a 40 00       	pushq  $0x402a2f
  401b63:	68 17 2a 40 00       	pushq  $0x402a17
  401b68:	68 f7 29 40 00       	pushq  $0x4029f7
  401b6d:	68 eb 29 40 00       	pushq  $0x4029eb
  401b72:	68 e7 29 40 00       	pushq  $0x4029e7
  401b77:	68 e3 29 40 00       	pushq  $0x4029e3
  401b7c:	68 e3 29 40 00       	pushq  $0x4029e3
  401b81:	68 d7 29 40 00       	pushq  $0x4029d7
  401b86:	68 d3 29 40 00       	pushq  $0x4029d3
  401b8b:	50                   	push   %rax
  401b8c:	68 ba 29 40 00       	pushq  $0x4029ba
  401b91:	e8 da 09 00 00       	callq  402570 <c_print_results>
  401b96:	48 83 c4 60          	add    $0x60,%rsp
  401b9a:	31 c0                	xor    %eax,%eax
  401b9c:	48 83 c4 68          	add    $0x68,%rsp
  401ba0:	5b                   	pop    %rbx
  401ba1:	41 5c                	pop    %r12
  401ba3:	41 5d                	pop    %r13
  401ba5:	41 5e                	pop    %r14
  401ba7:	41 5f                	pop    %r15
  401ba9:	5d                   	pop    %rbp
  401baa:	c3                   	retq   
  401bab:	bf 20 2b 40 00       	mov    $0x402b20,%edi
  401bb0:	44 89 d3             	mov    %r10d,%ebx
  401bb3:	e8 88 ea ff ff       	callq  400640 <puts@plt>
  401bb8:	bf 36 2a 40 00       	mov    $0x402a36,%edi
  401bbd:	31 c0                	xor    %eax,%eax
  401bbf:	89 ee                	mov    %ebp,%esi
  401bc1:	89 da                	mov    %ebx,%edx
  401bc3:	e8 88 ea ff ff       	callq  400650 <printf@plt>
  401bc8:	bf 4c 2a 40 00       	mov    $0x402a4c,%edi
  401bcd:	31 c0                	xor    %eax,%eax
  401bcf:	48 8b 74 24 10       	mov    0x10(%rsp),%rsi
  401bd4:	e8 77 ea ff ff       	callq  400650 <printf@plt>
  401bd9:	bf 01 00 00 00       	mov    $0x1,%edi
  401bde:	e8 cd ea ff ff       	callq  4006b0 <exit@plt>
  401be3:	01 c3                	add    %eax,%ebx
  401be5:	bf 20 2b 40 00       	mov    $0x402b20,%edi
  401bea:	45 89 d6             	mov    %r10d,%r14d
  401bed:	4c 89 c5             	mov    %r8,%rbp
  401bf0:	e8 4b ea ff ff       	callq  400640 <puts@plt>
  401bf5:	bf 36 2a 40 00       	mov    $0x402a36,%edi
  401bfa:	31 c0                	xor    %eax,%eax
  401bfc:	89 ee                	mov    %ebp,%esi
  401bfe:	44 89 f2             	mov    %r14d,%edx
  401c01:	e8 4a ea ff ff       	callq  400650 <printf@plt>
  401c06:	bf 4c 2a 40 00       	mov    $0x402a4c,%edi
  401c0b:	31 c0                	xor    %eax,%eax
  401c0d:	89 de                	mov    %ebx,%esi
  401c0f:	eb c3                	jmp    401bd4 <main+0x13f4>
  401c11:	66 66 66 66 66 66 2e 	data16 data16 data16 data16 data16 nopw %cs:0x0(%rax,%rax,1)
  401c18:	0f 1f 84 00 00 00 00 
  401c1f:	00 

0000000000401c20 <conj_grad>:
  401c20:	55                   	push   %rbp
  401c21:	41 57                	push   %r15
  401c23:	41 56                	push   %r14
  401c25:	41 55                	push   %r13
  401c27:	41 54                	push   %r12
  401c29:	53                   	push   %rbx
  401c2a:	48 83 ec 78          	sub    $0x78,%rsp
  401c2e:	48 89 7c 24 18       	mov    %rdi,0x18(%rsp)
  401c33:	48 c7 05 0a 23 d7 1a 	movq   $0x0,0x1ad7230a(%rip)        # 1b173f48 <conj_grad.rho>
  401c3a:	00 00 00 00 
  401c3e:	8a 05 5c 24 20 00    	mov    0x20245c(%rip),%al        # 6040a0 <naa>
  401c44:	84 c0                	test   %al,%al
  401c46:	b8 c8 27 09 00       	mov    $0x927c8,%eax
  401c4b:	bb 08 00 00 00       	mov    $0x8,%ebx
  401c50:	48 0f 45 d8          	cmovne %rax,%rbx
  401c54:	31 ed                	xor    %ebp,%ebp
  401c56:	bf a8 c7 fb 1a       	mov    $0x1afbc7a8,%edi
  401c5b:	31 f6                	xor    %esi,%esi
  401c5d:	48 89 da             	mov    %rbx,%rdx
  401c60:	e8 0b ea ff ff       	callq  400670 <memset@plt>
  401c65:	bf e8 77 e9 1a       	mov    $0x1ae977e8,%edi
  401c6a:	31 f6                	xor    %esi,%esi
  401c6c:	48 89 da             	mov    %rbx,%rdx
  401c6f:	e8 fc e9 ff ff       	callq  400670 <memset@plt>
  401c74:	bf 68 17 0e 1b       	mov    $0x1b0e1768,%edi
  401c79:	31 f6                	xor    %esi,%esi
  401c7b:	48 89 da             	mov    %rbx,%rdx
  401c7e:	e8 ed e9 ff ff       	callq  400670 <memset@plt>
  401c83:	bf 88 ef 04 1b       	mov    $0x1b04ef88,%edi
  401c88:	be 08 50 e0 1a       	mov    $0x1ae05008,%esi
  401c8d:	48 89 da             	mov    %rbx,%rdx
  401c90:	e8 0b ea ff ff       	callq  4006a0 <memcpy@plt>
  401c95:	bf c8 9f f2 1a       	mov    $0x1af29fc8,%edi
  401c9a:	be 08 50 e0 1a       	mov    $0x1ae05008,%esi
  401c9f:	48 89 da             	mov    %rbx,%rdx
  401ca2:	e8 f9 e9 ff ff       	callq  4006a0 <memcpy@plt>
  401ca7:	8a 05 ef 23 20 00    	mov    0x2023ef(%rip),%al        # 60409c <lastcol>
  401cad:	8b 0d e5 23 20 00    	mov    0x2023e5(%rip),%ecx        # 604098 <firstcol>
  401cb3:	c1 e1 1f             	shl    $0x1f,%ecx
  401cb6:	c1 f9 1f             	sar    $0x1f,%ecx
  401cb9:	84 c0                	test   %al,%al
  401cbb:	b8 f9 24 01 00       	mov    $0x124f9,%eax
  401cc0:	41 be 01 00 00 00    	mov    $0x1,%r14d
  401cc6:	41 b8 01 00 00 00    	mov    $0x1,%r8d
  401ccc:	44 0f 45 c0          	cmovne %eax,%r8d
  401cd0:	41 01 c8             	add    %ecx,%r8d
  401cd3:	45 85 c0             	test   %r8d,%r8d
  401cd6:	4d 63 d0             	movslq %r8d,%r10
  401cd9:	0f 8e b3 00 00 00    	jle    401d92 <conj_grad+0x172>
  401cdf:	49 8d 52 ff          	lea    -0x1(%r10),%rdx
  401ce3:	44 89 d0             	mov    %r10d,%eax
  401ce6:	83 e0 03             	and    $0x3,%eax
  401ce9:	b9 01 00 00 00       	mov    $0x1,%ecx
  401cee:	48 83 fa 03          	cmp    $0x3,%rdx
  401cf2:	73 06                	jae    401cfa <conj_grad+0xda>
  401cf4:	66 0f 57 c0          	xorpd  %xmm0,%xmm0
  401cf8:	eb 66                	jmp    401d60 <conj_grad+0x140>
  401cfa:	4c 89 d2             	mov    %r10,%rdx
  401cfd:	48 29 c2             	sub    %rax,%rdx
  401d00:	66 0f 57 c0          	xorpd  %xmm0,%xmm0
  401d04:	31 c9                	xor    %ecx,%ecx
  401d06:	66 2e 0f 1f 84 00 00 	nopw   %cs:0x0(%rax,%rax,1)
  401d0d:	00 00 00 
  401d10:	f2 0f 10 0c cd 08 50 	movsd  0x1ae05008(,%rcx,8),%xmm1
  401d17:	e0 1a 
  401d19:	f2 0f 59 c9          	mulsd  %xmm1,%xmm1
  401d1d:	f2 0f 58 c8          	addsd  %xmm0,%xmm1
  401d21:	f2 0f 10 04 cd 10 50 	movsd  0x1ae05010(,%rcx,8),%xmm0
  401d28:	e0 1a 
  401d2a:	f2 0f 59 c0          	mulsd  %xmm0,%xmm0
  401d2e:	f2 0f 58 c1          	addsd  %xmm1,%xmm0
  401d32:	f2 0f 10 0c cd 18 50 	movsd  0x1ae05018(,%rcx,8),%xmm1
  401d39:	e0 1a 
  401d3b:	f2 0f 59 c9          	mulsd  %xmm1,%xmm1
  401d3f:	f2 0f 58 c8          	addsd  %xmm0,%xmm1
  401d43:	f2 0f 10 04 cd 20 50 	movsd  0x1ae05020(,%rcx,8),%xmm0
  401d4a:	e0 1a 
  401d4c:	f2 0f 59 c0          	mulsd  %xmm0,%xmm0
  401d50:	f2 0f 58 c1          	addsd  %xmm1,%xmm0
  401d54:	48 83 c1 04          	add    $0x4,%rcx
  401d58:	48 39 ca             	cmp    %rcx,%rdx
  401d5b:	75 b3                	jne    401d10 <conj_grad+0xf0>
  401d5d:	48 ff c1             	inc    %rcx
  401d60:	48 85 c0             	test   %rax,%rax
  401d63:	74 20                	je     401d85 <conj_grad+0x165>
  401d65:	48 8d 0c cd 00 50 e0 	lea    0x1ae05000(,%rcx,8),%rcx
  401d6c:	1a 
  401d6d:	48 f7 d8             	neg    %rax
  401d70:	f2 0f 10 09          	movsd  (%rcx),%xmm1
  401d74:	f2 0f 59 c9          	mulsd  %xmm1,%xmm1
  401d78:	f2 0f 58 c1          	addsd  %xmm1,%xmm0
  401d7c:	48 83 c1 08          	add    $0x8,%rcx
  401d80:	48 ff c0             	inc    %rax
  401d83:	75 eb                	jne    401d70 <conj_grad+0x150>
  401d85:	f2 0f 11 05 bb 21 d7 	movsd  %xmm0,0x1ad721bb(%rip)        # 1b173f48 <conj_grad.rho>
  401d8c:	1a 
  401d8d:	66 48 0f 7e c5       	movq   %xmm0,%rbp
  401d92:	8a 05 fc 22 20 00    	mov    0x2022fc(%rip),%al        # 604094 <lastrow>
  401d98:	8b 0d f2 22 20 00    	mov    0x2022f2(%rip),%ecx        # 604090 <firstrow>
  401d9e:	c1 e1 1f             	shl    $0x1f,%ecx
  401da1:	c1 f9 1f             	sar    $0x1f,%ecx
  401da4:	84 c0                	test   %al,%al
  401da6:	b8 f9 24 01 00       	mov    $0x124f9,%eax
  401dab:	41 0f 44 c6          	cmove  %r14d,%eax
  401daf:	01 c8                	add    %ecx,%eax
  401db1:	89 44 24 04          	mov    %eax,0x4(%rsp)
  401db5:	4c 63 f8             	movslq %eax,%r15
  401db8:	45 85 d2             	test   %r10d,%r10d
  401dbb:	b8 01 00 00 00       	mov    $0x1,%eax
  401dc0:	41 0f 4f c2          	cmovg  %r10d,%eax
  401dc4:	ff c8                	dec    %eax
  401dc6:	48 8d 04 c5 08 00 00 	lea    0x8(,%rax,8),%rax
  401dcd:	00 
  401dce:	48 89 44 24 50       	mov    %rax,0x50(%rsp)
  401dd3:	49 8d 42 ff          	lea    -0x1(%r10),%rax
  401dd7:	48 89 44 24 08       	mov    %rax,0x8(%rsp)
  401ddc:	49 8d 42 fc          	lea    -0x4(%r10),%rax
  401de0:	48 c1 e8 02          	shr    $0x2,%rax
  401de4:	8d 48 01             	lea    0x1(%rax),%ecx
  401de7:	45 89 d4             	mov    %r10d,%r12d
  401dea:	41 83 e4 03          	and    $0x3,%r12d
  401dee:	44 89 d2             	mov    %r10d,%edx
  401df1:	83 e2 01             	and    $0x1,%edx
  401df4:	4c 89 d6             	mov    %r10,%rsi
  401df7:	48 83 e6 fc          	and    $0xfffffffffffffffc,%rsi
  401dfb:	48 89 74 24 10       	mov    %rsi,0x10(%rsp)
  401e00:	48 ff c6             	inc    %rsi
  401e03:	48 89 74 24 28       	mov    %rsi,0x28(%rsp)
  401e08:	83 e1 01             	and    $0x1,%ecx
  401e0b:	4c 89 d3             	mov    %r10,%rbx
  401e0e:	48 89 54 24 48       	mov    %rdx,0x48(%rsp)
  401e13:	48 29 d3             	sub    %rdx,%rbx
  401e16:	4d 89 d5             	mov    %r10,%r13
  401e19:	4d 29 e5             	sub    %r12,%r13
  401e1c:	4c 89 e2             	mov    %r12,%rdx
  401e1f:	48 f7 da             	neg    %rdx
  401e22:	48 89 54 24 40       	mov    %rdx,0x40(%rsp)
  401e27:	48 89 4c 24 30       	mov    %rcx,0x30(%rsp)
  401e2c:	48 ff c9             	dec    %rcx
  401e2f:	48 89 44 24 38       	mov    %rax,0x38(%rsp)
  401e34:	48 29 c1             	sub    %rax,%rcx
  401e37:	48 89 4c 24 20       	mov    %rcx,0x20(%rsp)
  401e3c:	4c 89 54 24 58       	mov    %r10,0x58(%rsp)
  401e41:	66 66 66 66 66 66 2e 	data16 data16 data16 data16 data16 nopw %cs:0x0(%rax,%rax,1)
  401e48:	0f 1f 84 00 00 00 00 
  401e4f:	00 
  401e50:	83 7c 24 04 00       	cmpl   $0x0,0x4(%rsp)
  401e55:	66 0f 57 c9          	xorpd  %xmm1,%xmm1
  401e59:	0f 8e af 00 00 00    	jle    401f0e <conj_grad+0x2ee>
  401e5f:	b8 01 00 00 00       	mov    $0x1,%eax
  401e64:	66 66 66 2e 0f 1f 84 	data16 data16 nopw %cs:0x0(%rax,%rax,1)
  401e6b:	00 00 00 00 00 
  401e70:	48 63 0c 85 c0 e5 b1 	movslq 0xbb1e5c0(,%rax,4),%rcx
  401e77:	0b 
  401e78:	48 63 14 85 c4 e5 b1 	movslq 0xbb1e5c4(,%rax,4),%rdx
  401e7f:	0b 
  401e80:	66 0f 57 c9          	xorpd  %xmm1,%xmm1
  401e84:	39 d1                	cmp    %edx,%ecx
  401e86:	be 00 00 00 00       	mov    $0x0,%esi
  401e8b:	7d 63                	jge    401ef0 <conj_grad+0x2d0>
  401e8d:	66 0f 57 c9          	xorpd  %xmm1,%xmm1
  401e91:	66 66 66 66 66 66 2e 	data16 data16 data16 data16 data16 nopw %cs:0x0(%rax,%rax,1)
  401e98:	0f 1f 84 00 00 00 00 
  401e9f:	00 
  401ea0:	f2 0f 10 04 cd c0 40 	movsd  0x6040c0(,%rcx,8),%xmm0
  401ea7:	60 00 
  401ea9:	48 63 34 8d 10 04 ec 	movslq 0x7ec0410(,%rcx,4),%rsi
  401eb0:	07 
  401eb1:	f2 0f 59 04 f5 c0 9f 	mulsd  0x1af29fc0(,%rsi,8),%xmm0
  401eb8:	f2 1a 
  401eba:	0f 18 0c 8d 10 08 ec 	prefetcht0 0x7ec0810(,%rcx,4)
  401ec1:	07 
  401ec2:	48 8d 71 7f          	lea    0x7f(%rcx),%rsi
  401ec6:	48 81 fe 67 78 f1 00 	cmp    $0xf17867,%rsi
  401ecd:	7f 10                	jg     401edf <conj_grad+0x2bf>
  401ecf:	48 63 34 8d 10 06 ec 	movslq 0x7ec0610(,%rcx,4),%rsi
  401ed6:	07 
  401ed7:	0f 18 0c f5 c0 9f f2 	prefetcht0 0x1af29fc0(,%rsi,8)
  401ede:	1a 
  401edf:	f2 0f 58 c8          	addsd  %xmm0,%xmm1
  401ee3:	48 ff c1             	inc    %rcx
  401ee6:	48 39 d1             	cmp    %rdx,%rcx
  401ee9:	7c b5                	jl     401ea0 <conj_grad+0x280>
  401eeb:	66 48 0f 7e ce       	movq   %xmm1,%rsi
  401ef0:	f2 0f 11 0c c5 60 17 	movsd  %xmm1,0x1b0e1760(,%rax,8)
  401ef7:	0e 1b 
  401ef9:	48 89 34 c5 a0 c7 fb 	mov    %rsi,0x1afbc7a0(,%rax,8)
  401f00:	1a 
  401f01:	4c 39 f8             	cmp    %r15,%rax
  401f04:	48 8d 40 01          	lea    0x1(%rax),%rax
  401f08:	0f 8c 62 ff ff ff    	jl     401e70 <conj_grad+0x250>
  401f0e:	66 48 0f 6e ed       	movq   %rbp,%xmm5
  401f13:	45 85 c0             	test   %r8d,%r8d
  401f16:	48 89 6c 24 68       	mov    %rbp,0x68(%rsp)
  401f1b:	f2 0f 11 4c 24 60    	movsd  %xmm1,0x60(%rsp)
  401f21:	0f 8e a9 03 00 00    	jle    4022d0 <conj_grad+0x6b0>
  401f27:	f2 0f 11 6c 24 70    	movsd  %xmm5,0x70(%rsp)
  401f2d:	44 89 c5             	mov    %r8d,%ebp
  401f30:	bf 68 17 0e 1b       	mov    $0x1b0e1768,%edi
  401f35:	31 f6                	xor    %esi,%esi
  401f37:	48 8b 54 24 50       	mov    0x50(%rsp),%rdx
  401f3c:	e8 2f e7 ff ff       	callq  400670 <memset@plt>
  401f41:	48 83 7c 24 08 03    	cmpq   $0x3,0x8(%rsp)
  401f47:	66 0f 57 c0          	xorpd  %xmm0,%xmm0
  401f4b:	b8 01 00 00 00       	mov    $0x1,%eax
  401f50:	72 72                	jb     401fc4 <conj_grad+0x3a4>
  401f52:	66 0f 57 c0          	xorpd  %xmm0,%xmm0
  401f56:	31 c0                	xor    %eax,%eax
  401f58:	0f 1f 84 00 00 00 00 	nopl   0x0(%rax,%rax,1)
  401f5f:	00 
  401f60:	f2 0f 10 0c c5 c8 9f 	movsd  0x1af29fc8(,%rax,8),%xmm1
  401f67:	f2 1a 
  401f69:	f2 0f 59 0c c5 a8 c7 	mulsd  0x1afbc7a8(,%rax,8),%xmm1
  401f70:	fb 1a 
  401f72:	f2 0f 58 c8          	addsd  %xmm0,%xmm1
  401f76:	f2 0f 10 04 c5 d0 9f 	movsd  0x1af29fd0(,%rax,8),%xmm0
  401f7d:	f2 1a 
  401f7f:	f2 0f 59 04 c5 b0 c7 	mulsd  0x1afbc7b0(,%rax,8),%xmm0
  401f86:	fb 1a 
  401f88:	f2 0f 58 c1          	addsd  %xmm1,%xmm0
  401f8c:	f2 0f 10 0c c5 d8 9f 	movsd  0x1af29fd8(,%rax,8),%xmm1
  401f93:	f2 1a 
  401f95:	f2 0f 59 0c c5 b8 c7 	mulsd  0x1afbc7b8(,%rax,8),%xmm1
  401f9c:	fb 1a 
  401f9e:	f2 0f 58 c8          	addsd  %xmm0,%xmm1
  401fa2:	f2 0f 10 04 c5 e0 9f 	movsd  0x1af29fe0(,%rax,8),%xmm0
  401fa9:	f2 1a 
  401fab:	f2 0f 59 04 c5 c0 c7 	mulsd  0x1afbc7c0(,%rax,8),%xmm0
  401fb2:	fb 1a 
  401fb4:	f2 0f 58 c1          	addsd  %xmm1,%xmm0
  401fb8:	48 83 c0 04          	add    $0x4,%rax
  401fbc:	49 39 c5             	cmp    %rax,%r13
  401fbf:	75 9f                	jne    401f60 <conj_grad+0x340>
  401fc1:	48 ff c0             	inc    %rax
  401fc4:	4d 85 e4             	test   %r12,%r12
  401fc7:	41 89 e8             	mov    %ebp,%r8d
  401fca:	f2 0f 10 6c 24 70    	movsd  0x70(%rsp),%xmm5
  401fd0:	74 2b                	je     401ffd <conj_grad+0x3dd>
  401fd2:	48 c1 e0 03          	shl    $0x3,%rax
  401fd6:	48 8b 4c 24 40       	mov    0x40(%rsp),%rcx
  401fdb:	0f 1f 44 00 00       	nopl   0x0(%rax,%rax,1)
  401fe0:	f2 0f 10 88 c0 9f f2 	movsd  0x1af29fc0(%rax),%xmm1
  401fe7:	1a 
  401fe8:	f2 0f 59 88 a0 c7 fb 	mulsd  0x1afbc7a0(%rax),%xmm1
  401fef:	1a 
  401ff0:	f2 0f 58 c1          	addsd  %xmm1,%xmm0
  401ff4:	48 83 c0 08          	add    $0x8,%rax
  401ff8:	48 ff c1             	inc    %rcx
  401ffb:	75 e3                	jne    401fe0 <conj_grad+0x3c0>
  401ffd:	45 85 c0             	test   %r8d,%r8d
  402000:	66 0f 28 cd          	movapd %xmm5,%xmm1
  402004:	f2 0f 5e c8          	divsd  %xmm0,%xmm1
  402008:	4c 8b 54 24 58       	mov    0x58(%rsp),%r10
  40200d:	0f 8e c9 02 00 00    	jle    4022dc <conj_grad+0x6bc>
  402013:	66 0f 57 d2          	xorpd  %xmm2,%xmm2
  402017:	48 83 7c 24 08 00    	cmpq   $0x0,0x8(%rsp)
  40201d:	b8 01 00 00 00       	mov    $0x1,%eax
  402022:	0f 84 ac 00 00 00    	je     4020d4 <conj_grad+0x4b4>
  402028:	66 0f 57 d2          	xorpd  %xmm2,%xmm2
  40202c:	31 c0                	xor    %eax,%eax
  40202e:	66 90                	xchg   %ax,%ax
  402030:	f2 0f 10 1c c5 88 ef 	movsd  0x1b04ef88(,%rax,8),%xmm3
  402037:	04 1b 
  402039:	f2 0f 10 24 c5 a8 c7 	movsd  0x1afbc7a8(,%rax,8),%xmm4
  402040:	fb 1a 
  402042:	f2 0f 59 e1          	mulsd  %xmm1,%xmm4
  402046:	f2 0f 5c dc          	subsd  %xmm4,%xmm3
  40204a:	f2 0f 10 24 c5 c8 9f 	movsd  0x1af29fc8(,%rax,8),%xmm4
  402051:	f2 1a 
  402053:	f2 0f 59 e1          	mulsd  %xmm1,%xmm4
  402057:	f2 0f 58 24 c5 e8 77 	addsd  0x1ae977e8(,%rax,8),%xmm4
  40205e:	e9 1a 
  402060:	f2 0f 11 24 c5 e8 77 	movsd  %xmm4,0x1ae977e8(,%rax,8)
  402067:	e9 1a 
  402069:	f2 0f 11 1c c5 88 ef 	movsd  %xmm3,0x1b04ef88(,%rax,8)
  402070:	04 1b 
  402072:	f2 0f 59 db          	mulsd  %xmm3,%xmm3
  402076:	f2 0f 58 da          	addsd  %xmm2,%xmm3
  40207a:	f2 0f 10 14 c5 90 ef 	movsd  0x1b04ef90(,%rax,8),%xmm2
  402081:	04 1b 
  402083:	f2 0f 10 24 c5 b0 c7 	movsd  0x1afbc7b0(,%rax,8),%xmm4
  40208a:	fb 1a 
  40208c:	f2 0f 59 e1          	mulsd  %xmm1,%xmm4
  402090:	f2 0f 5c d4          	subsd  %xmm4,%xmm2
  402094:	f2 0f 10 24 c5 d0 9f 	movsd  0x1af29fd0(,%rax,8),%xmm4
  40209b:	f2 1a 
  40209d:	f2 0f 59 e1          	mulsd  %xmm1,%xmm4
  4020a1:	f2 0f 58 24 c5 f0 77 	addsd  0x1ae977f0(,%rax,8),%xmm4
  4020a8:	e9 1a 
  4020aa:	f2 0f 11 24 c5 f0 77 	movsd  %xmm4,0x1ae977f0(,%rax,8)
  4020b1:	e9 1a 
  4020b3:	f2 0f 11 14 c5 90 ef 	movsd  %xmm2,0x1b04ef90(,%rax,8)
  4020ba:	04 1b 
  4020bc:	f2 0f 59 d2          	mulsd  %xmm2,%xmm2
  4020c0:	f2 0f 58 d3          	addsd  %xmm3,%xmm2
  4020c4:	48 83 c0 02          	add    $0x2,%rax
  4020c8:	48 39 c3             	cmp    %rax,%rbx
  4020cb:	0f 85 5f ff ff ff    	jne    402030 <conj_grad+0x410>
  4020d1:	48 ff c0             	inc    %rax
  4020d4:	48 83 7c 24 48 00    	cmpq   $0x0,0x48(%rsp)
  4020da:	74 4a                	je     402126 <conj_grad+0x506>
  4020dc:	f2 0f 10 1c c5 80 ef 	movsd  0x1b04ef80(,%rax,8),%xmm3
  4020e3:	04 1b 
  4020e5:	f2 0f 10 24 c5 a0 c7 	movsd  0x1afbc7a0(,%rax,8),%xmm4
  4020ec:	fb 1a 
  4020ee:	f2 0f 59 e1          	mulsd  %xmm1,%xmm4
  4020f2:	f2 0f 5c dc          	subsd  %xmm4,%xmm3
  4020f6:	f2 0f 10 24 c5 c0 9f 	movsd  0x1af29fc0(,%rax,8),%xmm4
  4020fd:	f2 1a 
  4020ff:	f2 0f 59 e1          	mulsd  %xmm1,%xmm4
  402103:	f2 0f 58 24 c5 e0 77 	addsd  0x1ae977e0(,%rax,8),%xmm4
  40210a:	e9 1a 
  40210c:	f2 0f 11 24 c5 e0 77 	movsd  %xmm4,0x1ae977e0(,%rax,8)
  402113:	e9 1a 
  402115:	f2 0f 11 1c c5 80 ef 	movsd  %xmm3,0x1b04ef80(,%rax,8)
  40211c:	04 1b 
  40211e:	f2 0f 59 db          	mulsd  %xmm3,%xmm3
  402122:	f2 0f 58 d3          	addsd  %xmm3,%xmm2
  402126:	45 85 c0             	test   %r8d,%r8d
  402129:	66 44 0f 28 c2       	movapd %xmm2,%xmm8
  40212e:	f2 44 0f 5e c5       	divsd  %xmm5,%xmm8
  402133:	66 48 0f 7e d5       	movq   %xmm2,%rbp
  402138:	0f 8e ae 01 00 00    	jle    4022ec <conj_grad+0x6cc>
  40213e:	41 83 f8 04          	cmp    $0x4,%r8d
  402142:	b8 01 00 00 00       	mov    $0x1,%eax
  402147:	0f 82 43 01 00 00    	jb     402290 <conj_grad+0x670>
  40214d:	48 83 7c 24 10 00    	cmpq   $0x0,0x10(%rsp)
  402153:	b8 01 00 00 00       	mov    $0x1,%eax
  402158:	0f 84 32 01 00 00    	je     402290 <conj_grad+0x670>
  40215e:	48 83 7c 24 38 00    	cmpq   $0x0,0x38(%rsp)
  402164:	66 41 0f 28 e0       	movapd %xmm8,%xmm4
  402169:	0f 16 e4             	movlhps %xmm4,%xmm4
  40216c:	b8 01 00 00 00       	mov    $0x1,%eax
  402171:	0f 84 b3 00 00 00    	je     40222a <conj_grad+0x60a>
  402177:	48 8b 4c 24 20       	mov    0x20(%rsp),%rcx
  40217c:	b8 01 00 00 00       	mov    $0x1,%eax
  402181:	66 66 66 66 66 66 2e 	data16 data16 data16 data16 data16 nopw %cs:0x0(%rax,%rax,1)
  402188:	0f 1f 84 00 00 00 00 
  40218f:	00 
  402190:	66 0f 10 2c c5 80 ef 	movupd 0x1b04ef80(,%rax,8),%xmm5
  402197:	04 1b 
  402199:	66 0f 10 34 c5 90 ef 	movupd 0x1b04ef90(,%rax,8),%xmm6
  4021a0:	04 1b 
  4021a2:	66 0f 10 3c c5 c0 9f 	movupd 0x1af29fc0(,%rax,8),%xmm7
  4021a9:	f2 1a 
  4021ab:	66 0f 10 1c c5 d0 9f 	movupd 0x1af29fd0(,%rax,8),%xmm3
  4021b2:	f2 1a 
  4021b4:	66 0f 59 fc          	mulpd  %xmm4,%xmm7
  4021b8:	66 0f 59 dc          	mulpd  %xmm4,%xmm3
  4021bc:	66 0f 58 fd          	addpd  %xmm5,%xmm7
  4021c0:	66 0f 58 de          	addpd  %xmm6,%xmm3
  4021c4:	66 0f 11 3c c5 c0 9f 	movupd %xmm7,0x1af29fc0(,%rax,8)
  4021cb:	f2 1a 
  4021cd:	66 0f 11 1c c5 d0 9f 	movupd %xmm3,0x1af29fd0(,%rax,8)
  4021d4:	f2 1a 
  4021d6:	66 0f 10 1c c5 a0 ef 	movupd 0x1b04efa0(,%rax,8),%xmm3
  4021dd:	04 1b 
  4021df:	66 0f 10 2c c5 b0 ef 	movupd 0x1b04efb0(,%rax,8),%xmm5
  4021e6:	04 1b 
  4021e8:	66 0f 10 34 c5 e0 9f 	movupd 0x1af29fe0(,%rax,8),%xmm6
  4021ef:	f2 1a 
  4021f1:	66 0f 10 3c c5 f0 9f 	movupd 0x1af29ff0(,%rax,8),%xmm7
  4021f8:	f2 1a 
  4021fa:	66 0f 59 f4          	mulpd  %xmm4,%xmm6
  4021fe:	66 0f 59 fc          	mulpd  %xmm4,%xmm7
  402202:	66 0f 58 f3          	addpd  %xmm3,%xmm6
  402206:	66 0f 58 fd          	addpd  %xmm5,%xmm7
  40220a:	66 0f 11 34 c5 e0 9f 	movupd %xmm6,0x1af29fe0(,%rax,8)
  402211:	f2 1a 
  402213:	66 0f 11 3c c5 f0 9f 	movupd %xmm7,0x1af29ff0(,%rax,8)
  40221a:	f2 1a 
  40221c:	48 8d 40 08          	lea    0x8(%rax),%rax
  402220:	48 83 c1 02          	add    $0x2,%rcx
  402224:	0f 85 66 ff ff ff    	jne    402190 <conj_grad+0x570>
  40222a:	48 83 7c 24 30 00    	cmpq   $0x0,0x30(%rsp)
  402230:	74 46                	je     402278 <conj_grad+0x658>
  402232:	66 0f 10 1c c5 80 ef 	movupd 0x1b04ef80(,%rax,8),%xmm3
  402239:	04 1b 
  40223b:	66 0f 10 2c c5 90 ef 	movupd 0x1b04ef90(,%rax,8),%xmm5
  402242:	04 1b 
  402244:	66 0f 10 34 c5 c0 9f 	movupd 0x1af29fc0(,%rax,8),%xmm6
  40224b:	f2 1a 
  40224d:	66 0f 10 3c c5 d0 9f 	movupd 0x1af29fd0(,%rax,8),%xmm7
  402254:	f2 1a 
  402256:	66 0f 59 f4          	mulpd  %xmm4,%xmm6
  40225a:	66 0f 59 fc          	mulpd  %xmm4,%xmm7
  40225e:	66 0f 58 f3          	addpd  %xmm3,%xmm6
  402262:	66 0f 58 fd          	addpd  %xmm5,%xmm7
  402266:	66 0f 11 34 c5 c0 9f 	movupd %xmm6,0x1af29fc0(,%rax,8)
  40226d:	f2 1a 
  40226f:	66 0f 11 3c c5 d0 9f 	movupd %xmm7,0x1af29fd0(,%rax,8)
  402276:	f2 1a 
  402278:	4c 3b 54 24 10       	cmp    0x10(%rsp),%r10
  40227d:	48 8b 44 24 28       	mov    0x28(%rsp),%rax
  402282:	74 68                	je     4022ec <conj_grad+0x6cc>
  402284:	66 66 66 2e 0f 1f 84 	data16 data16 nopw %cs:0x0(%rax,%rax,1)
  40228b:	00 00 00 00 00 
  402290:	48 ff c8             	dec    %rax
  402293:	66 66 66 66 2e 0f 1f 	data16 data16 data16 nopw %cs:0x0(%rax,%rax,1)
  40229a:	84 00 00 00 00 00 
  4022a0:	f2 0f 10 1c c5 c8 9f 	movsd  0x1af29fc8(,%rax,8),%xmm3
  4022a7:	f2 1a 
  4022a9:	f2 41 0f 59 d8       	mulsd  %xmm8,%xmm3
  4022ae:	f2 0f 58 1c c5 88 ef 	addsd  0x1b04ef88(,%rax,8),%xmm3
  4022b5:	04 1b 
  4022b7:	f2 0f 11 1c c5 c8 9f 	movsd  %xmm3,0x1af29fc8(,%rax,8)
  4022be:	f2 1a 
  4022c0:	48 ff c0             	inc    %rax
  4022c3:	4c 39 d0             	cmp    %r10,%rax
  4022c6:	7c d8                	jl     4022a0 <conj_grad+0x680>
  4022c8:	eb 22                	jmp    4022ec <conj_grad+0x6cc>
  4022ca:	66 0f 1f 44 00 00    	nopw   0x0(%rax,%rax,1)
  4022d0:	66 0f 57 c0          	xorpd  %xmm0,%xmm0
  4022d4:	66 0f 28 cd          	movapd %xmm5,%xmm1
  4022d8:	f2 0f 5e c8          	divsd  %xmm0,%xmm1
  4022dc:	66 0f 57 d2          	xorpd  %xmm2,%xmm2
  4022e0:	66 45 0f 57 c0       	xorpd  %xmm8,%xmm8
  4022e5:	f2 44 0f 5e c5       	divsd  %xmm5,%xmm8
  4022ea:	31 ed                	xor    %ebp,%ebp
  4022ec:	41 ff c6             	inc    %r14d
  4022ef:	41 83 fe 1a          	cmp    $0x1a,%r14d
  4022f3:	0f 85 57 fb ff ff    	jne    401e50 <conj_grad+0x230>
  4022f9:	83 7c 24 04 00       	cmpl   $0x0,0x4(%rsp)
  4022fe:	f2 0f 10 5c 24 60    	movsd  0x60(%rsp),%xmm3
  402304:	f2 0f 11 1d 34 1c d7 	movsd  %xmm3,0x1ad71c34(%rip)        # 1b173f40 <conj_grad.sum>
  40230b:	1a 
  40230c:	48 8b 44 24 68       	mov    0x68(%rsp),%rax
  402311:	48 89 05 38 1c d7 1a 	mov    %rax,0x1ad71c38(%rip)        # 1b173f50 <conj_grad.rho0>
  402318:	f2 0f 11 15 28 1c d7 	movsd  %xmm2,0x1ad71c28(%rip)        # 1b173f48 <conj_grad.rho>
  40231f:	1a 
  402320:	f2 0f 11 05 10 1c d7 	movsd  %xmm0,0x1ad71c10(%rip)        # 1b173f38 <conj_grad.d>
  402327:	1a 
  402328:	f2 0f 11 0d 28 1c d7 	movsd  %xmm1,0x1ad71c28(%rip)        # 1b173f58 <conj_grad.alpha>
  40232f:	1a 
  402330:	f2 44 0f 11 05 27 1c 	movsd  %xmm8,0x1ad71c27(%rip)        # 1b173f60 <conj_grad.beta>
  402337:	d7 1a 
  402339:	48 c7 05 fc 1b d7 1a 	movq   $0x0,0x1ad71bfc(%rip)        # 1b173f40 <conj_grad.sum>
  402340:	00 00 00 00 
  402344:	0f 8e eb 00 00 00    	jle    402435 <conj_grad+0x815>
  40234a:	8b 0d 74 c2 71 0b    	mov    0xb71c274(%rip),%ecx        # bb1e5c4 <rowstr+0x4>
  402350:	b8 01 00 00 00       	mov    $0x1,%eax
  402355:	66 66 2e 0f 1f 84 00 	data16 nopw %cs:0x0(%rax,%rax,1)
  40235c:	00 00 00 00 
  402360:	8b 2c 85 c4 e5 b1 0b 	mov    0xbb1e5c4(,%rax,4),%ebp
  402367:	66 0f 57 c0          	xorpd  %xmm0,%xmm0
  40236b:	39 e9                	cmp    %ebp,%ecx
  40236d:	ba 00 00 00 00       	mov    $0x0,%edx
  402372:	0f 8d 95 00 00 00    	jge    40240d <conj_grad+0x7ed>
  402378:	48 63 fd             	movslq %ebp,%rdi
  40237b:	48 63 d1             	movslq %ecx,%rdx
  40237e:	89 ee                	mov    %ebp,%esi
  402380:	29 ce                	sub    %ecx,%esi
  402382:	48 8d 4f ff          	lea    -0x1(%rdi),%rcx
  402386:	83 e6 01             	and    $0x1,%esi
  402389:	66 0f 57 c0          	xorpd  %xmm0,%xmm0
  40238d:	48 39 d1             	cmp    %rdx,%rcx
  402390:	74 53                	je     4023e5 <conj_grad+0x7c5>
  402392:	48 29 f7             	sub    %rsi,%rdi
  402395:	66 0f 57 c0          	xorpd  %xmm0,%xmm0
  402399:	0f 1f 80 00 00 00 00 	nopl   0x0(%rax)
  4023a0:	f2 0f 10 0c d5 c0 40 	movsd  0x6040c0(,%rdx,8),%xmm1
  4023a7:	60 00 
  4023a9:	48 63 0c 95 10 04 ec 	movslq 0x7ec0410(,%rdx,4),%rcx
  4023b0:	07 
  4023b1:	f2 0f 59 0c cd e0 77 	mulsd  0x1ae977e0(,%rcx,8),%xmm1
  4023b8:	e9 1a 
  4023ba:	f2 0f 58 c8          	addsd  %xmm0,%xmm1
  4023be:	f2 0f 10 04 d5 c8 40 	movsd  0x6040c8(,%rdx,8),%xmm0
  4023c5:	60 00 
  4023c7:	48 63 0c 95 14 04 ec 	movslq 0x7ec0414(,%rdx,4),%rcx
  4023ce:	07 
  4023cf:	f2 0f 59 04 cd e0 77 	mulsd  0x1ae977e0(,%rcx,8),%xmm0
  4023d6:	e9 1a 
  4023d8:	f2 0f 58 c1          	addsd  %xmm1,%xmm0
  4023dc:	48 83 c2 02          	add    $0x2,%rdx
  4023e0:	48 39 d7             	cmp    %rdx,%rdi
  4023e3:	75 bb                	jne    4023a0 <conj_grad+0x780>
  4023e5:	48 85 f6             	test   %rsi,%rsi
  4023e8:	74 1e                	je     402408 <conj_grad+0x7e8>
  4023ea:	f2 0f 10 0c d5 c0 40 	movsd  0x6040c0(,%rdx,8),%xmm1
  4023f1:	60 00 
  4023f3:	48 63 0c 95 10 04 ec 	movslq 0x7ec0410(,%rdx,4),%rcx
  4023fa:	07 
  4023fb:	f2 0f 59 0c cd e0 77 	mulsd  0x1ae977e0(,%rcx,8),%xmm1
  402402:	e9 1a 
  402404:	f2 0f 58 c1          	addsd  %xmm1,%xmm0
  402408:	66 48 0f 7e c2       	movq   %xmm0,%rdx
  40240d:	f2 0f 11 04 c5 60 17 	movsd  %xmm0,0x1b0e1760(,%rax,8)
  402414:	0e 1b 
  402416:	48 89 14 c5 80 ef 04 	mov    %rdx,0x1b04ef80(,%rax,8)
  40241d:	1b 
  40241e:	4c 39 f8             	cmp    %r15,%rax
  402421:	48 8d 40 01          	lea    0x1(%rax),%rax
  402425:	89 e9                	mov    %ebp,%ecx
  402427:	0f 8c 33 ff ff ff    	jl     402360 <conj_grad+0x740>
  40242d:	f2 0f 11 05 03 1b d7 	movsd  %xmm0,0x1ad71b03(%rip)        # 1b173f38 <conj_grad.d>
  402434:	1a 
  402435:	66 0f 57 c0          	xorpd  %xmm0,%xmm0
  402439:	45 85 c0             	test   %r8d,%r8d
  40243c:	0f 8e f3 00 00 00    	jle    402535 <conj_grad+0x915>
  402442:	b8 01 00 00 00       	mov    $0x1,%eax
  402447:	48 83 7c 24 08 03    	cmpq   $0x3,0x8(%rsp)
  40244d:	73 09                	jae    402458 <conj_grad+0x838>
  40244f:	66 0f 57 c0          	xorpd  %xmm0,%xmm0
  402453:	e9 90 00 00 00       	jmpq   4024e8 <conj_grad+0x8c8>
  402458:	4d 29 e2             	sub    %r12,%r10
  40245b:	66 0f 57 c0          	xorpd  %xmm0,%xmm0
  40245f:	31 c0                	xor    %eax,%eax
  402461:	66 66 66 66 66 66 2e 	data16 data16 data16 data16 data16 nopw %cs:0x0(%rax,%rax,1)
  402468:	0f 1f 84 00 00 00 00 
  40246f:	00 
  402470:	f2 0f 10 0c c5 08 50 	movsd  0x1ae05008(,%rax,8),%xmm1
  402477:	e0 1a 
  402479:	f2 0f 5c 0c c5 88 ef 	subsd  0x1b04ef88(,%rax,8),%xmm1
  402480:	04 1b 
  402482:	f2 0f 59 c9          	mulsd  %xmm1,%xmm1
  402486:	f2 0f 58 c8          	addsd  %xmm0,%xmm1
  40248a:	f2 0f 10 04 c5 10 50 	movsd  0x1ae05010(,%rax,8),%xmm0
  402491:	e0 1a 
  402493:	f2 0f 5c 04 c5 90 ef 	subsd  0x1b04ef90(,%rax,8),%xmm0
  40249a:	04 1b 
  40249c:	f2 0f 59 c0          	mulsd  %xmm0,%xmm0
  4024a0:	f2 0f 58 c1          	addsd  %xmm1,%xmm0
  4024a4:	f2 0f 10 14 c5 18 50 	movsd  0x1ae05018(,%rax,8),%xmm2
  4024ab:	e0 1a 
  4024ad:	f2 0f 5c 14 c5 98 ef 	subsd  0x1b04ef98(,%rax,8),%xmm2
  4024b4:	04 1b 
  4024b6:	f2 0f 59 d2          	mulsd  %xmm2,%xmm2
  4024ba:	f2 0f 58 d0          	addsd  %xmm0,%xmm2
  4024be:	f2 0f 10 0c c5 20 50 	movsd  0x1ae05020(,%rax,8),%xmm1
  4024c5:	e0 1a 
  4024c7:	f2 0f 5c 0c c5 a0 ef 	subsd  0x1b04efa0(,%rax,8),%xmm1
  4024ce:	04 1b 
  4024d0:	66 0f 28 c1          	movapd %xmm1,%xmm0
  4024d4:	f2 0f 59 c0          	mulsd  %xmm0,%xmm0
  4024d8:	f2 0f 58 c2          	addsd  %xmm2,%xmm0
  4024dc:	48 83 c0 04          	add    $0x4,%rax
  4024e0:	49 39 c2             	cmp    %rax,%r10
  4024e3:	75 8b                	jne    402470 <conj_grad+0x850>
  4024e5:	48 ff c0             	inc    %rax
  4024e8:	4d 85 e4             	test   %r12,%r12
  4024eb:	74 38                	je     402525 <conj_grad+0x905>
  4024ed:	48 c1 e0 03          	shl    $0x3,%rax
  4024f1:	49 f7 dc             	neg    %r12
  4024f4:	66 66 66 2e 0f 1f 84 	data16 data16 nopw %cs:0x0(%rax,%rax,1)
  4024fb:	00 00 00 00 00 
  402500:	f2 0f 10 88 00 50 e0 	movsd  0x1ae05000(%rax),%xmm1
  402507:	1a 
  402508:	f2 0f 5c 88 80 ef 04 	subsd  0x1b04ef80(%rax),%xmm1
  40250f:	1b 
  402510:	66 0f 28 d1          	movapd %xmm1,%xmm2
  402514:	f2 0f 59 d2          	mulsd  %xmm2,%xmm2
  402518:	f2 0f 58 c2          	addsd  %xmm2,%xmm0
  40251c:	48 83 c0 08          	add    $0x8,%rax
  402520:	49 ff c4             	inc    %r12
  402523:	75 db                	jne    402500 <conj_grad+0x8e0>
  402525:	f2 0f 11 0d 0b 1a d7 	movsd  %xmm1,0x1ad71a0b(%rip)        # 1b173f38 <conj_grad.d>
  40252c:	1a 
  40252d:	f2 0f 11 05 0b 1a d7 	movsd  %xmm0,0x1ad71a0b(%rip)        # 1b173f40 <conj_grad.sum>
  402534:	1a 
  402535:	0f 57 c9             	xorps  %xmm1,%xmm1
  402538:	f2 0f 51 c8          	sqrtsd %xmm0,%xmm1
  40253c:	66 0f 2e c9          	ucomisd %xmm1,%xmm1
  402540:	7b 09                	jnp    40254b <conj_grad+0x92b>
  402542:	e8 79 e1 ff ff       	callq  4006c0 <sqrt@plt>
  402547:	66 0f 28 c8          	movapd %xmm0,%xmm1
  40254b:	48 8b 44 24 18       	mov    0x18(%rsp),%rax
  402550:	f2 0f 11 08          	movsd  %xmm1,(%rax)
  402554:	48 83 c4 78          	add    $0x78,%rsp
  402558:	5b                   	pop    %rbx
  402559:	41 5c                	pop    %r12
  40255b:	41 5d                	pop    %r13
  40255d:	41 5e                	pop    %r14
  40255f:	41 5f                	pop    %r15
  402561:	5d                   	pop    %rbp
  402562:	c3                   	retq   
  402563:	66 2e 0f 1f 84 00 00 	nopw   %cs:0x0(%rax,%rax,1)
  40256a:	00 00 00 
  40256d:	0f 1f 00             	nopl   (%rax)

0000000000402570 <c_print_results>:
  402570:	50                   	push   %rax
  402571:	f2 0f 11 04 24       	movsd  %xmm0,(%rsp)
  402576:	48 89 f9             	mov    %rdi,%rcx
  402579:	bf 50 2b 40 00       	mov    $0x402b50,%edi
  40257e:	31 c0                	xor    %eax,%eax
  402580:	48 89 ce             	mov    %rcx,%rsi
  402583:	e8 c8 e0 ff ff       	callq  400650 <printf@plt>
  402588:	bf 6b 2b 40 00       	mov    $0x402b6b,%edi
  40258d:	b0 01                	mov    $0x1,%al
  40258f:	f2 0f 10 04 24       	movsd  (%rsp),%xmm0
  402594:	59                   	pop    %rcx
  402595:	e9 b6 e0 ff ff       	jmpq   400650 <printf@plt>
  40259a:	66 0f 1f 44 00 00    	nopw   0x0(%rax,%rax,1)

00000000004025a0 <elapsed_time>:
  4025a0:	50                   	push   %rax
  4025a1:	48 8d 3c 24          	lea    (%rsp),%rdi
  4025a5:	e8 a6 00 00 00       	callq  402650 <wtime_>
  4025aa:	f2 0f 10 04 24       	movsd  (%rsp),%xmm0
  4025af:	58                   	pop    %rax
  4025b0:	c3                   	retq   
  4025b1:	66 66 66 66 66 66 2e 	data16 data16 data16 data16 data16 nopw %cs:0x0(%rax,%rax,1)
  4025b8:	0f 1f 84 00 00 00 00 
  4025bf:	00 

00000000004025c0 <timer_clear>:
  4025c0:	48 63 c7             	movslq %edi,%rax
  4025c3:	48 c7 04 c5 70 3f 17 	movq   $0x0,0x1b173f70(,%rax,8)
  4025ca:	1b 00 00 00 00 
  4025cf:	c3                   	retq   

00000000004025d0 <timer_start>:
  4025d0:	53                   	push   %rbx
  4025d1:	48 83 ec 10          	sub    $0x10,%rsp
  4025d5:	89 fb                	mov    %edi,%ebx
  4025d7:	48 8d 7c 24 08       	lea    0x8(%rsp),%rdi
  4025dc:	e8 6f 00 00 00       	callq  402650 <wtime_>
  4025e1:	48 8b 44 24 08       	mov    0x8(%rsp),%rax
  4025e6:	48 63 cb             	movslq %ebx,%rcx
  4025e9:	48 89 04 cd 70 41 17 	mov    %rax,0x1b174170(,%rcx,8)
  4025f0:	1b 
  4025f1:	48 83 c4 10          	add    $0x10,%rsp
  4025f5:	5b                   	pop    %rbx
  4025f6:	c3                   	retq   
  4025f7:	66 0f 1f 84 00 00 00 	nopw   0x0(%rax,%rax,1)
  4025fe:	00 00 

0000000000402600 <timer_stop>:
  402600:	53                   	push   %rbx
  402601:	48 83 ec 10          	sub    $0x10,%rsp
  402605:	89 fb                	mov    %edi,%ebx
  402607:	48 8d 7c 24 08       	lea    0x8(%rsp),%rdi
  40260c:	e8 3f 00 00 00       	callq  402650 <wtime_>
  402611:	f2 0f 10 44 24 08    	movsd  0x8(%rsp),%xmm0
  402617:	48 63 c3             	movslq %ebx,%rax
  40261a:	f2 0f 5c 04 c5 70 41 	subsd  0x1b174170(,%rax,8),%xmm0
  402621:	17 1b 
  402623:	f2 0f 58 04 c5 70 3f 	addsd  0x1b173f70(,%rax,8),%xmm0
  40262a:	17 1b 
  40262c:	f2 0f 11 04 c5 70 3f 	movsd  %xmm0,0x1b173f70(,%rax,8)
  402633:	17 1b 
  402635:	48 83 c4 10          	add    $0x10,%rsp
  402639:	5b                   	pop    %rbx
  40263a:	c3                   	retq   
  40263b:	0f 1f 44 00 00       	nopl   0x0(%rax,%rax,1)

0000000000402640 <timer_read>:
  402640:	48 63 c7             	movslq %edi,%rax
  402643:	f2 0f 10 04 c5 70 3f 	movsd  0x1b173f70(,%rax,8),%xmm0
  40264a:	17 1b 
  40264c:	c3                   	retq   
  40264d:	0f 1f 00             	nopl   (%rax)

0000000000402650 <wtime_>:
  402650:	53                   	push   %rbx
  402651:	48 83 ec 10          	sub    $0x10,%rsp
  402655:	48 89 fb             	mov    %rdi,%rbx
  402658:	48 8d 3c 24          	lea    (%rsp),%rdi
  40265c:	31 f6                	xor    %esi,%esi
  40265e:	e8 fd df ff ff       	callq  400660 <gettimeofday@plt>
  402663:	8b 0d 07 1a 20 00    	mov    0x201a07(%rip),%ecx        # 604070 <wtime_.sec>
  402669:	48 8b 04 24          	mov    (%rsp),%rax
  40266d:	85 c9                	test   %ecx,%ecx
  40266f:	79 08                	jns    402679 <wtime_+0x29>
  402671:	89 05 f9 19 20 00    	mov    %eax,0x2019f9(%rip)        # 604070 <wtime_.sec>
  402677:	89 c1                	mov    %eax,%ecx
  402679:	48 63 c9             	movslq %ecx,%rcx
  40267c:	48 29 c8             	sub    %rcx,%rax
  40267f:	f2 48 0f 2a c0       	cvtsi2sd %rax,%xmm0
  402684:	f2 48 0f 2a 4c 24 08 	cvtsi2sdq 0x8(%rsp),%xmm1
  40268b:	f2 0f 59 0d 05 05 00 	mulsd  0x505(%rip),%xmm1        # 402b98 <_IO_stdin_used+0x2c8>
  402692:	00 
  402693:	f2 0f 58 c8          	addsd  %xmm0,%xmm1
  402697:	f2 0f 11 0b          	movsd  %xmm1,(%rbx)
  40269b:	48 83 c4 10          	add    $0x10,%rsp
  40269f:	5b                   	pop    %rbx
  4026a0:	c3                   	retq   
  4026a1:	66 2e 0f 1f 84 00 00 	nopw   %cs:0x0(%rax,%rax,1)
  4026a8:	00 00 00 
  4026ab:	0f 1f 44 00 00       	nopl   0x0(%rax,%rax,1)

00000000004026b0 <randlc>:
  4026b0:	f2 0f 10 1d e8 04 00 	movsd  0x4e8(%rip),%xmm3        # 402ba0 <_IO_stdin_used+0x2d0>
  4026b7:	00 
  4026b8:	66 0f 28 c8          	movapd %xmm0,%xmm1
  4026bc:	f2 0f 59 cb          	mulsd  %xmm3,%xmm1
  4026c0:	f2 0f 2c c1          	cvttsd2si %xmm1,%eax
  4026c4:	f2 0f 2a d0          	cvtsi2sd %eax,%xmm2
  4026c8:	f2 0f 10 25 d8 04 00 	movsd  0x4d8(%rip),%xmm4        # 402ba8 <_IO_stdin_used+0x2d8>
  4026cf:	00 
  4026d0:	66 0f 28 ca          	movapd %xmm2,%xmm1
  4026d4:	f2 0f 59 cc          	mulsd  %xmm4,%xmm1
  4026d8:	f2 0f 5c c1          	subsd  %xmm1,%xmm0
  4026dc:	f2 0f 10 0f          	movsd  (%rdi),%xmm1
  4026e0:	66 0f 28 e9          	movapd %xmm1,%xmm5
  4026e4:	f2 0f 59 eb          	mulsd  %xmm3,%xmm5
  4026e8:	f2 0f 2c c5          	cvttsd2si %xmm5,%eax
  4026ec:	0f 57 ed             	xorps  %xmm5,%xmm5
  4026ef:	f2 0f 2a e8          	cvtsi2sd %eax,%xmm5
  4026f3:	66 0f 28 f0          	movapd %xmm0,%xmm6
  4026f7:	f2 0f 59 f5          	mulsd  %xmm5,%xmm6
  4026fb:	f2 0f 59 ec          	mulsd  %xmm4,%xmm5
  4026ff:	f2 0f 5c cd          	subsd  %xmm5,%xmm1
  402703:	f2 0f 59 d1          	mulsd  %xmm1,%xmm2
  402707:	f2 0f 58 d6          	addsd  %xmm6,%xmm2
  40270b:	f2 0f 59 da          	mulsd  %xmm2,%xmm3
  40270f:	f2 0f 2c c3          	cvttsd2si %xmm3,%eax
  402713:	0f 57 db             	xorps  %xmm3,%xmm3
  402716:	f2 0f 2a d8          	cvtsi2sd %eax,%xmm3
  40271a:	f2 0f 59 dc          	mulsd  %xmm4,%xmm3
  40271e:	f2 0f 5c d3          	subsd  %xmm3,%xmm2
  402722:	f2 0f 59 d4          	mulsd  %xmm4,%xmm2
  402726:	f2 0f 59 c8          	mulsd  %xmm0,%xmm1
  40272a:	f2 0f 58 ca          	addsd  %xmm2,%xmm1
  40272e:	f2 0f 10 15 7a 04 00 	movsd  0x47a(%rip),%xmm2        # 402bb0 <_IO_stdin_used+0x2e0>
  402735:	00 
  402736:	66 0f 28 c1          	movapd %xmm1,%xmm0
  40273a:	f2 0f 59 c2          	mulsd  %xmm2,%xmm0
  40273e:	f2 0f 2c c0          	cvttsd2si %xmm0,%eax
  402742:	0f 57 c0             	xorps  %xmm0,%xmm0
  402745:	f2 0f 2a c0          	cvtsi2sd %eax,%xmm0
  402749:	f2 0f 59 05 67 04 00 	mulsd  0x467(%rip),%xmm0        # 402bb8 <_IO_stdin_used+0x2e8>
  402750:	00 
  402751:	f2 0f 58 c1          	addsd  %xmm1,%xmm0
  402755:	f2 0f 11 07          	movsd  %xmm0,(%rdi)
  402759:	f2 0f 59 c2          	mulsd  %xmm2,%xmm0
  40275d:	c3                   	retq   
  40275e:	66 90                	xchg   %ax,%ax

0000000000402760 <vranlc>:
  402760:	f2 0f 10 0e          	movsd  (%rsi),%xmm1
  402764:	85 ff                	test   %edi,%edi
  402766:	0f 8e de 00 00 00    	jle    40284a <vranlc+0xea>
  40276c:	f2 0f 10 15 2c 04 00 	movsd  0x42c(%rip),%xmm2        # 402ba0 <_IO_stdin_used+0x2d0>
  402773:	00 
  402774:	f2 0f 59 d0          	mulsd  %xmm0,%xmm2
  402778:	f2 0f 2c c2          	cvttsd2si %xmm2,%eax
  40277c:	0f 57 d2             	xorps  %xmm2,%xmm2
  40277f:	f2 0f 2a d0          	cvtsi2sd %eax,%xmm2
  402783:	f2 0f 10 35 35 04 00 	movsd  0x435(%rip),%xmm6        # 402bc0 <_IO_stdin_used+0x2f0>
  40278a:	00 
  40278b:	f2 0f 59 f2          	mulsd  %xmm2,%xmm6
  40278f:	f2 0f 58 f0          	addsd  %xmm0,%xmm6
  402793:	48 83 c2 08          	add    $0x8,%rdx
  402797:	f2 0f 10 05 01 04 00 	movsd  0x401(%rip),%xmm0        # 402ba0 <_IO_stdin_used+0x2d0>
  40279e:	00 
  40279f:	f2 0f 10 25 01 04 00 	movsd  0x401(%rip),%xmm4        # 402ba8 <_IO_stdin_used+0x2d8>
  4027a6:	00 
  4027a7:	f2 0f 10 2d 01 04 00 	movsd  0x401(%rip),%xmm5        # 402bb0 <_IO_stdin_used+0x2e0>
  4027ae:	00 
  4027af:	f2 44 0f 10 05 00 04 	movsd  0x400(%rip),%xmm8        # 402bb8 <_IO_stdin_used+0x2e8>
  4027b6:	00 00 
  4027b8:	0f 1f 84 00 00 00 00 	nopl   0x0(%rax,%rax,1)
  4027bf:	00 
  4027c0:	66 0f 28 f9          	movapd %xmm1,%xmm7
  4027c4:	f2 0f 59 f8          	mulsd  %xmm0,%xmm7
  4027c8:	f2 0f 2c c7          	cvttsd2si %xmm7,%eax
  4027cc:	0f 57 ff             	xorps  %xmm7,%xmm7
  4027cf:	f2 0f 2a f8          	cvtsi2sd %eax,%xmm7
  4027d3:	66 0f 28 de          	movapd %xmm6,%xmm3
  4027d7:	f2 0f 59 df          	mulsd  %xmm7,%xmm3
  4027db:	f2 0f 59 fc          	mulsd  %xmm4,%xmm7
  4027df:	f2 0f 5c cf          	subsd  %xmm7,%xmm1
  4027e3:	66 0f 28 fa          	movapd %xmm2,%xmm7
  4027e7:	f2 0f 59 f9          	mulsd  %xmm1,%xmm7
  4027eb:	f2 0f 58 fb          	addsd  %xmm3,%xmm7
  4027ef:	66 0f 28 df          	movapd %xmm7,%xmm3
  4027f3:	f2 0f 59 d8          	mulsd  %xmm0,%xmm3
  4027f7:	f2 0f 2c c3          	cvttsd2si %xmm3,%eax
  4027fb:	0f 57 db             	xorps  %xmm3,%xmm3
  4027fe:	f2 0f 2a d8          	cvtsi2sd %eax,%xmm3
  402802:	f2 0f 59 dc          	mulsd  %xmm4,%xmm3
  402806:	f2 0f 5c fb          	subsd  %xmm3,%xmm7
  40280a:	f2 0f 59 fc          	mulsd  %xmm4,%xmm7
  40280e:	f2 0f 59 ce          	mulsd  %xmm6,%xmm1
  402812:	f2 0f 58 cf          	addsd  %xmm7,%xmm1
  402816:	66 0f 28 d9          	movapd %xmm1,%xmm3
  40281a:	f2 0f 59 dd          	mulsd  %xmm5,%xmm3
  40281e:	f2 0f 2c c3          	cvttsd2si %xmm3,%eax
  402822:	0f 57 db             	xorps  %xmm3,%xmm3
  402825:	f2 0f 2a d8          	cvtsi2sd %eax,%xmm3
  402829:	f2 41 0f 59 d8       	mulsd  %xmm8,%xmm3
  40282e:	f2 0f 58 cb          	addsd  %xmm3,%xmm1
  402832:	66 0f 28 d9          	movapd %xmm1,%xmm3
  402836:	f2 0f 59 dd          	mulsd  %xmm5,%xmm3
  40283a:	f2 0f 11 1a          	movsd  %xmm3,(%rdx)
  40283e:	48 83 c2 08          	add    $0x8,%rdx
  402842:	ff cf                	dec    %edi
  402844:	0f 85 76 ff ff ff    	jne    4027c0 <vranlc+0x60>
  40284a:	f2 0f 11 0e          	movsd  %xmm1,(%rsi)
  40284e:	c3                   	retq   
  40284f:	90                   	nop

0000000000402850 <__libc_csu_init>:
  402850:	41 57                	push   %r15
  402852:	41 56                	push   %r14
  402854:	41 89 ff             	mov    %edi,%r15d
  402857:	41 55                	push   %r13
  402859:	41 54                	push   %r12
  40285b:	4c 8d 25 9e 15 20 00 	lea    0x20159e(%rip),%r12        # 603e00 <__frame_dummy_init_array_entry>
  402862:	55                   	push   %rbp
  402863:	48 8d 2d 9e 15 20 00 	lea    0x20159e(%rip),%rbp        # 603e08 <__init_array_end>
  40286a:	53                   	push   %rbx
  40286b:	49 89 f6             	mov    %rsi,%r14
  40286e:	49 89 d5             	mov    %rdx,%r13
  402871:	4c 29 e5             	sub    %r12,%rbp
  402874:	48 83 ec 08          	sub    $0x8,%rsp
  402878:	48 c1 fd 03          	sar    $0x3,%rbp
  40287c:	e8 8f dd ff ff       	callq  400610 <_init>
  402881:	48 85 ed             	test   %rbp,%rbp
  402884:	74 20                	je     4028a6 <__libc_csu_init+0x56>
  402886:	31 db                	xor    %ebx,%ebx
  402888:	0f 1f 84 00 00 00 00 	nopl   0x0(%rax,%rax,1)
  40288f:	00 
  402890:	4c 89 ea             	mov    %r13,%rdx
  402893:	4c 89 f6             	mov    %r14,%rsi
  402896:	44 89 ff             	mov    %r15d,%edi
  402899:	41 ff 14 dc          	callq  *(%r12,%rbx,8)
  40289d:	48 83 c3 01          	add    $0x1,%rbx
  4028a1:	48 39 eb             	cmp    %rbp,%rbx
  4028a4:	75 ea                	jne    402890 <__libc_csu_init+0x40>
  4028a6:	48 83 c4 08          	add    $0x8,%rsp
  4028aa:	5b                   	pop    %rbx
  4028ab:	5d                   	pop    %rbp
  4028ac:	41 5c                	pop    %r12
  4028ae:	41 5d                	pop    %r13
  4028b0:	41 5e                	pop    %r14
  4028b2:	41 5f                	pop    %r15
  4028b4:	c3                   	retq   
  4028b5:	90                   	nop
  4028b6:	66 2e 0f 1f 84 00 00 	nopw   %cs:0x0(%rax,%rax,1)
  4028bd:	00 00 00 

00000000004028c0 <__libc_csu_fini>:
  4028c0:	f3 c3                	repz retq 

Disassembly of section .fini:

00000000004028c4 <_fini>:
  4028c4:	48 83 ec 08          	sub    $0x8,%rsp
  4028c8:	48 83 c4 08          	add    $0x8,%rsp
  4028cc:	c3                   	retq   
