
a.out:     file format elf64-x86-64


Disassembly of section .init:

0000000000400610 <_init>:
  400610:	48 83 ec 08          	sub    $0x8,%rsp
  400614:	48 8b 05 dd 29 20 00 	mov    0x2029dd(%rip),%rax        # 602ff8 <_DYNAMIC+0x1e0>
  40061b:	48 85 c0             	test   %rax,%rax
  40061e:	74 05                	je     400625 <_init+0x15>
  400620:	e8 ab 00 00 00       	callq  4006d0 <sqrt@plt+0x10>
  400625:	48 83 c4 08          	add    $0x8,%rsp
  400629:	c3                   	retq   

Disassembly of section .plt:

0000000000400630 <puts@plt-0x10>:
  400630:	ff 35 d2 29 20 00    	pushq  0x2029d2(%rip)        # 603008 <_GLOBAL_OFFSET_TABLE_+0x8>
  400636:	ff 25 d4 29 20 00    	jmpq   *0x2029d4(%rip)        # 603010 <_GLOBAL_OFFSET_TABLE_+0x10>
  40063c:	0f 1f 40 00          	nopl   0x0(%rax)

0000000000400640 <puts@plt>:
  400640:	ff 25 d2 29 20 00    	jmpq   *0x2029d2(%rip)        # 603018 <_GLOBAL_OFFSET_TABLE_+0x18>
  400646:	68 00 00 00 00       	pushq  $0x0
  40064b:	e9 e0 ff ff ff       	jmpq   400630 <_init+0x20>

0000000000400650 <printf@plt>:
  400650:	ff 25 ca 29 20 00    	jmpq   *0x2029ca(%rip)        # 603020 <_GLOBAL_OFFSET_TABLE_+0x20>
  400656:	68 01 00 00 00       	pushq  $0x1
  40065b:	e9 d0 ff ff ff       	jmpq   400630 <_init+0x20>

0000000000400660 <gettimeofday@plt>:
  400660:	ff 25 c2 29 20 00    	jmpq   *0x2029c2(%rip)        # 603028 <_GLOBAL_OFFSET_TABLE_+0x28>
  400666:	68 02 00 00 00       	pushq  $0x2
  40066b:	e9 c0 ff ff ff       	jmpq   400630 <_init+0x20>

0000000000400670 <memset@plt>:
  400670:	ff 25 ba 29 20 00    	jmpq   *0x2029ba(%rip)        # 603030 <_GLOBAL_OFFSET_TABLE_+0x30>
  400676:	68 03 00 00 00       	pushq  $0x3
  40067b:	e9 b0 ff ff ff       	jmpq   400630 <_init+0x20>

0000000000400680 <pow@plt>:
  400680:	ff 25 b2 29 20 00    	jmpq   *0x2029b2(%rip)        # 603038 <_GLOBAL_OFFSET_TABLE_+0x38>
  400686:	68 04 00 00 00       	pushq  $0x4
  40068b:	e9 a0 ff ff ff       	jmpq   400630 <_init+0x20>

0000000000400690 <__libc_start_main@plt>:
  400690:	ff 25 aa 29 20 00    	jmpq   *0x2029aa(%rip)        # 603040 <_GLOBAL_OFFSET_TABLE_+0x40>
  400696:	68 05 00 00 00       	pushq  $0x5
  40069b:	e9 90 ff ff ff       	jmpq   400630 <_init+0x20>

00000000004006a0 <memcpy@plt>:
  4006a0:	ff 25 a2 29 20 00    	jmpq   *0x2029a2(%rip)        # 603048 <_GLOBAL_OFFSET_TABLE_+0x48>
  4006a6:	68 06 00 00 00       	pushq  $0x6
  4006ab:	e9 80 ff ff ff       	jmpq   400630 <_init+0x20>

00000000004006b0 <exit@plt>:
  4006b0:	ff 25 9a 29 20 00    	jmpq   *0x20299a(%rip)        # 603050 <_GLOBAL_OFFSET_TABLE_+0x50>
  4006b6:	68 07 00 00 00       	pushq  $0x7
  4006bb:	e9 70 ff ff ff       	jmpq   400630 <_init+0x20>

00000000004006c0 <sqrt@plt>:
  4006c0:	ff 25 92 29 20 00    	jmpq   *0x202992(%rip)        # 603058 <_GLOBAL_OFFSET_TABLE_+0x58>
  4006c6:	68 08 00 00 00       	pushq  $0x8
  4006cb:	e9 60 ff ff ff       	jmpq   400630 <_init+0x20>

Disassembly of section .plt.got:

00000000004006d0 <.plt.got>:
  4006d0:	ff 25 22 29 20 00    	jmpq   *0x202922(%rip)        # 602ff8 <_DYNAMIC+0x1e0>
  4006d6:	66 90                	xchg   %ax,%ax

Disassembly of section .text:

00000000004006e0 <_start>:
  4006e0:	31 ed                	xor    %ebp,%ebp
  4006e2:	49 89 d1             	mov    %rdx,%r9
  4006e5:	5e                   	pop    %rsi
  4006e6:	48 89 e2             	mov    %rsp,%rdx
  4006e9:	48 83 e4 f0          	and    $0xfffffffffffffff0,%rsp
  4006ed:	50                   	push   %rax
  4006ee:	54                   	push   %rsp
  4006ef:	49 c7 c0 00 26 40 00 	mov    $0x402600,%r8
  4006f6:	48 c7 c1 90 25 40 00 	mov    $0x402590,%rcx
  4006fd:	48 c7 c7 e0 07 40 00 	mov    $0x4007e0,%rdi
  400704:	e8 87 ff ff ff       	callq  400690 <__libc_start_main@plt>
  400709:	f4                   	hlt    
  40070a:	66 0f 1f 44 00 00    	nopw   0x0(%rax,%rax,1)

0000000000400710 <deregister_tm_clones>:
  400710:	b8 7f 30 60 00       	mov    $0x60307f,%eax
  400715:	55                   	push   %rbp
  400716:	48 2d 78 30 60 00    	sub    $0x603078,%rax
  40071c:	48 83 f8 0e          	cmp    $0xe,%rax
  400720:	48 89 e5             	mov    %rsp,%rbp
  400723:	76 1b                	jbe    400740 <deregister_tm_clones+0x30>
  400725:	b8 00 00 00 00       	mov    $0x0,%eax
  40072a:	48 85 c0             	test   %rax,%rax
  40072d:	74 11                	je     400740 <deregister_tm_clones+0x30>
  40072f:	5d                   	pop    %rbp
  400730:	bf 78 30 60 00       	mov    $0x603078,%edi
  400735:	ff e0                	jmpq   *%rax
  400737:	66 0f 1f 84 00 00 00 	nopw   0x0(%rax,%rax,1)
  40073e:	00 00 
  400740:	5d                   	pop    %rbp
  400741:	c3                   	retq   
  400742:	0f 1f 40 00          	nopl   0x0(%rax)
  400746:	66 2e 0f 1f 84 00 00 	nopw   %cs:0x0(%rax,%rax,1)
  40074d:	00 00 00 

0000000000400750 <register_tm_clones>:
  400750:	be 78 30 60 00       	mov    $0x603078,%esi
  400755:	55                   	push   %rbp
  400756:	48 81 ee 78 30 60 00 	sub    $0x603078,%rsi
  40075d:	48 c1 fe 03          	sar    $0x3,%rsi
  400761:	48 89 e5             	mov    %rsp,%rbp
  400764:	48 89 f0             	mov    %rsi,%rax
  400767:	48 c1 e8 3f          	shr    $0x3f,%rax
  40076b:	48 01 c6             	add    %rax,%rsi
  40076e:	48 d1 fe             	sar    %rsi
  400771:	74 15                	je     400788 <register_tm_clones+0x38>
  400773:	b8 00 00 00 00       	mov    $0x0,%eax
  400778:	48 85 c0             	test   %rax,%rax
  40077b:	74 0b                	je     400788 <register_tm_clones+0x38>
  40077d:	5d                   	pop    %rbp
  40077e:	bf 78 30 60 00       	mov    $0x603078,%edi
  400783:	ff e0                	jmpq   *%rax
  400785:	0f 1f 00             	nopl   (%rax)
  400788:	5d                   	pop    %rbp
  400789:	c3                   	retq   
  40078a:	66 0f 1f 44 00 00    	nopw   0x0(%rax,%rax,1)

0000000000400790 <__do_global_dtors_aux>:
  400790:	80 3d e9 28 20 00 00 	cmpb   $0x0,0x2028e9(%rip)        # 603080 <completed.7585>
  400797:	75 11                	jne    4007aa <__do_global_dtors_aux+0x1a>
  400799:	55                   	push   %rbp
  40079a:	48 89 e5             	mov    %rsp,%rbp
  40079d:	e8 6e ff ff ff       	callq  400710 <deregister_tm_clones>
  4007a2:	5d                   	pop    %rbp
  4007a3:	c6 05 d6 28 20 00 01 	movb   $0x1,0x2028d6(%rip)        # 603080 <completed.7585>
  4007aa:	f3 c3                	repz retq 
  4007ac:	0f 1f 40 00          	nopl   0x0(%rax)

00000000004007b0 <frame_dummy>:
  4007b0:	bf 10 2e 60 00       	mov    $0x602e10,%edi
  4007b5:	48 83 3f 00          	cmpq   $0x0,(%rdi)
  4007b9:	75 05                	jne    4007c0 <frame_dummy+0x10>
  4007bb:	eb 93                	jmp    400750 <register_tm_clones>
  4007bd:	0f 1f 00             	nopl   (%rax)
  4007c0:	b8 00 00 00 00       	mov    $0x0,%eax
  4007c5:	48 85 c0             	test   %rax,%rax
  4007c8:	74 f1                	je     4007bb <frame_dummy+0xb>
  4007ca:	55                   	push   %rbp
  4007cb:	48 89 e5             	mov    %rsp,%rbp
  4007ce:	ff d0                	callq  *%rax
  4007d0:	5d                   	pop    %rbp
  4007d1:	e9 7a ff ff ff       	jmpq   400750 <register_tm_clones>
  4007d6:	66 2e 0f 1f 84 00 00 	nopw   %cs:0x0(%rax,%rax,1)
  4007dd:	00 00 00 

00000000004007e0 <main>:
  4007e0:	55                   	push   %rbp
  4007e1:	41 57                	push   %r15
  4007e3:	41 56                	push   %r14
  4007e5:	41 55                	push   %r13
  4007e7:	41 54                	push   %r12
  4007e9:	53                   	push   %rbx
  4007ea:	48 83 ec 68          	sub    $0x68,%rsp
  4007ee:	c6 05 9b 28 20 00 01 	movb   $0x1,0x20289b(%rip)        # 603090 <firstrow>
  4007f5:	c6 05 98 28 20 00 01 	movb   $0x1,0x202898(%rip)        # 603094 <lastrow>
  4007fc:	c6 05 95 28 20 00 01 	movb   $0x1,0x202895(%rip)        # 603098 <firstcol>
  400803:	c6 05 92 28 20 00 01 	movb   $0x1,0x202892(%rip)        # 60309c <lastcol>
  40080a:	bf a0 27 40 00       	mov    $0x4027a0,%edi
  40080f:	e8 2c fe ff ff       	callq  400640 <puts@plt>
  400814:	31 ed                	xor    %ebp,%ebp
  400816:	41 bf f8 24 01 00    	mov    $0x124f8,%r15d
  40081c:	bf 90 26 40 00       	mov    $0x402690,%edi
  400821:	be f8 24 01 00       	mov    $0x124f8,%esi
  400826:	31 c0                	xor    %eax,%eax
  400828:	e8 23 fe ff ff       	callq  400650 <printf@plt>
  40082d:	bf 9d 26 40 00       	mov    $0x40269d,%edi
  400832:	be 4b 00 00 00       	mov    $0x4b,%esi
  400837:	31 c0                	xor    %eax,%eax
  400839:	e8 12 fe ff ff       	callq  400650 <printf@plt>
  40083e:	c6 05 5b 28 20 00 01 	movb   $0x1,0x20285b(%rip)        # 6030a0 <naa>
  400845:	c6 05 58 28 20 00 01 	movb   $0x1,0x202858(%rip)        # 6030a4 <nzz>
  40084c:	48 b8 00 00 00 a1 b0 	movabs $0x41b2b9b0a1000000,%rax
  400853:	b9 b2 41 
  400856:	48 89 05 4b 28 20 00 	mov    %rax,0x20284b(%rip)        # 6030a8 <tran>
  40085d:	48 b8 00 00 40 e5 9c 	movabs $0x41d2309ce5400000,%rax
  400864:	30 d2 41 
  400867:	48 89 05 42 28 20 00 	mov    %rax,0x202842(%rip)        # 6030b0 <amult>
  40086e:	f2 0f 10 05 a2 1d 00 	movsd  0x1da2(%rip),%xmm0        # 402618 <_IO_stdin_used+0x8>
  400875:	00 
  400876:	bf a8 30 60 00       	mov    $0x6030a8,%edi
  40087b:	e8 70 1b 00 00       	callq  4023f0 <randlc>
  400880:	8a 05 1a 28 20 00    	mov    0x20281a(%rip),%al        # 6030a0 <naa>
  400886:	88 44 24 0f          	mov    %al,0xf(%rsp)
  40088a:	84 c0                	test   %al,%al
  40088c:	bb 00 00 00 00       	mov    $0x0,%ebx
  400891:	41 0f 45 df          	cmovne %r15d,%ebx
  400895:	8a 05 09 28 20 00    	mov    0x202809(%rip),%al        # 6030a4 <nzz>
  40089b:	84 c0                	test   %al,%al
  40089d:	41 be 68 78 f1 00    	mov    $0xf17868,%r14d
  4008a3:	44 0f 44 f5          	cmove  %ebp,%r14d
  4008a7:	44 0f b6 25 e1 27 20 	movzbl 0x2027e1(%rip),%r12d        # 603090 <firstrow>
  4008ae:	00 
  4008af:	8a 05 df 27 20 00    	mov    0x2027df(%rip),%al        # 603094 <lastrow>
  4008b5:	84 c0                	test   %al,%al
  4008b7:	41 bd 00 00 00 00    	mov    $0x0,%r13d
  4008bd:	45 0f 45 ef          	cmovne %r15d,%r13d
  4008c1:	0f b6 05 d0 27 20 00 	movzbl 0x2027d0(%rip),%eax        # 603098 <firstcol>
  4008c8:	89 44 24 2c          	mov    %eax,0x2c(%rsp)
  4008cc:	8a 05 ca 27 20 00    	mov    0x2027ca(%rip),%al        # 60309c <lastcol>
  4008d2:	84 c0                	test   %al,%al
  4008d4:	44 0f 44 fd          	cmove  %ebp,%r15d
  4008d8:	0f 57 c0             	xorps  %xmm0,%xmm0
  4008db:	f2 0f 2a c3          	cvtsi2sd %ebx,%xmm0
  4008df:	f2 0f 10 0d 39 1d 00 	movsd  0x1d39(%rip),%xmm1        # 402620 <_IO_stdin_used+0x10>
  4008e6:	00 
  4008e7:	f2 0f 5e c8          	divsd  %xmm0,%xmm1
  4008eb:	f2 0f 10 05 35 1d 00 	movsd  0x1d35(%rip),%xmm0        # 402628 <_IO_stdin_used+0x18>
  4008f2:	00 
  4008f3:	e8 88 fd ff ff       	callq  400680 <pow@plt>
  4008f8:	44 8b 5c 24 2c       	mov    0x2c(%rsp),%r11d
  4008fd:	45 89 f2             	mov    %r14d,%r10d
  400900:	45 89 f9             	mov    %r15d,%r9d
  400903:	f2 0f 11 44 24 58    	movsd  %xmm0,0x58(%rsp)
  400909:	80 7c 24 0f 00       	cmpb   $0x0,0xf(%rsp)
  40090e:	0f 84 c6 04 00 00    	je     400dda <main+0x5fa>
  400914:	89 dd                	mov    %ebx,%ebp
  400916:	48 89 e8             	mov    %rbp,%rax
  400919:	48 83 c8 01          	or     $0x1,%rax
  40091d:	48 8d 3c 85 10 f4 eb 	lea    0x7ebf410(,%rax,4),%rdi
  400924:	07 
  400925:	8d 43 ff             	lea    -0x1(%rbx),%eax
  400928:	48 8d 14 85 04 00 00 	lea    0x4(,%rax,4),%rdx
  40092f:	00 
  400930:	45 31 ff             	xor    %r15d,%r15d
  400933:	31 f6                	xor    %esi,%esi
  400935:	44 89 4c 24 4c       	mov    %r9d,0x4c(%rsp)
  40093a:	44 89 54 24 48       	mov    %r10d,0x48(%rsp)
  40093f:	e8 2c fd ff ff       	callq  400670 <memset@plt>
  400944:	4c 8d 34 ad 10 f4 eb 	lea    0x7ebf410(,%rbp,4),%r14
  40094b:	07 
  40094c:	b8 01 00 00 00       	mov    $0x1,%eax
  400951:	48 89 44 24 10       	mov    %rax,0x10(%rsp)
  400956:	f2 0f 10 05 c2 1c 00 	movsd  0x1cc2(%rip),%xmm0        # 402620 <_IO_stdin_used+0x10>
  40095d:	00 
  40095e:	66 0f 28 d0          	movapd %xmm0,%xmm2
  400962:	66 66 66 66 66 2e 0f 	data16 data16 data16 data16 nopw %cs:0x0(%rax,%rax,1)
  400969:	1f 84 00 00 00 00 00 
  400970:	f2 0f 11 54 24 60    	movsd  %xmm2,0x60(%rsp)
  400976:	b8 01 00 00 00       	mov    $0x1,%eax
  40097b:	0f 1f 44 00 00       	nopl   0x0(%rax,%rax,1)
  400980:	01 c0                	add    %eax,%eax
  400982:	39 d8                	cmp    %ebx,%eax
  400984:	7c fa                	jl     400980 <main+0x1a0>
  400986:	0f 57 c0             	xorps  %xmm0,%xmm0
  400989:	f2 0f 2a c0          	cvtsi2sd %eax,%xmm0
  40098d:	f2 0f 11 44 24 20    	movsd  %xmm0,0x20(%rsp)
  400993:	31 ed                	xor    %ebp,%ebp
  400995:	66 66 2e 0f 1f 84 00 	data16 nopw %cs:0x0(%rax,%rax,1)
  40099c:	00 00 00 00 
  4009a0:	f2 0f 10 05 08 27 20 	movsd  0x202708(%rip),%xmm0        # 6030b0 <amult>
  4009a7:	00 
  4009a8:	bf a8 30 60 00       	mov    $0x6030a8,%edi
  4009ad:	e8 3e 1a 00 00       	callq  4023f0 <randlc>
  4009b2:	f2 0f 11 44 24 30    	movsd  %xmm0,0x30(%rsp)
  4009b8:	f2 0f 10 05 f0 26 20 	movsd  0x2026f0(%rip),%xmm0        # 6030b0 <amult>
  4009bf:	00 
  4009c0:	bf a8 30 60 00       	mov    $0x6030a8,%edi
  4009c5:	e8 26 1a 00 00       	callq  4023f0 <randlc>
  4009ca:	f2 0f 59 44 24 20    	mulsd  0x20(%rsp),%xmm0
  4009d0:	f2 0f 2c c8          	cvttsd2si %xmm0,%ecx
  4009d4:	8d 41 01             	lea    0x1(%rcx),%eax
  4009d7:	39 d9                	cmp    %ebx,%ecx
  4009d9:	7d c5                	jge    4009a0 <main+0x1c0>
  4009db:	48 98                	cltq   
  4009dd:	41 83 3c 86 00       	cmpl   $0x0,(%r14,%rax,4)
  4009e2:	75 bc                	jne    4009a0 <main+0x1c0>
  4009e4:	41 c7 04 86 01 00 00 	movl   $0x1,(%r14,%rax,4)
  4009eb:	00 
  4009ec:	89 04 ad 14 f4 eb 07 	mov    %eax,0x7ebf414(,%rbp,4)
  4009f3:	f2 0f 10 44 24 30    	movsd  0x30(%rsp),%xmm0
  4009f9:	f2 0f 11 04 ed 68 f0 	movsd  %xmm0,0x1acdf068(,%rbp,8)
  400a00:	cd 1a 
  400a02:	89 04 ad 34 18 d7 1a 	mov    %eax,0x1ad71834(,%rbp,4)
  400a09:	48 ff c5             	inc    %rbp
  400a0c:	48 83 fd 0d          	cmp    $0xd,%rbp
  400a10:	75 8e                	jne    4009a0 <main+0x1c0>
  400a12:	48 63 05 fb e9 ab 07 	movslq 0x7abe9fb(%rip),%rax        # 7ebf414 <colidx+0x4>
  400a19:	41 c7 04 86 00 00 00 	movl   $0x0,(%r14,%rax,4)
  400a20:	00 
  400a21:	48 63 05 f0 e9 ab 07 	movslq 0x7abe9f0(%rip),%rax        # 7ebf418 <colidx+0x8>
  400a28:	41 c7 04 86 00 00 00 	movl   $0x0,(%r14,%rax,4)
  400a2f:	00 
  400a30:	48 63 05 e5 e9 ab 07 	movslq 0x7abe9e5(%rip),%rax        # 7ebf41c <colidx+0xc>
  400a37:	41 c7 04 86 00 00 00 	movl   $0x0,(%r14,%rax,4)
  400a3e:	00 
  400a3f:	48 63 05 da e9 ab 07 	movslq 0x7abe9da(%rip),%rax        # 7ebf420 <colidx+0x10>
  400a46:	41 c7 04 86 00 00 00 	movl   $0x0,(%r14,%rax,4)
  400a4d:	00 
  400a4e:	48 63 05 cf e9 ab 07 	movslq 0x7abe9cf(%rip),%rax        # 7ebf424 <colidx+0x14>
  400a55:	41 c7 04 86 00 00 00 	movl   $0x0,(%r14,%rax,4)
  400a5c:	00 
  400a5d:	48 63 05 c4 e9 ab 07 	movslq 0x7abe9c4(%rip),%rax        # 7ebf428 <colidx+0x18>
  400a64:	41 c7 04 86 00 00 00 	movl   $0x0,(%r14,%rax,4)
  400a6b:	00 
  400a6c:	48 63 05 b9 e9 ab 07 	movslq 0x7abe9b9(%rip),%rax        # 7ebf42c <colidx+0x1c>
  400a73:	41 c7 04 86 00 00 00 	movl   $0x0,(%r14,%rax,4)
  400a7a:	00 
  400a7b:	48 63 05 ae e9 ab 07 	movslq 0x7abe9ae(%rip),%rax        # 7ebf430 <colidx+0x20>
  400a82:	41 c7 04 86 00 00 00 	movl   $0x0,(%r14,%rax,4)
  400a89:	00 
  400a8a:	48 63 05 a3 e9 ab 07 	movslq 0x7abe9a3(%rip),%rax        # 7ebf434 <colidx+0x24>
  400a91:	41 c7 04 86 00 00 00 	movl   $0x0,(%r14,%rax,4)
  400a98:	00 
  400a99:	48 63 05 98 e9 ab 07 	movslq 0x7abe998(%rip),%rax        # 7ebf438 <colidx+0x28>
  400aa0:	41 c7 04 86 00 00 00 	movl   $0x0,(%r14,%rax,4)
  400aa7:	00 
  400aa8:	48 63 05 8d e9 ab 07 	movslq 0x7abe98d(%rip),%rax        # 7ebf43c <colidx+0x2c>
  400aaf:	41 c7 04 86 00 00 00 	movl   $0x0,(%r14,%rax,4)
  400ab6:	00 
  400ab7:	48 63 05 82 e9 ab 07 	movslq 0x7abe982(%rip),%rax        # 7ebf440 <colidx+0x30>
  400abe:	41 c7 04 86 00 00 00 	movl   $0x0,(%r14,%rax,4)
  400ac5:	00 
  400ac6:	48 63 05 77 e9 ab 07 	movslq 0x7abe977(%rip),%rax        # 7ebf444 <colidx+0x34>
  400acd:	41 c7 04 86 00 00 00 	movl   $0x0,(%r14,%rax,4)
  400ad4:	00 
  400ad5:	44 8b 05 58 0d 97 1a 	mov    0x1a970d58(%rip),%r8d        # 1ad71834 <iv+0x4>
  400adc:	31 c9                	xor    %ecx,%ecx
  400ade:	48 8b 44 24 10       	mov    0x10(%rsp),%rax
  400ae3:	41 39 c0             	cmp    %eax,%r8d
  400ae6:	75 16                	jne    400afe <main+0x31e>
  400ae8:	48 b8 00 00 00 00 00 	movabs $0x3fe0000000000000,%rax
  400aef:	00 e0 3f 
  400af2:	48 89 05 6f e5 8d 1a 	mov    %rax,0x1a8de56f(%rip)        # 1acdf068 <v+0x8>
  400af9:	b9 01 00 00 00       	mov    $0x1,%ecx
  400afe:	48 8b 35 33 0d 97 1a 	mov    0x1a970d33(%rip),%rsi        # 1ad71838 <iv+0x8>
  400b05:	48 89 f2             	mov    %rsi,%rdx
  400b08:	48 c1 ea 20          	shr    $0x20,%rdx
  400b0c:	48 8b 44 24 10       	mov    0x10(%rsp),%rax
  400b11:	39 c6                	cmp    %eax,%esi
  400b13:	44 8b 4c 24 4c       	mov    0x4c(%rsp),%r9d
  400b18:	44 8b 54 24 48       	mov    0x48(%rsp),%r10d
  400b1d:	44 8b 5c 24 2c       	mov    0x2c(%rsp),%r11d
  400b22:	f2 0f 10 54 24 60    	movsd  0x60(%rsp),%xmm2
  400b28:	75 16                	jne    400b40 <main+0x360>
  400b2a:	48 b8 00 00 00 00 00 	movabs $0x3fe0000000000000,%rax
  400b31:	00 e0 3f 
  400b34:	48 89 05 35 e5 8d 1a 	mov    %rax,0x1a8de535(%rip)        # 1acdf070 <v+0x10>
  400b3b:	b9 01 00 00 00       	mov    $0x1,%ecx
  400b40:	48 8b 44 24 10       	mov    0x10(%rsp),%rax
  400b45:	39 c2                	cmp    %eax,%edx
  400b47:	75 16                	jne    400b5f <main+0x37f>
  400b49:	48 b8 00 00 00 00 00 	movabs $0x3fe0000000000000,%rax
  400b50:	00 e0 3f 
  400b53:	48 89 05 1e e5 8d 1a 	mov    %rax,0x1a8de51e(%rip)        # 1acdf078 <v+0x18>
  400b5a:	b9 01 00 00 00       	mov    $0x1,%ecx
  400b5f:	48 8b 05 da 0c 97 1a 	mov    0x1a970cda(%rip),%rax        # 1ad71840 <iv+0x10>
  400b66:	48 89 c2             	mov    %rax,%rdx
  400b69:	48 c1 ea 20          	shr    $0x20,%rdx
  400b6d:	48 8b 74 24 10       	mov    0x10(%rsp),%rsi
  400b72:	39 f0                	cmp    %esi,%eax
  400b74:	75 16                	jne    400b8c <main+0x3ac>
  400b76:	48 b8 00 00 00 00 00 	movabs $0x3fe0000000000000,%rax
  400b7d:	00 e0 3f 
  400b80:	48 89 05 f9 e4 8d 1a 	mov    %rax,0x1a8de4f9(%rip)        # 1acdf080 <v+0x20>
  400b87:	b9 01 00 00 00       	mov    $0x1,%ecx
  400b8c:	48 8b 44 24 10       	mov    0x10(%rsp),%rax
  400b91:	39 c2                	cmp    %eax,%edx
  400b93:	75 16                	jne    400bab <main+0x3cb>
  400b95:	48 b8 00 00 00 00 00 	movabs $0x3fe0000000000000,%rax
  400b9c:	00 e0 3f 
  400b9f:	48 89 05 e2 e4 8d 1a 	mov    %rax,0x1a8de4e2(%rip)        # 1acdf088 <v+0x28>
  400ba6:	b9 01 00 00 00       	mov    $0x1,%ecx
  400bab:	48 8b 05 96 0c 97 1a 	mov    0x1a970c96(%rip),%rax        # 1ad71848 <iv+0x18>
  400bb2:	48 89 c2             	mov    %rax,%rdx
  400bb5:	48 c1 ea 20          	shr    $0x20,%rdx
  400bb9:	48 8b 74 24 10       	mov    0x10(%rsp),%rsi
  400bbe:	39 f0                	cmp    %esi,%eax
  400bc0:	75 16                	jne    400bd8 <main+0x3f8>
  400bc2:	48 b8 00 00 00 00 00 	movabs $0x3fe0000000000000,%rax
  400bc9:	00 e0 3f 
  400bcc:	48 89 05 bd e4 8d 1a 	mov    %rax,0x1a8de4bd(%rip)        # 1acdf090 <v+0x30>
  400bd3:	b9 01 00 00 00       	mov    $0x1,%ecx
  400bd8:	48 8b 44 24 10       	mov    0x10(%rsp),%rax
  400bdd:	39 c2                	cmp    %eax,%edx
  400bdf:	75 16                	jne    400bf7 <main+0x417>
  400be1:	48 b8 00 00 00 00 00 	movabs $0x3fe0000000000000,%rax
  400be8:	00 e0 3f 
  400beb:	48 89 05 a6 e4 8d 1a 	mov    %rax,0x1a8de4a6(%rip)        # 1acdf098 <v+0x38>
  400bf2:	b9 01 00 00 00       	mov    $0x1,%ecx
  400bf7:	48 8b 05 52 0c 97 1a 	mov    0x1a970c52(%rip),%rax        # 1ad71850 <iv+0x20>
  400bfe:	48 89 c2             	mov    %rax,%rdx
  400c01:	48 c1 ea 20          	shr    $0x20,%rdx
  400c05:	48 8b 74 24 10       	mov    0x10(%rsp),%rsi
  400c0a:	39 f0                	cmp    %esi,%eax
  400c0c:	75 16                	jne    400c24 <main+0x444>
  400c0e:	48 b8 00 00 00 00 00 	movabs $0x3fe0000000000000,%rax
  400c15:	00 e0 3f 
  400c18:	48 89 05 81 e4 8d 1a 	mov    %rax,0x1a8de481(%rip)        # 1acdf0a0 <v+0x40>
  400c1f:	b9 01 00 00 00       	mov    $0x1,%ecx
  400c24:	48 8b 44 24 10       	mov    0x10(%rsp),%rax
  400c29:	39 c2                	cmp    %eax,%edx
  400c2b:	75 16                	jne    400c43 <main+0x463>
  400c2d:	48 b8 00 00 00 00 00 	movabs $0x3fe0000000000000,%rax
  400c34:	00 e0 3f 
  400c37:	48 89 05 6a e4 8d 1a 	mov    %rax,0x1a8de46a(%rip)        # 1acdf0a8 <v+0x48>
  400c3e:	b9 01 00 00 00       	mov    $0x1,%ecx
  400c43:	48 8b 05 0e 0c 97 1a 	mov    0x1a970c0e(%rip),%rax        # 1ad71858 <iv+0x28>
  400c4a:	48 89 c2             	mov    %rax,%rdx
  400c4d:	48 c1 ea 20          	shr    $0x20,%rdx
  400c51:	48 8b 74 24 10       	mov    0x10(%rsp),%rsi
  400c56:	39 f0                	cmp    %esi,%eax
  400c58:	75 16                	jne    400c70 <main+0x490>
  400c5a:	48 b8 00 00 00 00 00 	movabs $0x3fe0000000000000,%rax
  400c61:	00 e0 3f 
  400c64:	48 89 05 45 e4 8d 1a 	mov    %rax,0x1a8de445(%rip)        # 1acdf0b0 <v+0x50>
  400c6b:	b9 01 00 00 00       	mov    $0x1,%ecx
  400c70:	48 8b 44 24 10       	mov    0x10(%rsp),%rax
  400c75:	39 c2                	cmp    %eax,%edx
  400c77:	75 16                	jne    400c8f <main+0x4af>
  400c79:	48 b8 00 00 00 00 00 	movabs $0x3fe0000000000000,%rax
  400c80:	00 e0 3f 
  400c83:	48 89 05 2e e4 8d 1a 	mov    %rax,0x1a8de42e(%rip)        # 1acdf0b8 <v+0x58>
  400c8a:	b9 01 00 00 00       	mov    $0x1,%ecx
  400c8f:	48 8b 05 ca 0b 97 1a 	mov    0x1a970bca(%rip),%rax        # 1ad71860 <iv+0x30>
  400c96:	48 89 c2             	mov    %rax,%rdx
  400c99:	48 c1 ea 20          	shr    $0x20,%rdx
  400c9d:	48 8b 74 24 10       	mov    0x10(%rsp),%rsi
  400ca2:	39 f0                	cmp    %esi,%eax
  400ca4:	75 16                	jne    400cbc <main+0x4dc>
  400ca6:	48 b8 00 00 00 00 00 	movabs $0x3fe0000000000000,%rax
  400cad:	00 e0 3f 
  400cb0:	48 89 05 09 e4 8d 1a 	mov    %rax,0x1a8de409(%rip)        # 1acdf0c0 <v+0x60>
  400cb7:	b9 01 00 00 00       	mov    $0x1,%ecx
  400cbc:	48 8b 44 24 10       	mov    0x10(%rsp),%rax
  400cc1:	39 c2                	cmp    %eax,%edx
  400cc3:	75 1b                	jne    400ce0 <main+0x500>
  400cc5:	48 b8 00 00 00 00 00 	movabs $0x3fe0000000000000,%rax
  400ccc:	00 e0 3f 
  400ccf:	48 89 05 f2 e3 8d 1a 	mov    %rax,0x1a8de3f2(%rip)        # 1acdf0c8 <v+0x68>
  400cd6:	b9 0d 00 00 00       	mov    $0xd,%ecx
  400cdb:	eb 33                	jmp    400d10 <main+0x530>
  400cdd:	0f 1f 00             	nopl   (%rax)
  400ce0:	85 c9                	test   %ecx,%ecx
  400ce2:	b9 0d 00 00 00       	mov    $0xd,%ecx
  400ce7:	75 27                	jne    400d10 <main+0x530>
  400ce9:	48 b8 00 00 00 00 00 	movabs $0x3fe0000000000000,%rax
  400cf0:	00 e0 3f 
  400cf3:	48 89 05 d6 e3 8d 1a 	mov    %rax,0x1a8de3d6(%rip)        # 1acdf0d0 <v+0x70>
  400cfa:	48 8b 44 24 10       	mov    0x10(%rsp),%rax
  400cff:	89 05 63 0b 97 1a    	mov    %eax,0x1a970b63(%rip)        # 1ad71868 <iv+0x38>
  400d05:	b9 0e 00 00 00       	mov    $0xe,%ecx
  400d0a:	66 0f 1f 44 00 00    	nopw   0x0(%rax,%rax,1)
  400d10:	ba 01 00 00 00       	mov    $0x1,%edx
  400d15:	eb 17                	jmp    400d2e <main+0x54e>
  400d17:	66 0f 1f 84 00 00 00 	nopw   0x0(%rax,%rax,1)
  400d1e:	00 00 
  400d20:	44 8b 04 95 34 18 d7 	mov    0x1ad71834(,%rdx,4),%r8d
  400d27:	1a 
  400d28:	48 ff c2             	inc    %rdx
  400d2b:	41 89 ef             	mov    %ebp,%r15d
  400d2e:	45 39 d8             	cmp    %r11d,%r8d
  400d31:	7c 7d                	jl     400db0 <main+0x5d0>
  400d33:	45 39 c8             	cmp    %r9d,%r8d
  400d36:	7f 78                	jg     400db0 <main+0x5d0>
  400d38:	f2 0f 10 04 d5 60 f0 	movsd  0x1acdf060(,%rdx,8),%xmm0
  400d3f:	cd 1a 
  400d41:	f2 0f 59 c2          	mulsd  %xmm2,%xmm0
  400d45:	31 f6                	xor    %esi,%esi
  400d47:	66 0f 1f 84 00 00 00 	nopw   0x0(%rax,%rax,1)
  400d4e:	00 00 
  400d50:	8b 3c b5 34 18 d7 1a 	mov    0x1ad71834(,%rsi,4),%edi
  400d57:	44 39 e7             	cmp    %r12d,%edi
  400d5a:	7c 44                	jl     400da0 <main+0x5c0>
  400d5c:	44 39 ef             	cmp    %r13d,%edi
  400d5f:	7f 3f                	jg     400da0 <main+0x5c0>
  400d61:	41 8d 6f 01          	lea    0x1(%r15),%ebp
  400d65:	45 39 d7             	cmp    %r10d,%r15d
  400d68:	0f 8d 5d 0d 00 00    	jge    401acb <main+0x12eb>
  400d6e:	48 63 c5             	movslq %ebp,%rax
  400d71:	44 89 04 85 60 4b 7c 	mov    %r8d,0xf7c4b60(,%rax,4)
  400d78:	0f 
  400d79:	89 3c 85 b0 69 b6 0b 	mov    %edi,0xbb669b0(,%rax,4)
  400d80:	f2 0f 10 0c f5 68 f0 	movsd  0x1acdf068(,%rsi,8),%xmm1
  400d87:	cd 1a 
  400d89:	f2 0f 59 c8          	mulsd  %xmm0,%xmm1
  400d8d:	f2 0f 11 0c c5 10 2d 	movsd  %xmm1,0x13422d10(,%rax,8)
  400d94:	42 13 
  400d96:	eb 0b                	jmp    400da3 <main+0x5c3>
  400d98:	0f 1f 84 00 00 00 00 	nopl   0x0(%rax,%rax,1)
  400d9f:	00 
  400da0:	44 89 fd             	mov    %r15d,%ebp
  400da3:	48 ff c6             	inc    %rsi
  400da6:	48 39 ce             	cmp    %rcx,%rsi
  400da9:	41 89 ef             	mov    %ebp,%r15d
  400dac:	7c a2                	jl     400d50 <main+0x570>
  400dae:	eb 03                	jmp    400db3 <main+0x5d3>
  400db0:	44 89 fd             	mov    %r15d,%ebp
  400db3:	48 39 ca             	cmp    %rcx,%rdx
  400db6:	0f 8c 64 ff ff ff    	jl     400d20 <main+0x540>
  400dbc:	f2 0f 59 54 24 58    	mulsd  0x58(%rsp),%xmm2
  400dc2:	48 8b 44 24 10       	mov    0x10(%rsp),%rax
  400dc7:	39 d8                	cmp    %ebx,%eax
  400dc9:	8d 40 01             	lea    0x1(%rax),%eax
  400dcc:	41 89 ef             	mov    %ebp,%r15d
  400dcf:	48 89 44 24 10       	mov    %rax,0x10(%rsp)
  400dd4:	0f 8c 96 fb ff ff    	jl     400970 <main+0x190>
  400dda:	45 39 e5             	cmp    %r12d,%r13d
  400ddd:	73 05                	jae    400de4 <main+0x604>
  400ddf:	41 89 e8             	mov    %ebp,%r8d
  400de2:	eb 6a                	jmp    400e4e <main+0x66e>
  400de4:	48 b9 33 33 33 33 33 	movabs $0xc04df33333333333,%rcx
  400deb:	f3 4d c0 
  400dee:	44 89 e0             	mov    %r12d,%eax
  400df1:	66 66 66 66 66 66 2e 	data16 data16 data16 data16 data16 nopw %cs:0x0(%rax,%rax,1)
  400df8:	0f 1f 84 00 00 00 00 
  400dff:	00 
  400e00:	44 39 d8             	cmp    %r11d,%eax
  400e03:	7c 3b                	jl     400e40 <main+0x660>
  400e05:	44 39 c8             	cmp    %r9d,%eax
  400e08:	7f 36                	jg     400e40 <main+0x660>
  400e0a:	44 8d 45 01          	lea    0x1(%rbp),%r8d
  400e0e:	44 39 d5             	cmp    %r10d,%ebp
  400e11:	0f 8d ec 0c 00 00    	jge    401b03 <main+0x1323>
  400e17:	49 63 d0             	movslq %r8d,%rdx
  400e1a:	89 04 95 60 4b 7c 0f 	mov    %eax,0xf7c4b60(,%rdx,4)
  400e21:	89 04 95 b0 69 b6 0b 	mov    %eax,0xbb669b0(,%rdx,4)
  400e28:	48 89 0c d5 10 2d 42 	mov    %rcx,0x13422d10(,%rdx,8)
  400e2f:	13 
  400e30:	eb 11                	jmp    400e43 <main+0x663>
  400e32:	66 66 66 66 66 2e 0f 	data16 data16 data16 data16 nopw %cs:0x0(%rax,%rax,1)
  400e39:	1f 84 00 00 00 00 00 
  400e40:	41 89 e8             	mov    %ebp,%r8d
  400e43:	44 39 e8             	cmp    %r13d,%eax
  400e46:	8d 40 01             	lea    0x1(%rax),%eax
  400e49:	44 89 c5             	mov    %r8d,%ebp
  400e4c:	7c b2                	jl     400e00 <main+0x620>
  400e4e:	41 89 de             	mov    %ebx,%r14d
  400e51:	4d 63 fd             	movslq %r13d,%r15
  400e54:	4d 29 e7             	sub    %r12,%r15
  400e57:	80 7c 24 0f 00       	cmpb   $0x0,0xf(%rsp)
  400e5c:	74 39                	je     400e97 <main+0x6b7>
  400e5e:	8d 43 ff             	lea    -0x1(%rbx),%eax
  400e61:	48 8d 2c 85 04 00 00 	lea    0x4(,%rax,4),%rbp
  400e68:	00 
  400e69:	bf c4 d5 b1 0b       	mov    $0xbb1d5c4,%edi
  400e6e:	31 f6                	xor    %esi,%esi
  400e70:	48 89 ea             	mov    %rbp,%rdx
  400e73:	4c 89 74 24 30       	mov    %r14,0x30(%rsp)
  400e78:	4d 89 c6             	mov    %r8,%r14
  400e7b:	e8 f0 f7 ff ff       	callq  400670 <memset@plt>
  400e80:	bf 34 18 d7 1a       	mov    $0x1ad71834,%edi
  400e85:	31 f6                	xor    %esi,%esi
  400e87:	48 89 ea             	mov    %rbp,%rdx
  400e8a:	e8 e1 f7 ff ff       	callq  400670 <memset@plt>
  400e8f:	4d 89 f0             	mov    %r14,%r8
  400e92:	4c 8b 74 24 30       	mov    0x30(%rsp),%r14
  400e97:	89 d8                	mov    %ebx,%eax
  400e99:	83 c8 01             	or     $0x1,%eax
  400e9c:	c7 04 85 c0 d5 b1 0b 	movl   $0x0,0xbb1d5c0(,%rax,4)
  400ea3:	00 00 00 00 
  400ea7:	45 85 c0             	test   %r8d,%r8d
  400eaa:	7e 65                	jle    400f11 <main+0x731>
  400eac:	b8 02 00 00 00       	mov    $0x2,%eax
  400eb1:	44 29 e0             	sub    %r12d,%eax
  400eb4:	41 8d 48 01          	lea    0x1(%r8),%ecx
  400eb8:	48 63 c9             	movslq %ecx,%rcx
  400ebb:	48 ff c9             	dec    %rcx
  400ebe:	44 89 c2             	mov    %r8d,%edx
  400ec1:	31 f6                	xor    %esi,%esi
  400ec3:	66 66 66 66 2e 0f 1f 	data16 data16 data16 nopw %cs:0x0(%rax,%rax,1)
  400eca:	84 00 00 00 00 00 
  400ed0:	8b 3c b5 b4 69 b6 0b 	mov    0xbb669b4(,%rsi,4),%edi
  400ed7:	01 c7                	add    %eax,%edi
  400ed9:	48 63 ff             	movslq %edi,%rdi
  400edc:	48 8d 6e 21          	lea    0x21(%rsi),%rbp
  400ee0:	48 39 e9             	cmp    %rbp,%rcx
  400ee3:	48 0f 4e e9          	cmovle %rcx,%rbp
  400ee7:	8b 2c ad b0 69 b6 0b 	mov    0xbb669b0(,%rbp,4),%ebp
  400eee:	01 c5                	add    %eax,%ebp
  400ef0:	48 63 ed             	movslq %ebp,%rbp
  400ef3:	ff 04 bd c0 d5 b1 0b 	incl   0xbb1d5c0(,%rdi,4)
  400efa:	0f 18 0c b5 b4 6a b6 	prefetcht0 0xbb66ab4(,%rsi,4)
  400f01:	0b 
  400f02:	0f 18 0c ad c0 d5 b1 	prefetcht0 0xbb1d5c0(,%rbp,4)
  400f09:	0b 
  400f0a:	48 ff c6             	inc    %rsi
  400f0d:	39 f2                	cmp    %esi,%edx
  400f0f:	75 bf                	jne    400ed0 <main+0x6f0>
  400f11:	c7 05 a9 c6 71 0b 01 	movl   $0x1,0xb71c6a9(%rip)        # bb1d5c4 <rowstr+0x4>
  400f18:	00 00 00 
  400f1b:	45 85 ff             	test   %r15d,%r15d
  400f1e:	78 36                	js     400f56 <main+0x776>
  400f20:	4c 89 f8             	mov    %r15,%rax
  400f23:	48 83 c0 02          	add    $0x2,%rax
  400f27:	b9 01 00 00 00       	mov    $0x1,%ecx
  400f2c:	ba 01 00 00 00       	mov    $0x1,%edx
  400f31:	66 66 66 66 66 66 2e 	data16 data16 data16 data16 data16 nopw %cs:0x0(%rax,%rax,1)
  400f38:	0f 1f 84 00 00 00 00 
  400f3f:	00 
  400f40:	03 0c 95 c4 d5 b1 0b 	add    0xbb1d5c4(,%rdx,4),%ecx
  400f47:	89 0c 95 c4 d5 b1 0b 	mov    %ecx,0xbb1d5c4(,%rdx,4)
  400f4e:	48 ff c2             	inc    %rdx
  400f51:	48 39 c2             	cmp    %rax,%rdx
  400f54:	7c ea                	jl     400f40 <main+0x760>
  400f56:	45 85 c0             	test   %r8d,%r8d
  400f59:	0f 8e 8e 00 00 00    	jle    400fed <main+0x80d>
  400f5f:	45 89 e1             	mov    %r12d,%r9d
  400f62:	41 83 f1 01          	xor    $0x1,%r9d
  400f66:	41 8d 48 01          	lea    0x1(%r8),%ecx
  400f6a:	48 63 c9             	movslq %ecx,%rcx
  400f6d:	48 ff c9             	dec    %rcx
  400f70:	45 89 c0             	mov    %r8d,%r8d
  400f73:	31 f6                	xor    %esi,%esi
  400f75:	66 66 2e 0f 1f 84 00 	data16 nopw %cs:0x0(%rax,%rax,1)
  400f7c:	00 00 00 00 
  400f80:	8b 3c b5 b4 69 b6 0b 	mov    0xbb669b4(,%rsi,4),%edi
  400f87:	44 01 cf             	add    %r9d,%edi
  400f8a:	48 63 ff             	movslq %edi,%rdi
  400f8d:	48 8d 6e 21          	lea    0x21(%rsi),%rbp
  400f91:	48 39 e9             	cmp    %rbp,%rcx
  400f94:	48 0f 4e e9          	cmovle %rcx,%rbp
  400f98:	8b 2c ad b0 69 b6 0b 	mov    0xbb669b0(,%rbp,4),%ebp
  400f9f:	44 01 cd             	add    %r9d,%ebp
  400fa2:	48 63 ed             	movslq %ebp,%rbp
  400fa5:	48 63 14 bd c0 d5 b1 	movslq 0xbb1d5c0(,%rdi,4),%rdx
  400fac:	0b 
  400fad:	48 8b 04 f5 18 2d 42 	mov    0x13422d18(,%rsi,8),%rax
  400fb4:	13 
  400fb5:	48 89 04 d5 c0 30 60 	mov    %rax,0x6030c0(,%rdx,8)
  400fbc:	00 
  400fbd:	8b 04 b5 64 4b 7c 0f 	mov    0xf7c4b64(,%rsi,4),%eax
  400fc4:	89 04 95 10 f4 eb 07 	mov    %eax,0x7ebf410(,%rdx,4)
  400fcb:	8d 42 01             	lea    0x1(%rdx),%eax
  400fce:	89 04 bd c0 d5 b1 0b 	mov    %eax,0xbb1d5c0(,%rdi,4)
  400fd5:	0f 18 0c b5 b4 6a b6 	prefetcht0 0xbb66ab4(,%rsi,4)
  400fdc:	0b 
  400fdd:	0f 18 0c ad c0 d5 b1 	prefetcht0 0xbb1d5c0(,%rbp,4)
  400fe4:	0b 
  400fe5:	48 ff c6             	inc    %rsi
  400fe8:	41 39 f0             	cmp    %esi,%r8d
  400feb:	75 93                	jne    400f80 <main+0x7a0>
  400fed:	45 85 ff             	test   %r15d,%r15d
  400ff0:	78 34                	js     401026 <main+0x846>
  400ff2:	41 8d 47 01          	lea    0x1(%r15),%eax
  400ff6:	48 98                	cltq   
  400ff8:	48 ff c0             	inc    %rax
  400ffb:	41 8d 4d 02          	lea    0x2(%r13),%ecx
  400fff:	44 29 e1             	sub    %r12d,%ecx
  401002:	48 63 c9             	movslq %ecx,%rcx
  401005:	48 8d 0c 8d c0 d5 b1 	lea    0xbb1d5c0(,%rcx,4),%rcx
  40100c:	0b 
  40100d:	0f 1f 00             	nopl   (%rax)
  401010:	8b 14 85 bc d5 b1 0b 	mov    0xbb1d5bc(,%rax,4),%edx
  401017:	89 11                	mov    %edx,(%rcx)
  401019:	48 ff c8             	dec    %rax
  40101c:	48 83 c1 fc          	add    $0xfffffffffffffffc,%rcx
  401020:	48 83 f8 01          	cmp    $0x1,%rax
  401024:	7f ea                	jg     401010 <main+0x830>
  401026:	c7 05 94 c5 71 0b 01 	movl   $0x1,0xb71c594(%rip)        # bb1d5c4 <rowstr+0x4>
  40102d:	00 00 00 
  401030:	80 7c 24 0f 00       	cmpb   $0x0,0xf(%rsp)
  401035:	74 2a                	je     401061 <main+0x881>
  401037:	ff cb                	dec    %ebx
  401039:	48 8d 14 dd 08 00 00 	lea    0x8(,%rbx,8),%rdx
  401040:	00 
  401041:	bf 68 f0 cd 1a       	mov    $0x1acdf068,%edi
  401046:	31 f6                	xor    %esi,%esi
  401048:	e8 23 f6 ff ff       	callq  400670 <memset@plt>
  40104d:	48 8d 14 9d 04 00 00 	lea    0x4(,%rbx,4),%rdx
  401054:	00 
  401055:	bf 34 18 d7 1a       	mov    $0x1ad71834,%edi
  40105a:	31 f6                	xor    %esi,%esi
  40105c:	e8 0f f6 ff ff       	callq  400670 <memset@plt>
  401061:	45 85 ff             	test   %r15d,%r15d
  401064:	0f 88 74 01 00 00    	js     4011de <main+0x9fe>
  40106a:	4a 8d 04 b5 30 18 d7 	lea    0x1ad71830(,%r14,4),%rax
  401071:	1a 
  401072:	41 b8 02 00 00 00    	mov    $0x2,%r8d
  401078:	45 29 e0             	sub    %r12d,%r8d
  40107b:	45 09 e8             	or     %r13d,%r8d
  40107e:	41 ba 01 00 00 00    	mov    $0x1,%r10d
  401084:	45 31 f6             	xor    %r14d,%r14d
  401087:	41 b9 01 00 00 00    	mov    $0x1,%r9d
  40108d:	66 0f 57 c0          	xorpd  %xmm0,%xmm0
  401091:	66 66 66 66 66 66 2e 	data16 data16 data16 data16 data16 nopw %cs:0x0(%rax,%rax,1)
  401098:	0f 1f 84 00 00 00 00 
  40109f:	00 
  4010a0:	44 89 d6             	mov    %r10d,%esi
  4010a3:	4d 89 cb             	mov    %r9,%r11
  4010a6:	4d 8d 4b 01          	lea    0x1(%r11),%r9
  4010aa:	46 8b 14 9d c4 d5 b1 	mov    0xbb1d5c4(,%r11,4),%r10d
  4010b1:	0b 
  4010b2:	44 39 d6             	cmp    %r10d,%esi
  4010b5:	0f 8d 0e 01 00 00    	jge    4011c9 <main+0x9e9>
  4010bb:	4d 63 fa             	movslq %r10d,%r15
  4010be:	48 63 ee             	movslq %esi,%rbp
  4010c1:	49 8d 7f ff          	lea    -0x1(%r15),%rdi
  4010c5:	31 db                	xor    %ebx,%ebx
  4010c7:	66 0f 1f 84 00 00 00 	nopw   0x0(%rax,%rax,1)
  4010ce:	00 00 
  4010d0:	8b 14 ad 10 f4 eb 07 	mov    0x7ebf410(,%rbp,4),%edx
  4010d7:	48 63 f2             	movslq %edx,%rsi
  4010da:	48 8d 55 20          	lea    0x20(%rbp),%rdx
  4010de:	48 39 d7             	cmp    %rdx,%rdi
  4010e1:	48 0f 4e d7          	cmovle %rdi,%rdx
  4010e5:	48 63 0c 95 10 f4 eb 	movslq 0x7ebf410(,%rdx,4),%rcx
  4010ec:	07 
  4010ed:	f2 0f 10 0c f5 60 f0 	movsd  0x1acdf060(,%rsi,8),%xmm1
  4010f4:	cd 1a 
  4010f6:	f2 0f 58 0c ed c0 30 	addsd  0x6030c0(,%rbp,8),%xmm1
  4010fd:	60 00 
  4010ff:	f2 0f 11 0c f5 60 f0 	movsd  %xmm1,0x1acdf060(,%rsi,8)
  401106:	cd 1a 
  401108:	8b 14 b5 30 18 d7 1a 	mov    0x1ad71830(,%rsi,4),%edx
  40110f:	0f 18 0c ad 10 f5 eb 	prefetcht0 0x7ebf510(,%rbp,4)
  401116:	07 
  401117:	0f 18 0c cd 60 f0 cd 	prefetcht0 0x1acdf060(,%rcx,8)
  40111e:	1a 
  40111f:	0f 18 0c 8d 30 18 d7 	prefetcht0 0x1ad71830(,%rcx,4)
  401126:	1a 
  401127:	66 0f 2e c8          	ucomisd %xmm0,%xmm1
  40112b:	75 02                	jne    40112f <main+0x94f>
  40112d:	7b 18                	jnp    401147 <main+0x967>
  40112f:	85 d2                	test   %edx,%edx
  401131:	75 14                	jne    401147 <main+0x967>
  401133:	c7 04 b5 30 18 d7 1a 	movl   $0x1,0x1ad71830(,%rsi,4)
  40113a:	01 00 00 00 
  40113e:	48 63 cb             	movslq %ebx,%rcx
  401141:	ff c3                	inc    %ebx
  401143:	89 74 88 04          	mov    %esi,0x4(%rax,%rcx,4)
  401147:	48 ff c5             	inc    %rbp
  40114a:	49 39 ef             	cmp    %rbp,%r15
  40114d:	75 81                	jne    4010d0 <main+0x8f0>
  40114f:	85 db                	test   %ebx,%ebx
  401151:	7e 76                	jle    4011c9 <main+0x9e9>
  401153:	8d 4b 01             	lea    0x1(%rbx),%ecx
  401156:	48 63 c9             	movslq %ecx,%rcx
  401159:	48 ff c9             	dec    %rcx
  40115c:	89 df                	mov    %ebx,%edi
  40115e:	31 ed                	xor    %ebp,%ebp
  401160:	48 63 74 a8 04       	movslq 0x4(%rax,%rbp,4),%rsi
  401165:	c7 04 b5 30 18 d7 1a 	movl   $0x0,0x1ad71830(,%rsi,4)
  40116c:	00 00 00 00 
  401170:	48 8d 55 21          	lea    0x21(%rbp),%rdx
  401174:	48 39 d1             	cmp    %rdx,%rcx
  401177:	48 0f 4e d1          	cmovle %rcx,%rdx
  40117b:	48 63 14 90          	movslq (%rax,%rdx,4),%rdx
  40117f:	f2 0f 10 0c f5 60 f0 	movsd  0x1acdf060(,%rsi,8),%xmm1
  401186:	cd 1a 
  401188:	48 c7 04 f5 60 f0 cd 	movq   $0x0,0x1acdf060(,%rsi,8)
  40118f:	1a 00 00 00 00 
  401194:	0f 18 8c a8 04 01 00 	prefetcht0 0x104(%rax,%rbp,4)
  40119b:	00 
  40119c:	0f 18 0c d5 60 f0 cd 	prefetcht0 0x1acdf060(,%rdx,8)
  4011a3:	1a 
  4011a4:	66 0f 2e c8          	ucomisd %xmm0,%xmm1
  4011a8:	75 02                	jne    4011ac <main+0x9cc>
  4011aa:	7b 16                	jnp    4011c2 <main+0x9e2>
  4011ac:	49 63 d6             	movslq %r14d,%rdx
  4011af:	41 ff c6             	inc    %r14d
  4011b2:	f2 0f 11 0c d5 c8 30 	movsd  %xmm1,0x6030c8(,%rdx,8)
  4011b9:	60 00 
  4011bb:	89 34 95 14 f4 eb 07 	mov    %esi,0x7ebf414(,%rdx,4)
  4011c2:	48 ff c5             	inc    %rbp
  4011c5:	39 ef                	cmp    %ebp,%edi
  4011c7:	75 97                	jne    401160 <main+0x980>
  4011c9:	41 8d 4e 01          	lea    0x1(%r14),%ecx
  4011cd:	42 89 0c 9d c4 d5 b1 	mov    %ecx,0xbb1d5c4(,%r11,4)
  4011d4:	0b 
  4011d5:	45 39 c1             	cmp    %r8d,%r9d
  4011d8:	0f 85 c2 fe ff ff    	jne    4010a0 <main+0x8c0>
  4011de:	8a 05 b0 1e 20 00    	mov    0x201eb0(%rip),%al        # 603094 <lastrow>
  4011e4:	84 c0                	test   %al,%al
  4011e6:	b8 f9 24 01 00       	mov    $0x124f9,%eax
  4011eb:	41 be 01 00 00 00    	mov    $0x1,%r14d
  4011f1:	41 0f 44 c6          	cmove  %r14d,%eax
  4011f5:	0f b6 0d 94 1e 20 00 	movzbl 0x201e94(%rip),%ecx        # 603090 <firstrow>
  4011fc:	29 c8                	sub    %ecx,%eax
  4011fe:	85 c0                	test   %eax,%eax
  401200:	0f 8e 72 01 00 00    	jle    401378 <main+0xb98>
  401206:	0f b6 15 8b 1e 20 00 	movzbl 0x201e8b(%rip),%edx        # 603098 <firstcol>
  40120d:	b9 01 00 00 00       	mov    $0x1,%ecx
  401212:	29 d1                	sub    %edx,%ecx
  401214:	c1 e2 1f             	shl    $0x1f,%edx
  401217:	c1 fa 1f             	sar    $0x1f,%edx
  40121a:	66 0f 6e c2          	movd   %edx,%xmm0
  40121e:	66 0f 70 c0 00       	pshufd $0x0,%xmm0,%xmm0
  401223:	66 0f fe 05 35 14 00 	paddd  0x1435(%rip),%xmm0        # 402660 <_IO_stdin_used+0x50>
  40122a:	00 
  40122b:	ff c0                	inc    %eax
  40122d:	4c 63 c0             	movslq %eax,%r8
  401230:	41 bc 01 00 00 00    	mov    $0x1,%r12d
  401236:	66 2e 0f 1f 84 00 00 	nopw   %cs:0x0(%rax,%rax,1)
  40123d:	00 00 00 
  401240:	44 89 f0             	mov    %r14d,%eax
  401243:	46 8b 34 a5 c4 d5 b1 	mov    0xbb1d5c4(,%r12,4),%r14d
  40124a:	0b 
  40124b:	49 ff c4             	inc    %r12
  40124e:	44 39 f0             	cmp    %r14d,%eax
  401251:	0f 8d 18 01 00 00    	jge    40136f <main+0xb8f>
  401257:	49 63 fe             	movslq %r14d,%rdi
  40125a:	48 63 e8             	movslq %eax,%rbp
  40125d:	48 89 fb             	mov    %rdi,%rbx
  401260:	48 29 eb             	sub    %rbp,%rbx
  401263:	48 83 fb 08          	cmp    $0x8,%rbx
  401267:	0f 82 f3 00 00 00    	jb     401360 <main+0xb80>
  40126d:	49 89 d9             	mov    %rbx,%r9
  401270:	49 83 e1 f8          	and    $0xfffffffffffffff8,%r9
  401274:	49 89 da             	mov    %rbx,%r10
  401277:	49 83 e2 f8          	and    $0xfffffffffffffff8,%r10
  40127b:	0f 84 df 00 00 00    	je     401360 <main+0xb80>
  401281:	4c 8d 7b f8          	lea    -0x8(%rbx),%r15
  401285:	49 c1 ef 03          	shr    $0x3,%r15
  401289:	45 8d 5f 01          	lea    0x1(%r15),%r11d
  40128d:	41 83 e3 01          	and    $0x1,%r11d
  401291:	4d 85 ff             	test   %r15,%r15
  401294:	ba 00 00 00 00       	mov    $0x0,%edx
  401299:	74 7f                	je     40131a <main+0xb3a>
  40129b:	49 8d 43 ff          	lea    -0x1(%r11),%rax
  40129f:	4c 29 f8             	sub    %r15,%rax
  4012a2:	31 d2                	xor    %edx,%edx
  4012a4:	66 66 66 2e 0f 1f 84 	data16 data16 nopw %cs:0x0(%rax,%rax,1)
  4012ab:	00 00 00 00 00 
  4012b0:	48 8d 34 ad 00 00 00 	lea    0x0(,%rbp,4),%rsi
  4012b7:	00 
  4012b8:	f3 0f 6f 8c 96 10 f4 	movdqu 0x7ebf410(%rsi,%rdx,4),%xmm1
  4012bf:	eb 07 
  4012c1:	f3 0f 6f 94 96 20 f4 	movdqu 0x7ebf420(%rsi,%rdx,4),%xmm2
  4012c8:	eb 07 
  4012ca:	66 0f fe c8          	paddd  %xmm0,%xmm1
  4012ce:	66 0f fe d0          	paddd  %xmm0,%xmm2
  4012d2:	f3 0f 7f 8c 96 10 f4 	movdqu %xmm1,0x7ebf410(%rsi,%rdx,4)
  4012d9:	eb 07 
  4012db:	f3 0f 7f 94 96 20 f4 	movdqu %xmm2,0x7ebf420(%rsi,%rdx,4)
  4012e2:	eb 07 
  4012e4:	f3 0f 6f 8c 96 30 f4 	movdqu 0x7ebf430(%rsi,%rdx,4),%xmm1
  4012eb:	eb 07 
  4012ed:	f3 0f 6f 94 96 40 f4 	movdqu 0x7ebf440(%rsi,%rdx,4),%xmm2
  4012f4:	eb 07 
  4012f6:	66 0f fe c8          	paddd  %xmm0,%xmm1
  4012fa:	66 0f fe d0          	paddd  %xmm0,%xmm2
  4012fe:	f3 0f 7f 8c 96 30 f4 	movdqu %xmm1,0x7ebf430(%rsi,%rdx,4)
  401305:	eb 07 
  401307:	f3 0f 7f 94 96 40 f4 	movdqu %xmm2,0x7ebf440(%rsi,%rdx,4)
  40130e:	eb 07 
  401310:	48 83 c2 10          	add    $0x10,%rdx
  401314:	48 83 c0 02          	add    $0x2,%rax
  401318:	75 96                	jne    4012b0 <main+0xad0>
  40131a:	4d 85 db             	test   %r11,%r11
  40131d:	74 2f                	je     40134e <main+0xb6e>
  40131f:	48 01 ea             	add    %rbp,%rdx
  401322:	f3 0f 6f 0c 95 10 f4 	movdqu 0x7ebf410(,%rdx,4),%xmm1
  401329:	eb 07 
  40132b:	f3 0f 6f 14 95 20 f4 	movdqu 0x7ebf420(,%rdx,4),%xmm2
  401332:	eb 07 
  401334:	66 0f fe c8          	paddd  %xmm0,%xmm1
  401338:	66 0f fe d0          	paddd  %xmm0,%xmm2
  40133c:	f3 0f 7f 0c 95 10 f4 	movdqu %xmm1,0x7ebf410(,%rdx,4)
  401343:	eb 07 
  401345:	f3 0f 7f 14 95 20 f4 	movdqu %xmm2,0x7ebf420(,%rdx,4)
  40134c:	eb 07 
  40134e:	4c 39 d3             	cmp    %r10,%rbx
  401351:	74 1c                	je     40136f <main+0xb8f>
  401353:	4c 01 cd             	add    %r9,%rbp
  401356:	66 2e 0f 1f 84 00 00 	nopw   %cs:0x0(%rax,%rax,1)
  40135d:	00 00 00 
  401360:	01 0c ad 10 f4 eb 07 	add    %ecx,0x7ebf410(,%rbp,4)
  401367:	48 ff c5             	inc    %rbp
  40136a:	48 39 fd             	cmp    %rdi,%rbp
  40136d:	7c f1                	jl     401360 <main+0xb80>
  40136f:	4d 39 c4             	cmp    %r8,%r12
  401372:	0f 85 c8 fe ff ff    	jne    401240 <main+0xa60>
  401378:	48 c7 c0 40 d8 f6 ff 	mov    $0xfffffffffff6d840,%rax
  40137f:	66 0f 28 05 e9 12 00 	movapd 0x12e9(%rip),%xmm0        # 402670 <_IO_stdin_used+0x60>
  401386:	00 
  401387:	66 0f 1f 84 00 00 00 	nopw   0x0(%rax,%rax,1)
  40138e:	00 00 
  401390:	66 0f 11 80 c8 67 e9 	movupd %xmm0,0x1ae967c8(%rax)
  401397:	1a 
  401398:	66 0f 11 80 d8 67 e9 	movupd %xmm0,0x1ae967d8(%rax)
  40139f:	1a 
  4013a0:	66 0f 11 80 e8 67 e9 	movupd %xmm0,0x1ae967e8(%rax)
  4013a7:	1a 
  4013a8:	66 0f 11 80 f8 67 e9 	movupd %xmm0,0x1ae967f8(%rax)
  4013af:	1a 
  4013b0:	66 0f 11 80 08 68 e9 	movupd %xmm0,0x1ae96808(%rax)
  4013b7:	1a 
  4013b8:	66 0f 11 80 18 68 e9 	movupd %xmm0,0x1ae96818(%rax)
  4013bf:	1a 
  4013c0:	66 0f 11 80 28 68 e9 	movupd %xmm0,0x1ae96828(%rax)
  4013c7:	1a 
  4013c8:	66 0f 11 80 38 68 e9 	movupd %xmm0,0x1ae96838(%rax)
  4013cf:	1a 
  4013d0:	66 0f 11 80 48 68 e9 	movupd %xmm0,0x1ae96848(%rax)
  4013d7:	1a 
  4013d8:	66 0f 11 80 58 68 e9 	movupd %xmm0,0x1ae96858(%rax)
  4013df:	1a 
  4013e0:	66 0f 11 80 68 68 e9 	movupd %xmm0,0x1ae96868(%rax)
  4013e7:	1a 
  4013e8:	66 0f 11 80 78 68 e9 	movupd %xmm0,0x1ae96878(%rax)
  4013ef:	1a 
  4013f0:	48 05 c0 00 00 00    	add    $0xc0,%rax
  4013f6:	75 98                	jne    401390 <main+0xbb0>
  4013f8:	49 be 00 00 00 00 00 	movabs $0x3ff0000000000000,%r14
  4013ff:	00 f0 3f 
  401402:	4c 89 35 bf 53 a9 1a 	mov    %r14,0x1aa953bf(%rip)        # 1ae967c8 <x+0x927c8>
  401409:	48 8d 7c 24 50       	lea    0x50(%rsp),%rdi
  40140e:	e8 2d 07 00 00       	callq  401b40 <conj_grad>
  401413:	8a 05 83 1c 20 00    	mov    0x201c83(%rip),%al        # 60309c <lastcol>
  401419:	84 c0                	test   %al,%al
  40141b:	b9 f9 24 01 00       	mov    $0x124f9,%ecx
  401420:	b8 01 00 00 00       	mov    $0x1,%eax
  401425:	0f 45 c1             	cmovne %ecx,%eax
  401428:	0f b6 0d 69 1c 20 00 	movzbl 0x201c69(%rip),%ecx        # 603098 <firstcol>
  40142f:	29 c8                	sub    %ecx,%eax
  401431:	66 0f 57 c0          	xorpd  %xmm0,%xmm0
  401435:	85 c0                	test   %eax,%eax
  401437:	0f 8e a8 00 00 00    	jle    4014e5 <main+0xd05>
  40143d:	48 63 d0             	movslq %eax,%rdx
  401440:	48 8d 72 ff          	lea    -0x1(%rdx),%rsi
  401444:	83 e0 03             	and    $0x3,%eax
  401447:	b9 01 00 00 00       	mov    $0x1,%ecx
  40144c:	48 83 fe 03          	cmp    $0x3,%rsi
  401450:	73 06                	jae    401458 <main+0xc78>
  401452:	66 0f 57 c0          	xorpd  %xmm0,%xmm0
  401456:	eb 60                	jmp    4014b8 <main+0xcd8>
  401458:	48 29 c2             	sub    %rax,%rdx
  40145b:	66 0f 57 c0          	xorpd  %xmm0,%xmm0
  40145f:	31 c9                	xor    %ecx,%ecx
  401461:	66 66 66 66 66 66 2e 	data16 data16 data16 data16 data16 nopw %cs:0x0(%rax,%rax,1)
  401468:	0f 1f 84 00 00 00 00 
  40146f:	00 
  401470:	f2 0f 10 0c cd e8 67 	movsd  0x1ae967e8(,%rcx,8),%xmm1
  401477:	e9 1a 
  401479:	f2 0f 59 c9          	mulsd  %xmm1,%xmm1
  40147d:	f2 0f 58 c8          	addsd  %xmm0,%xmm1
  401481:	66 0f 10 14 cd f0 67 	movupd 0x1ae967f0(,%rcx,8),%xmm2
  401488:	e9 1a 
  40148a:	66 0f 59 d2          	mulpd  %xmm2,%xmm2
  40148e:	f2 0f 58 ca          	addsd  %xmm2,%xmm1
  401492:	66 0f c6 d2 01       	shufpd $0x1,%xmm2,%xmm2
  401497:	f2 0f 58 d1          	addsd  %xmm1,%xmm2
  40149b:	f2 0f 10 04 cd 00 68 	movsd  0x1ae96800(,%rcx,8),%xmm0
  4014a2:	e9 1a 
  4014a4:	f2 0f 59 c0          	mulsd  %xmm0,%xmm0
  4014a8:	f2 0f 58 c2          	addsd  %xmm2,%xmm0
  4014ac:	48 83 c1 04          	add    $0x4,%rcx
  4014b0:	48 39 ca             	cmp    %rcx,%rdx
  4014b3:	75 bb                	jne    401470 <main+0xc90>
  4014b5:	48 ff c1             	inc    %rcx
  4014b8:	48 85 c0             	test   %rax,%rax
  4014bb:	74 28                	je     4014e5 <main+0xd05>
  4014bd:	48 8d 0c cd e0 67 e9 	lea    0x1ae967e0(,%rcx,8),%rcx
  4014c4:	1a 
  4014c5:	48 f7 d8             	neg    %rax
  4014c8:	0f 1f 84 00 00 00 00 	nopl   0x0(%rax,%rax,1)
  4014cf:	00 
  4014d0:	f2 0f 10 09          	movsd  (%rcx),%xmm1
  4014d4:	f2 0f 59 c9          	mulsd  %xmm1,%xmm1
  4014d8:	f2 0f 58 c1          	addsd  %xmm1,%xmm0
  4014dc:	48 83 c1 08          	add    $0x8,%rcx
  4014e0:	48 ff c0             	inc    %rax
  4014e3:	75 eb                	jne    4014d0 <main+0xcf0>
  4014e5:	0f 57 c9             	xorps  %xmm1,%xmm1
  4014e8:	f2 0f 51 c8          	sqrtsd %xmm0,%xmm1
  4014ec:	66 0f 2e c9          	ucomisd %xmm1,%xmm1
  4014f0:	7b 09                	jnp    4014fb <main+0xd1b>
  4014f2:	e8 c9 f1 ff ff       	callq  4006c0 <sqrt@plt>
  4014f7:	66 0f 28 c8          	movapd %xmm0,%xmm1
  4014fb:	8a 05 9b 1b 20 00    	mov    0x201b9b(%rip),%al        # 60309c <lastcol>
  401501:	84 c0                	test   %al,%al
  401503:	b8 f9 24 01 00       	mov    $0x124f9,%eax
  401508:	b9 01 00 00 00       	mov    $0x1,%ecx
  40150d:	0f 45 c8             	cmovne %eax,%ecx
  401510:	0f b6 05 81 1b 20 00 	movzbl 0x201b81(%rip),%eax        # 603098 <firstcol>
  401517:	29 c1                	sub    %eax,%ecx
  401519:	85 c9                	test   %ecx,%ecx
  40151b:	0f 8e 3d 01 00 00    	jle    40165e <main+0xe7e>
  401521:	f2 0f 10 05 f7 10 00 	movsd  0x10f7(%rip),%xmm0        # 402620 <_IO_stdin_used+0x10>
  401528:	00 
  401529:	f2 0f 5e c1          	divsd  %xmm1,%xmm0
  40152d:	48 63 c1             	movslq %ecx,%rax
  401530:	be 01 00 00 00       	mov    $0x1,%esi
  401535:	83 f9 04             	cmp    $0x4,%ecx
  401538:	0f 82 f1 00 00 00    	jb     40162f <main+0xe4f>
  40153e:	48 89 c1             	mov    %rax,%rcx
  401541:	48 83 e1 fc          	and    $0xfffffffffffffffc,%rcx
  401545:	48 89 c2             	mov    %rax,%rdx
  401548:	48 83 e2 fc          	and    $0xfffffffffffffffc,%rdx
  40154c:	be 01 00 00 00       	mov    $0x1,%esi
  401551:	0f 84 d8 00 00 00    	je     40162f <main+0xe4f>
  401557:	66 0f 28 c8          	movapd %xmm0,%xmm1
  40155b:	0f 16 c9             	movlhps %xmm1,%xmm1
  40155e:	48 8d 5a fc          	lea    -0x4(%rdx),%rbx
  401562:	48 c1 eb 02          	shr    $0x2,%rbx
  401566:	8d 7b 01             	lea    0x1(%rbx),%edi
  401569:	83 e7 01             	and    $0x1,%edi
  40156c:	be 01 00 00 00       	mov    $0x1,%esi
  401571:	48 85 db             	test   %rbx,%rbx
  401574:	74 7c                	je     4015f2 <main+0xe12>
  401576:	48 8d 6f ff          	lea    -0x1(%rdi),%rbp
  40157a:	48 29 dd             	sub    %rbx,%rbp
  40157d:	be 01 00 00 00       	mov    $0x1,%esi
  401582:	66 66 66 66 66 2e 0f 	data16 data16 data16 data16 nopw %cs:0x0(%rax,%rax,1)
  401589:	1f 84 00 00 00 00 00 
  401590:	66 0f 10 14 f5 e0 67 	movupd 0x1ae967e0(,%rsi,8),%xmm2
  401597:	e9 1a 
  401599:	66 0f 10 1c f5 f0 67 	movupd 0x1ae967f0(,%rsi,8),%xmm3
  4015a0:	e9 1a 
  4015a2:	66 0f 59 d1          	mulpd  %xmm1,%xmm2
  4015a6:	66 0f 59 d9          	mulpd  %xmm1,%xmm3
  4015aa:	66 0f 11 14 f5 00 40 	movupd %xmm2,0x1ae04000(,%rsi,8)
  4015b1:	e0 1a 
  4015b3:	66 0f 11 1c f5 10 40 	movupd %xmm3,0x1ae04010(,%rsi,8)
  4015ba:	e0 1a 
  4015bc:	66 0f 10 14 f5 00 68 	movupd 0x1ae96800(,%rsi,8),%xmm2
  4015c3:	e9 1a 
  4015c5:	66 0f 10 1c f5 10 68 	movupd 0x1ae96810(,%rsi,8),%xmm3
  4015cc:	e9 1a 
  4015ce:	66 0f 59 d1          	mulpd  %xmm1,%xmm2
  4015d2:	66 0f 59 d9          	mulpd  %xmm1,%xmm3
  4015d6:	66 0f 11 14 f5 20 40 	movupd %xmm2,0x1ae04020(,%rsi,8)
  4015dd:	e0 1a 
  4015df:	66 0f 11 1c f5 30 40 	movupd %xmm3,0x1ae04030(,%rsi,8)
  4015e6:	e0 1a 
  4015e8:	48 8d 76 08          	lea    0x8(%rsi),%rsi
  4015ec:	48 83 c5 02          	add    $0x2,%rbp
  4015f0:	75 9e                	jne    401590 <main+0xdb0>
  4015f2:	48 85 ff             	test   %rdi,%rdi
  4015f5:	74 2c                	je     401623 <main+0xe43>
  4015f7:	66 0f 10 14 f5 e0 67 	movupd 0x1ae967e0(,%rsi,8),%xmm2
  4015fe:	e9 1a 
  401600:	66 0f 10 1c f5 f0 67 	movupd 0x1ae967f0(,%rsi,8),%xmm3
  401607:	e9 1a 
  401609:	66 0f 59 d1          	mulpd  %xmm1,%xmm2
  40160d:	66 0f 59 d9          	mulpd  %xmm1,%xmm3
  401611:	66 0f 11 14 f5 00 40 	movupd %xmm2,0x1ae04000(,%rsi,8)
  401618:	e0 1a 
  40161a:	66 0f 11 1c f5 10 40 	movupd %xmm3,0x1ae04010(,%rsi,8)
  401621:	e0 1a 
  401623:	48 39 d0             	cmp    %rdx,%rax
  401626:	74 36                	je     40165e <main+0xe7e>
  401628:	48 83 c9 01          	or     $0x1,%rcx
  40162c:	48 89 ce             	mov    %rcx,%rsi
  40162f:	48 ff ce             	dec    %rsi
  401632:	66 66 66 66 66 2e 0f 	data16 data16 data16 data16 nopw %cs:0x0(%rax,%rax,1)
  401639:	1f 84 00 00 00 00 00 
  401640:	f2 0f 10 0c f5 e8 67 	movsd  0x1ae967e8(,%rsi,8),%xmm1
  401647:	e9 1a 
  401649:	f2 0f 59 c8          	mulsd  %xmm0,%xmm1
  40164d:	f2 0f 11 0c f5 08 40 	movsd  %xmm1,0x1ae04008(,%rsi,8)
  401654:	e0 1a 
  401656:	48 ff c6             	inc    %rsi
  401659:	48 39 c6             	cmp    %rax,%rsi
  40165c:	7c e2                	jl     401640 <main+0xe60>
  40165e:	48 c7 c0 40 d8 f6 ff 	mov    $0xfffffffffff6d840,%rax
  401665:	66 0f 28 05 03 10 00 	movapd 0x1003(%rip),%xmm0        # 402670 <_IO_stdin_used+0x60>
  40166c:	00 
  40166d:	0f 1f 00             	nopl   (%rax)
  401670:	66 0f 11 80 c8 67 e9 	movupd %xmm0,0x1ae967c8(%rax)
  401677:	1a 
  401678:	66 0f 11 80 d8 67 e9 	movupd %xmm0,0x1ae967d8(%rax)
  40167f:	1a 
  401680:	66 0f 11 80 e8 67 e9 	movupd %xmm0,0x1ae967e8(%rax)
  401687:	1a 
  401688:	66 0f 11 80 f8 67 e9 	movupd %xmm0,0x1ae967f8(%rax)
  40168f:	1a 
  401690:	66 0f 11 80 08 68 e9 	movupd %xmm0,0x1ae96808(%rax)
  401697:	1a 
  401698:	66 0f 11 80 18 68 e9 	movupd %xmm0,0x1ae96818(%rax)
  40169f:	1a 
  4016a0:	66 0f 11 80 28 68 e9 	movupd %xmm0,0x1ae96828(%rax)
  4016a7:	1a 
  4016a8:	66 0f 11 80 38 68 e9 	movupd %xmm0,0x1ae96838(%rax)
  4016af:	1a 
  4016b0:	66 0f 11 80 48 68 e9 	movupd %xmm0,0x1ae96848(%rax)
  4016b7:	1a 
  4016b8:	66 0f 11 80 58 68 e9 	movupd %xmm0,0x1ae96858(%rax)
  4016bf:	1a 
  4016c0:	66 0f 11 80 68 68 e9 	movupd %xmm0,0x1ae96868(%rax)
  4016c7:	1a 
  4016c8:	66 0f 11 80 78 68 e9 	movupd %xmm0,0x1ae96878(%rax)
  4016cf:	1a 
  4016d0:	48 05 c0 00 00 00    	add    $0xc0,%rax
  4016d6:	75 98                	jne    401670 <main+0xe90>
  4016d8:	4c 89 35 e9 50 a9 1a 	mov    %r14,0x1aa950e9(%rip)        # 1ae967c8 <x+0x927c8>
  4016df:	bb 01 00 00 00       	mov    $0x1,%ebx
  4016e4:	bf 01 00 00 00       	mov    $0x1,%edi
  4016e9:	e8 12 0c 00 00       	callq  402300 <timer_clear>
  4016ee:	bf 01 00 00 00       	mov    $0x1,%edi
  4016f3:	e8 18 0c 00 00       	callq  402310 <timer_start>
  4016f8:	4c 8d 74 24 50       	lea    0x50(%rsp),%r14
  4016fd:	41 bf f9 24 01 00    	mov    $0x124f9,%r15d
  401703:	66 66 66 66 2e 0f 1f 	data16 data16 data16 nopw %cs:0x0(%rax,%rax,1)
  40170a:	84 00 00 00 00 00 
  401710:	4c 89 f7             	mov    %r14,%rdi
  401713:	e8 28 04 00 00       	callq  401b40 <conj_grad>
  401718:	8a 05 7e 19 20 00    	mov    0x20197e(%rip),%al        # 60309c <lastcol>
  40171e:	84 c0                	test   %al,%al
  401720:	ba 01 00 00 00       	mov    $0x1,%edx
  401725:	41 0f 45 d7          	cmovne %r15d,%edx
  401729:	0f b6 05 68 19 20 00 	movzbl 0x201968(%rip),%eax        # 603098 <firstcol>
  401730:	29 c2                	sub    %eax,%edx
  401732:	66 0f 57 d2          	xorpd  %xmm2,%xmm2
  401736:	85 d2                	test   %edx,%edx
  401738:	0f 8e 96 00 00 00    	jle    4017d4 <main+0xff4>
  40173e:	89 d0                	mov    %edx,%eax
  401740:	83 e0 01             	and    $0x1,%eax
  401743:	66 0f 57 d2          	xorpd  %xmm2,%xmm2
  401747:	83 fa 01             	cmp    $0x1,%edx
  40174a:	b9 01 00 00 00       	mov    $0x1,%ecx
  40174f:	74 5d                	je     4017ae <main+0xfce>
  401751:	48 63 d2             	movslq %edx,%rdx
  401754:	48 29 c2             	sub    %rax,%rdx
  401757:	66 0f 57 d2          	xorpd  %xmm2,%xmm2
  40175b:	31 c9                	xor    %ecx,%ecx
  40175d:	0f 1f 00             	nopl   (%rax)
  401760:	f2 0f 10 04 cd e8 67 	movsd  0x1ae967e8(,%rcx,8),%xmm0
  401767:	e9 1a 
  401769:	66 0f 28 c8          	movapd %xmm0,%xmm1
  40176d:	0f 16 c9             	movlhps %xmm1,%xmm1
  401770:	66 0f 16 04 cd 08 40 	movhpd 0x1ae04008(,%rcx,8),%xmm0
  401777:	e0 1a 
  401779:	66 0f 59 c1          	mulpd  %xmm1,%xmm0
  40177d:	66 0f 58 c2          	addpd  %xmm2,%xmm0
  401781:	f2 0f 10 14 cd f0 67 	movsd  0x1ae967f0(,%rcx,8),%xmm2
  401788:	e9 1a 
  40178a:	66 0f 28 ca          	movapd %xmm2,%xmm1
  40178e:	0f 16 c9             	movlhps %xmm1,%xmm1
  401791:	66 0f 16 14 cd 10 40 	movhpd 0x1ae04010(,%rcx,8),%xmm2
  401798:	e0 1a 
  40179a:	66 0f 59 d1          	mulpd  %xmm1,%xmm2
  40179e:	66 0f 58 d0          	addpd  %xmm0,%xmm2
  4017a2:	48 83 c1 02          	add    $0x2,%rcx
  4017a6:	48 39 ca             	cmp    %rcx,%rdx
  4017a9:	75 b5                	jne    401760 <main+0xf80>
  4017ab:	48 ff c1             	inc    %rcx
  4017ae:	48 85 c0             	test   %rax,%rax
  4017b1:	74 21                	je     4017d4 <main+0xff4>
  4017b3:	f2 0f 10 04 cd e0 67 	movsd  0x1ae967e0(,%rcx,8),%xmm0
  4017ba:	e9 1a 
  4017bc:	66 0f 28 c8          	movapd %xmm0,%xmm1
  4017c0:	0f 16 c9             	movlhps %xmm1,%xmm1
  4017c3:	66 0f 16 04 cd 00 40 	movhpd 0x1ae04000(,%rcx,8),%xmm0
  4017ca:	e0 1a 
  4017cc:	66 0f 59 c1          	mulpd  %xmm1,%xmm0
  4017d0:	66 0f 58 d0          	addpd  %xmm0,%xmm2
  4017d4:	0f 57 c0             	xorps  %xmm0,%xmm0
  4017d7:	f2 0f 51 c2          	sqrtsd %xmm2,%xmm0
  4017db:	66 0f 2e c0          	ucomisd %xmm0,%xmm0
  4017df:	7b 15                	jnp    4017f6 <main+0x1016>
  4017e1:	66 0f 28 c2          	movapd %xmm2,%xmm0
  4017e5:	66 0f 29 54 24 30    	movapd %xmm2,0x30(%rsp)
  4017eb:	e8 d0 ee ff ff       	callq  4006c0 <sqrt@plt>
  4017f0:	66 0f 28 54 24 30    	movapd 0x30(%rsp),%xmm2
  4017f6:	f2 0f 11 44 24 30    	movsd  %xmm0,0x30(%rsp)
  4017fc:	66 0f c6 d2 01       	shufpd $0x1,%xmm2,%xmm2
  401801:	f2 0f 10 05 17 0e 00 	movsd  0xe17(%rip),%xmm0        # 402620 <_IO_stdin_used+0x10>
  401808:	00 
  401809:	66 0f 28 c8          	movapd %xmm0,%xmm1
  40180d:	f2 0f 5e ca          	divsd  %xmm2,%xmm1
  401811:	f2 0f 58 0d 17 0e 00 	addsd  0xe17(%rip),%xmm1        # 402630 <_IO_stdin_used+0x20>
  401818:	00 
  401819:	83 fb 01             	cmp    $0x1,%ebx
  40181c:	f2 0f 11 4c 24 20    	movsd  %xmm1,0x20(%rsp)
  401822:	75 10                	jne    401834 <main+0x1054>
  401824:	bf 20 28 40 00       	mov    $0x402820,%edi
  401829:	e8 12 ee ff ff       	callq  400640 <puts@plt>
  40182e:	f2 0f 10 4c 24 20    	movsd  0x20(%rsp),%xmm1
  401834:	f2 0f 10 44 24 50    	movsd  0x50(%rsp),%xmm0
  40183a:	bf af 26 40 00       	mov    $0x4026af,%edi
  40183f:	b0 02                	mov    $0x2,%al
  401841:	89 de                	mov    %ebx,%esi
  401843:	e8 08 ee ff ff       	callq  400650 <printf@plt>
  401848:	8a 05 4e 18 20 00    	mov    0x20184e(%rip),%al        # 60309c <lastcol>
  40184e:	84 c0                	test   %al,%al
  401850:	b9 01 00 00 00       	mov    $0x1,%ecx
  401855:	41 0f 45 cf          	cmovne %r15d,%ecx
  401859:	0f b6 05 38 18 20 00 	movzbl 0x201838(%rip),%eax        # 603098 <firstcol>
  401860:	29 c1                	sub    %eax,%ecx
  401862:	85 c9                	test   %ecx,%ecx
  401864:	0f 8e 34 01 00 00    	jle    40199e <main+0x11be>
  40186a:	f2 0f 10 05 ae 0d 00 	movsd  0xdae(%rip),%xmm0        # 402620 <_IO_stdin_used+0x10>
  401871:	00 
  401872:	f2 0f 5e 44 24 30    	divsd  0x30(%rsp),%xmm0
  401878:	48 63 c1             	movslq %ecx,%rax
  40187b:	83 f9 04             	cmp    $0x4,%ecx
  40187e:	be 01 00 00 00       	mov    $0x1,%esi
  401883:	0f 82 e7 00 00 00    	jb     401970 <main+0x1190>
  401889:	49 89 c0             	mov    %rax,%r8
  40188c:	49 83 e0 fc          	and    $0xfffffffffffffffc,%r8
  401890:	48 89 c2             	mov    %rax,%rdx
  401893:	48 83 e2 fc          	and    $0xfffffffffffffffc,%rdx
  401897:	be 01 00 00 00       	mov    $0x1,%esi
  40189c:	0f 84 ce 00 00 00    	je     401970 <main+0x1190>
  4018a2:	66 0f 28 c8          	movapd %xmm0,%xmm1
  4018a6:	0f 16 c9             	movlhps %xmm1,%xmm1
  4018a9:	48 8d 4a fc          	lea    -0x4(%rdx),%rcx
  4018ad:	48 c1 e9 02          	shr    $0x2,%rcx
  4018b1:	8d 71 01             	lea    0x1(%rcx),%esi
  4018b4:	83 e6 01             	and    $0x1,%esi
  4018b7:	48 85 c9             	test   %rcx,%rcx
  4018ba:	bf 01 00 00 00       	mov    $0x1,%edi
  4018bf:	74 71                	je     401932 <main+0x1152>
  4018c1:	48 8d 6e ff          	lea    -0x1(%rsi),%rbp
  4018c5:	48 29 cd             	sub    %rcx,%rbp
  4018c8:	bf 01 00 00 00       	mov    $0x1,%edi
  4018cd:	0f 1f 00             	nopl   (%rax)
  4018d0:	66 0f 10 14 fd e0 67 	movupd 0x1ae967e0(,%rdi,8),%xmm2
  4018d7:	e9 1a 
  4018d9:	66 0f 10 1c fd f0 67 	movupd 0x1ae967f0(,%rdi,8),%xmm3
  4018e0:	e9 1a 
  4018e2:	66 0f 59 d1          	mulpd  %xmm1,%xmm2
  4018e6:	66 0f 59 d9          	mulpd  %xmm1,%xmm3
  4018ea:	66 0f 11 14 fd 00 40 	movupd %xmm2,0x1ae04000(,%rdi,8)
  4018f1:	e0 1a 
  4018f3:	66 0f 11 1c fd 10 40 	movupd %xmm3,0x1ae04010(,%rdi,8)
  4018fa:	e0 1a 
  4018fc:	66 0f 10 14 fd 00 68 	movupd 0x1ae96800(,%rdi,8),%xmm2
  401903:	e9 1a 
  401905:	66 0f 10 1c fd 10 68 	movupd 0x1ae96810(,%rdi,8),%xmm3
  40190c:	e9 1a 
  40190e:	66 0f 59 d1          	mulpd  %xmm1,%xmm2
  401912:	66 0f 59 d9          	mulpd  %xmm1,%xmm3
  401916:	66 0f 11 14 fd 20 40 	movupd %xmm2,0x1ae04020(,%rdi,8)
  40191d:	e0 1a 
  40191f:	66 0f 11 1c fd 30 40 	movupd %xmm3,0x1ae04030(,%rdi,8)
  401926:	e0 1a 
  401928:	48 8d 7f 08          	lea    0x8(%rdi),%rdi
  40192c:	48 83 c5 02          	add    $0x2,%rbp
  401930:	75 9e                	jne    4018d0 <main+0x10f0>
  401932:	48 85 f6             	test   %rsi,%rsi
  401935:	74 2c                	je     401963 <main+0x1183>
  401937:	66 0f 10 14 fd e0 67 	movupd 0x1ae967e0(,%rdi,8),%xmm2
  40193e:	e9 1a 
  401940:	66 0f 10 1c fd f0 67 	movupd 0x1ae967f0(,%rdi,8),%xmm3
  401947:	e9 1a 
  401949:	66 0f 59 d1          	mulpd  %xmm1,%xmm2
  40194d:	66 0f 59 d9          	mulpd  %xmm1,%xmm3
  401951:	66 0f 11 14 fd 00 40 	movupd %xmm2,0x1ae04000(,%rdi,8)
  401958:	e0 1a 
  40195a:	66 0f 11 1c fd 10 40 	movupd %xmm3,0x1ae04010(,%rdi,8)
  401961:	e0 1a 
  401963:	48 39 d0             	cmp    %rdx,%rax
  401966:	74 36                	je     40199e <main+0x11be>
  401968:	49 83 c8 01          	or     $0x1,%r8
  40196c:	4c 89 c6             	mov    %r8,%rsi
  40196f:	90                   	nop
  401970:	48 ff ce             	dec    %rsi
  401973:	66 66 66 66 2e 0f 1f 	data16 data16 data16 nopw %cs:0x0(%rax,%rax,1)
  40197a:	84 00 00 00 00 00 
  401980:	f2 0f 10 0c f5 e8 67 	movsd  0x1ae967e8(,%rsi,8),%xmm1
  401987:	e9 1a 
  401989:	f2 0f 59 c8          	mulsd  %xmm0,%xmm1
  40198d:	f2 0f 11 0c f5 08 40 	movsd  %xmm1,0x1ae04008(,%rsi,8)
  401994:	e0 1a 
  401996:	48 ff c6             	inc    %rsi
  401999:	48 39 c6             	cmp    %rax,%rsi
  40199c:	7c e2                	jl     401980 <main+0x11a0>
  40199e:	ff c3                	inc    %ebx
  4019a0:	83 fb 0b             	cmp    $0xb,%ebx
  4019a3:	0f 85 67 fd ff ff    	jne    401710 <main+0xf30>
  4019a9:	bf 01 00 00 00       	mov    $0x1,%edi
  4019ae:	e8 8d 09 00 00       	callq  402340 <timer_stop>
  4019b3:	bf 01 00 00 00       	mov    $0x1,%edi
  4019b8:	e8 c3 09 00 00       	callq  402380 <timer_read>
  4019bd:	f2 0f 11 44 24 30    	movsd  %xmm0,0x30(%rsp)
  4019c3:	bf e0 27 40 00       	mov    $0x4027e0,%edi
  4019c8:	e8 73 ec ff ff       	callq  400640 <puts@plt>
  4019cd:	f2 0f 10 1d 63 0c 00 	movsd  0xc63(%rip),%xmm3        # 402638 <_IO_stdin_used+0x28>
  4019d4:	00 
  4019d5:	f2 0f 10 54 24 20    	movsd  0x20(%rsp),%xmm2
  4019db:	f2 0f 58 da          	addsd  %xmm2,%xmm3
  4019df:	66 0f 28 05 99 0c 00 	movapd 0xc99(%rip),%xmm0        # 402680 <_IO_stdin_used+0x70>
  4019e6:	00 
  4019e7:	66 0f 54 c3          	andpd  %xmm3,%xmm0
  4019eb:	31 c0                	xor    %eax,%eax
  4019ed:	f2 0f 10 0d 4b 0c 00 	movsd  0xc4b(%rip),%xmm1        # 402640 <_IO_stdin_used+0x30>
  4019f4:	00 
  4019f5:	66 0f 2e c8          	ucomisd %xmm0,%xmm1
  4019f9:	72 39                	jb     401a34 <main+0x1254>
  4019fb:	bf 00 28 40 00       	mov    $0x402800,%edi
  401a00:	66 0f 29 5c 24 10    	movapd %xmm3,0x10(%rsp)
  401a06:	e8 35 ec ff ff       	callq  400640 <puts@plt>
  401a0b:	bf cd 26 40 00       	mov    $0x4026cd,%edi
  401a10:	b0 01                	mov    $0x1,%al
  401a12:	f2 0f 10 44 24 20    	movsd  0x20(%rsp),%xmm0
  401a18:	e8 33 ec ff ff       	callq  400650 <printf@plt>
  401a1d:	bf e2 26 40 00       	mov    $0x4026e2,%edi
  401a22:	b0 01                	mov    $0x1,%al
  401a24:	66 0f 28 44 24 10    	movapd 0x10(%rsp),%xmm0
  401a2a:	e8 21 ec ff ff       	callq  400650 <printf@plt>
  401a2f:	b8 01 00 00 00       	mov    $0x1,%eax
  401a34:	66 0f 57 c9          	xorpd  %xmm1,%xmm1
  401a38:	f2 0f 10 44 24 30    	movsd  0x30(%rsp),%xmm0
  401a3e:	66 0f 2e c1          	ucomisd %xmm1,%xmm0
  401a42:	75 02                	jne    401a46 <main+0x1266>
  401a44:	7b 14                	jnp    401a5a <main+0x127a>
  401a46:	f2 0f 10 0d fa 0b 00 	movsd  0xbfa(%rip),%xmm1        # 402648 <_IO_stdin_used+0x38>
  401a4d:	00 
  401a4e:	f2 0f 5e c8          	divsd  %xmm0,%xmm1
  401a52:	f2 0f 5e 0d f6 0b 00 	divsd  0xbf6(%rip),%xmm1        # 402650 <_IO_stdin_used+0x40>
  401a59:	00 
  401a5a:	48 83 ec 08          	sub    $0x8,%rsp
  401a5e:	bf f7 26 40 00       	mov    $0x4026f7,%edi
  401a63:	be 42 00 00 00       	mov    $0x42,%esi
  401a68:	ba f8 24 01 00       	mov    $0x124f8,%edx
  401a6d:	b9 00 00 00 00       	mov    $0x0,%ecx
  401a72:	41 b8 00 00 00 00    	mov    $0x0,%r8d
  401a78:	41 b9 4b 00 00 00    	mov    $0x4b,%r9d
  401a7e:	68 6f 27 40 00       	pushq  $0x40276f
  401a83:	68 57 27 40 00       	pushq  $0x402757
  401a88:	68 37 27 40 00       	pushq  $0x402737
  401a8d:	68 2b 27 40 00       	pushq  $0x40272b
  401a92:	68 27 27 40 00       	pushq  $0x402727
  401a97:	68 23 27 40 00       	pushq  $0x402723
  401a9c:	68 23 27 40 00       	pushq  $0x402723
  401aa1:	68 17 27 40 00       	pushq  $0x402717
  401aa6:	68 13 27 40 00       	pushq  $0x402713
  401aab:	50                   	push   %rax
  401aac:	68 fa 26 40 00       	pushq  $0x4026fa
  401ab1:	e8 fa 07 00 00       	callq  4022b0 <c_print_results>
  401ab6:	48 83 c4 60          	add    $0x60,%rsp
  401aba:	31 c0                	xor    %eax,%eax
  401abc:	48 83 c4 68          	add    $0x68,%rsp
  401ac0:	5b                   	pop    %rbx
  401ac1:	41 5c                	pop    %r12
  401ac3:	41 5d                	pop    %r13
  401ac5:	41 5e                	pop    %r14
  401ac7:	41 5f                	pop    %r15
  401ac9:	5d                   	pop    %rbp
  401aca:	c3                   	retq   
  401acb:	bf 60 28 40 00       	mov    $0x402860,%edi
  401ad0:	44 89 d3             	mov    %r10d,%ebx
  401ad3:	e8 68 eb ff ff       	callq  400640 <puts@plt>
  401ad8:	bf 76 27 40 00       	mov    $0x402776,%edi
  401add:	31 c0                	xor    %eax,%eax
  401adf:	89 ee                	mov    %ebp,%esi
  401ae1:	89 da                	mov    %ebx,%edx
  401ae3:	e8 68 eb ff ff       	callq  400650 <printf@plt>
  401ae8:	bf 8c 27 40 00       	mov    $0x40278c,%edi
  401aed:	31 c0                	xor    %eax,%eax
  401aef:	48 8b 74 24 10       	mov    0x10(%rsp),%rsi
  401af4:	e8 57 eb ff ff       	callq  400650 <printf@plt>
  401af9:	bf 01 00 00 00       	mov    $0x1,%edi
  401afe:	e8 ad eb ff ff       	callq  4006b0 <exit@plt>
  401b03:	01 c3                	add    %eax,%ebx
  401b05:	bf 60 28 40 00       	mov    $0x402860,%edi
  401b0a:	45 89 d6             	mov    %r10d,%r14d
  401b0d:	4c 89 c5             	mov    %r8,%rbp
  401b10:	e8 2b eb ff ff       	callq  400640 <puts@plt>
  401b15:	bf 76 27 40 00       	mov    $0x402776,%edi
  401b1a:	31 c0                	xor    %eax,%eax
  401b1c:	89 ee                	mov    %ebp,%esi
  401b1e:	44 89 f2             	mov    %r14d,%edx
  401b21:	e8 2a eb ff ff       	callq  400650 <printf@plt>
  401b26:	bf 8c 27 40 00       	mov    $0x40278c,%edi
  401b2b:	31 c0                	xor    %eax,%eax
  401b2d:	89 de                	mov    %ebx,%esi
  401b2f:	eb c3                	jmp    401af4 <main+0x1314>
  401b31:	66 66 66 66 66 66 2e 	data16 data16 data16 data16 data16 nopw %cs:0x0(%rax,%rax,1)
  401b38:	0f 1f 84 00 00 00 00 
  401b3f:	00 

0000000000401b40 <conj_grad>:
  401b40:	55                   	push   %rbp
  401b41:	41 57                	push   %r15
  401b43:	41 56                	push   %r14
  401b45:	41 55                	push   %r13
  401b47:	41 54                	push   %r12
  401b49:	53                   	push   %rbx
  401b4a:	48 83 ec 68          	sub    $0x68,%rsp
  401b4e:	48 89 7c 24 28       	mov    %rdi,0x28(%rsp)
  401b53:	8a 05 47 15 20 00    	mov    0x201547(%rip),%al        # 6030a0 <naa>
  401b59:	84 c0                	test   %al,%al
  401b5b:	b8 c8 27 09 00       	mov    $0x927c8,%eax
  401b60:	bb 08 00 00 00       	mov    $0x8,%ebx
  401b65:	48 0f 45 d8          	cmovne %rax,%rbx
  401b69:	45 31 ed             	xor    %r13d,%r13d
  401b6c:	bf a8 b7 fb 1a       	mov    $0x1afbb7a8,%edi
  401b71:	31 f6                	xor    %esi,%esi
  401b73:	48 89 da             	mov    %rbx,%rdx
  401b76:	e8 f5 ea ff ff       	callq  400670 <memset@plt>
  401b7b:	bf e8 67 e9 1a       	mov    $0x1ae967e8,%edi
  401b80:	31 f6                	xor    %esi,%esi
  401b82:	48 89 da             	mov    %rbx,%rdx
  401b85:	e8 e6 ea ff ff       	callq  400670 <memset@plt>
  401b8a:	bf 88 df 04 1b       	mov    $0x1b04df88,%edi
  401b8f:	be 08 40 e0 1a       	mov    $0x1ae04008,%esi
  401b94:	48 89 da             	mov    %rbx,%rdx
  401b97:	e8 04 eb ff ff       	callq  4006a0 <memcpy@plt>
  401b9c:	bf c8 8f f2 1a       	mov    $0x1af28fc8,%edi
  401ba1:	be 08 40 e0 1a       	mov    $0x1ae04008,%esi
  401ba6:	48 89 da             	mov    %rbx,%rdx
  401ba9:	e8 f2 ea ff ff       	callq  4006a0 <memcpy@plt>
  401bae:	8a 05 e8 14 20 00    	mov    0x2014e8(%rip),%al        # 60309c <lastcol>
  401bb4:	84 c0                	test   %al,%al
  401bb6:	b8 f9 24 01 00       	mov    $0x124f9,%eax
  401bbb:	41 bf 01 00 00 00    	mov    $0x1,%r15d
  401bc1:	b9 01 00 00 00       	mov    $0x1,%ecx
  401bc6:	0f 45 c8             	cmovne %eax,%ecx
  401bc9:	0f b6 05 c8 14 20 00 	movzbl 0x2014c8(%rip),%eax        # 603098 <firstcol>
  401bd0:	29 c1                	sub    %eax,%ecx
  401bd2:	89 4c 24 10          	mov    %ecx,0x10(%rsp)
  401bd6:	4c 63 c9             	movslq %ecx,%r9
  401bd9:	49 8d 51 ff          	lea    -0x1(%r9),%rdx
  401bdd:	45 89 cb             	mov    %r9d,%r11d
  401be0:	41 83 e3 03          	and    $0x3,%r11d
  401be4:	45 85 c9             	test   %r9d,%r9d
  401be7:	0f 8e 9d 00 00 00    	jle    401c8a <conj_grad+0x14a>
  401bed:	b9 01 00 00 00       	mov    $0x1,%ecx
  401bf2:	48 83 fa 03          	cmp    $0x3,%rdx
  401bf6:	73 06                	jae    401bfe <conj_grad+0xbe>
  401bf8:	66 0f 57 c0          	xorpd  %xmm0,%xmm0
  401bfc:	eb 5a                	jmp    401c58 <conj_grad+0x118>
  401bfe:	4c 89 c8             	mov    %r9,%rax
  401c01:	4c 29 d8             	sub    %r11,%rax
  401c04:	66 0f 57 c0          	xorpd  %xmm0,%xmm0
  401c08:	31 c9                	xor    %ecx,%ecx
  401c0a:	66 0f 1f 44 00 00    	nopw   0x0(%rax,%rax,1)
  401c10:	f2 0f 10 0c cd 08 40 	movsd  0x1ae04008(,%rcx,8),%xmm1
  401c17:	e0 1a 
  401c19:	f2 0f 59 c9          	mulsd  %xmm1,%xmm1
  401c1d:	f2 0f 58 c8          	addsd  %xmm0,%xmm1
  401c21:	66 0f 10 14 cd 10 40 	movupd 0x1ae04010(,%rcx,8),%xmm2
  401c28:	e0 1a 
  401c2a:	66 0f 59 d2          	mulpd  %xmm2,%xmm2
  401c2e:	f2 0f 58 ca          	addsd  %xmm2,%xmm1
  401c32:	66 0f c6 d2 01       	shufpd $0x1,%xmm2,%xmm2
  401c37:	f2 0f 58 d1          	addsd  %xmm1,%xmm2
  401c3b:	f2 0f 10 04 cd 20 40 	movsd  0x1ae04020(,%rcx,8),%xmm0
  401c42:	e0 1a 
  401c44:	f2 0f 59 c0          	mulsd  %xmm0,%xmm0
  401c48:	f2 0f 58 c2          	addsd  %xmm2,%xmm0
  401c4c:	48 83 c1 04          	add    $0x4,%rcx
  401c50:	48 39 c8             	cmp    %rcx,%rax
  401c53:	75 bb                	jne    401c10 <conj_grad+0xd0>
  401c55:	48 ff c1             	inc    %rcx
  401c58:	4d 85 db             	test   %r11,%r11
  401c5b:	74 28                	je     401c85 <conj_grad+0x145>
  401c5d:	48 8d 04 cd 00 40 e0 	lea    0x1ae04000(,%rcx,8),%rax
  401c64:	1a 
  401c65:	4c 89 d9             	mov    %r11,%rcx
  401c68:	48 f7 d9             	neg    %rcx
  401c6b:	0f 1f 44 00 00       	nopl   0x0(%rax,%rax,1)
  401c70:	f2 0f 10 08          	movsd  (%rax),%xmm1
  401c74:	f2 0f 59 c9          	mulsd  %xmm1,%xmm1
  401c78:	f2 0f 58 c1          	addsd  %xmm1,%xmm0
  401c7c:	48 83 c0 08          	add    $0x8,%rax
  401c80:	48 ff c1             	inc    %rcx
  401c83:	75 eb                	jne    401c70 <conj_grad+0x130>
  401c85:	66 49 0f 7e c5       	movq   %xmm0,%r13
  401c8a:	48 89 54 24 18       	mov    %rdx,0x18(%rsp)
  401c8f:	8a 05 ff 13 20 00    	mov    0x2013ff(%rip),%al        # 603094 <lastrow>
  401c95:	84 c0                	test   %al,%al
  401c97:	b9 f9 24 01 00       	mov    $0x124f9,%ecx
  401c9c:	41 0f 44 cf          	cmove  %r15d,%ecx
  401ca0:	0f b6 05 e9 13 20 00 	movzbl 0x2013e9(%rip),%eax        # 603090 <firstrow>
  401ca7:	29 c1                	sub    %eax,%ecx
  401ca9:	49 8d 51 fc          	lea    -0x4(%r9),%rdx
  401cad:	48 c1 ea 02          	shr    $0x2,%rdx
  401cb1:	8d 72 01             	lea    0x1(%rdx),%esi
  401cb4:	44 89 cf             	mov    %r9d,%edi
  401cb7:	83 e7 01             	and    $0x1,%edi
  401cba:	41 83 f9 04          	cmp    $0x4,%r9d
  401cbe:	0f 92 c0             	setb   %al
  401cc1:	4c 89 cd             	mov    %r9,%rbp
  401cc4:	48 83 e5 fc          	and    $0xfffffffffffffffc,%rbp
  401cc8:	0f 94 c3             	sete   %bl
  401ccb:	48 89 6c 24 40       	mov    %rbp,0x40(%rsp)
  401cd0:	48 83 cd 01          	or     $0x1,%rbp
  401cd4:	48 89 6c 24 38       	mov    %rbp,0x38(%rsp)
  401cd9:	83 e6 01             	and    $0x1,%esi
  401cdc:	4d 89 cc             	mov    %r9,%r12
  401cdf:	48 89 7c 24 60       	mov    %rdi,0x60(%rsp)
  401ce4:	49 29 fc             	sub    %rdi,%r12
  401ce7:	4d 89 c8             	mov    %r9,%r8
  401cea:	4d 29 d8             	sub    %r11,%r8
  401ced:	08 c3                	or     %al,%bl
  401cef:	88 5c 24 0f          	mov    %bl,0xf(%rsp)
  401cf3:	48 89 4c 24 20       	mov    %rcx,0x20(%rsp)
  401cf8:	8d 41 01             	lea    0x1(%rcx),%eax
  401cfb:	4c 63 d0             	movslq %eax,%r10
  401cfe:	8b 05 c0 b8 71 0b    	mov    0xb71b8c0(%rip),%eax        # bb1d5c4 <rowstr+0x4>
  401d04:	89 44 24 14          	mov    %eax,0x14(%rsp)
  401d08:	4c 89 d8             	mov    %r11,%rax
  401d0b:	48 f7 d8             	neg    %rax
  401d0e:	48 89 44 24 58       	mov    %rax,0x58(%rsp)
  401d13:	48 89 74 24 48       	mov    %rsi,0x48(%rsp)
  401d18:	48 8d 46 ff          	lea    -0x1(%rsi),%rax
  401d1c:	48 89 54 24 50       	mov    %rdx,0x50(%rsp)
  401d21:	48 29 d0             	sub    %rdx,%rax
  401d24:	48 89 44 24 30       	mov    %rax,0x30(%rsp)
  401d29:	0f 1f 80 00 00 00 00 	nopl   0x0(%rax)
  401d30:	48 8b 44 24 20       	mov    0x20(%rsp),%rax
  401d35:	85 c0                	test   %eax,%eax
  401d37:	0f 8e a7 00 00 00    	jle    401de4 <conj_grad+0x2a4>
  401d3d:	8b 54 24 14          	mov    0x14(%rsp),%edx
  401d41:	bd 01 00 00 00       	mov    $0x1,%ebp
  401d46:	66 2e 0f 1f 84 00 00 	nopw   %cs:0x0(%rax,%rax,1)
  401d4d:	00 00 00 
  401d50:	4c 8d 75 01          	lea    0x1(%rbp),%r14
  401d54:	8b 04 ad c4 d5 b1 0b 	mov    0xbb1d5c4(,%rbp,4),%eax
  401d5b:	39 c2                	cmp    %eax,%edx
  401d5d:	bf 00 00 00 00       	mov    $0x0,%edi
  401d62:	7d 6a                	jge    401dce <conj_grad+0x28e>
  401d64:	48 63 f8             	movslq %eax,%rdi
  401d67:	48 63 d2             	movslq %edx,%rdx
  401d6a:	48 8d 5f ff          	lea    -0x1(%rdi),%rbx
  401d6e:	66 0f 57 c0          	xorpd  %xmm0,%xmm0
  401d72:	66 66 66 66 66 2e 0f 	data16 data16 data16 data16 nopw %cs:0x0(%rax,%rax,1)
  401d79:	1f 84 00 00 00 00 00 
  401d80:	f2 0f 10 0c d5 c0 30 	movsd  0x6030c0(,%rdx,8),%xmm1
  401d87:	60 00 
  401d89:	48 63 0c 95 10 f4 eb 	movslq 0x7ebf410(,%rdx,4),%rcx
  401d90:	07 
  401d91:	48 8d 72 20          	lea    0x20(%rdx),%rsi
  401d95:	48 39 f3             	cmp    %rsi,%rbx
  401d98:	48 0f 4e f3          	cmovle %rbx,%rsi
  401d9c:	48 63 34 b5 10 f4 eb 	movslq 0x7ebf410(,%rsi,4),%rsi
  401da3:	07 
  401da4:	f2 0f 59 0c cd c0 8f 	mulsd  0x1af28fc0(,%rcx,8),%xmm1
  401dab:	f2 1a 
  401dad:	f2 0f 58 c1          	addsd  %xmm1,%xmm0
  401db1:	0f 18 0c 95 10 f5 eb 	prefetcht0 0x7ebf510(,%rdx,4)
  401db8:	07 
  401db9:	48 ff c2             	inc    %rdx
  401dbc:	0f 18 0c f5 c0 8f f2 	prefetcht0 0x1af28fc0(,%rsi,8)
  401dc3:	1a 
  401dc4:	48 39 d7             	cmp    %rdx,%rdi
  401dc7:	75 b7                	jne    401d80 <conj_grad+0x240>
  401dc9:	66 48 0f 7e c7       	movq   %xmm0,%rdi
  401dce:	48 89 3c ed a0 b7 fb 	mov    %rdi,0x1afbb7a0(,%rbp,8)
  401dd5:	1a 
  401dd6:	4d 39 d6             	cmp    %r10,%r14
  401dd9:	89 c2                	mov    %eax,%edx
  401ddb:	4c 89 f5             	mov    %r14,%rbp
  401dde:	0f 85 6c ff ff ff    	jne    401d50 <conj_grad+0x210>
  401de4:	83 7c 24 10 00       	cmpl   $0x0,0x10(%rsp)
  401de9:	41 be 00 00 00 00    	mov    $0x0,%r14d
  401def:	0f 8e f2 02 00 00    	jle    4020e7 <conj_grad+0x5a7>
  401df5:	66 0f 57 c0          	xorpd  %xmm0,%xmm0
  401df9:	48 8b 4c 24 18       	mov    0x18(%rsp),%rcx
  401dfe:	48 83 f9 03          	cmp    $0x3,%rcx
  401e02:	bd 01 00 00 00       	mov    $0x1,%ebp
  401e07:	72 62                	jb     401e6b <conj_grad+0x32b>
  401e09:	66 0f 57 c0          	xorpd  %xmm0,%xmm0
  401e0d:	31 ed                	xor    %ebp,%ebp
  401e0f:	90                   	nop
  401e10:	f2 0f 10 0c ed c8 8f 	movsd  0x1af28fc8(,%rbp,8),%xmm1
  401e17:	f2 1a 
  401e19:	f2 0f 59 0c ed a8 b7 	mulsd  0x1afbb7a8(,%rbp,8),%xmm1
  401e20:	fb 1a 
  401e22:	f2 0f 58 c8          	addsd  %xmm0,%xmm1
  401e26:	66 0f 10 04 ed d0 8f 	movupd 0x1af28fd0(,%rbp,8),%xmm0
  401e2d:	f2 1a 
  401e2f:	66 0f 10 14 ed b0 b7 	movupd 0x1afbb7b0(,%rbp,8),%xmm2
  401e36:	fb 1a 
  401e38:	66 0f 59 d0          	mulpd  %xmm0,%xmm2
  401e3c:	f2 0f 58 ca          	addsd  %xmm2,%xmm1
  401e40:	66 0f c6 d2 01       	shufpd $0x1,%xmm2,%xmm2
  401e45:	f2 0f 58 d1          	addsd  %xmm1,%xmm2
  401e49:	f2 0f 10 04 ed e0 8f 	movsd  0x1af28fe0(,%rbp,8),%xmm0
  401e50:	f2 1a 
  401e52:	f2 0f 59 04 ed c0 b7 	mulsd  0x1afbb7c0(,%rbp,8),%xmm0
  401e59:	fb 1a 
  401e5b:	f2 0f 58 c2          	addsd  %xmm2,%xmm0
  401e5f:	48 83 c5 04          	add    $0x4,%rbp
  401e63:	49 39 e8             	cmp    %rbp,%r8
  401e66:	75 a8                	jne    401e10 <conj_grad+0x2d0>
  401e68:	48 ff c5             	inc    %rbp
  401e6b:	66 49 0f 6e cd       	movq   %r13,%xmm1
  401e70:	4d 85 db             	test   %r11,%r11
  401e73:	74 28                	je     401e9d <conj_grad+0x35d>
  401e75:	48 c1 e5 03          	shl    $0x3,%rbp
  401e79:	48 8b 44 24 58       	mov    0x58(%rsp),%rax
  401e7e:	66 90                	xchg   %ax,%ax
  401e80:	f2 0f 10 95 c0 8f f2 	movsd  0x1af28fc0(%rbp),%xmm2
  401e87:	1a 
  401e88:	f2 0f 59 95 a0 b7 fb 	mulsd  0x1afbb7a0(%rbp),%xmm2
  401e8f:	1a 
  401e90:	f2 0f 58 c2          	addsd  %xmm2,%xmm0
  401e94:	48 83 c5 08          	add    $0x8,%rbp
  401e98:	48 ff c0             	inc    %rax
  401e9b:	75 e3                	jne    401e80 <conj_grad+0x340>
  401e9d:	48 85 c9             	test   %rcx,%rcx
  401ea0:	66 0f 28 d1          	movapd %xmm1,%xmm2
  401ea4:	f2 0f 5e d0          	divsd  %xmm0,%xmm2
  401ea8:	66 0f 57 c0          	xorpd  %xmm0,%xmm0
  401eac:	bd 01 00 00 00       	mov    $0x1,%ebp
  401eb1:	74 7c                	je     401f2f <conj_grad+0x3ef>
  401eb3:	66 0f 28 da          	movapd %xmm2,%xmm3
  401eb7:	0f 16 db             	movlhps %xmm3,%xmm3
  401eba:	66 0f 57 c0          	xorpd  %xmm0,%xmm0
  401ebe:	31 ed                	xor    %ebp,%ebp
  401ec0:	66 0f 10 24 ed 88 df 	movupd 0x1b04df88(,%rbp,8),%xmm4
  401ec7:	04 1b 
  401ec9:	66 0f 10 2c ed a8 b7 	movupd 0x1afbb7a8(,%rbp,8),%xmm5
  401ed0:	fb 1a 
  401ed2:	66 0f 59 eb          	mulpd  %xmm3,%xmm5
  401ed6:	66 0f 5c e5          	subpd  %xmm5,%xmm4
  401eda:	66 0f 28 ec          	movapd %xmm4,%xmm5
  401ede:	f2 0f 59 ed          	mulsd  %xmm5,%xmm5
  401ee2:	f2 0f 58 e8          	addsd  %xmm0,%xmm5
  401ee6:	66 0f 10 04 ed e8 67 	movupd 0x1ae967e8(,%rbp,8),%xmm0
  401eed:	e9 1a 
  401eef:	66 0f 10 34 ed c8 8f 	movupd 0x1af28fc8(,%rbp,8),%xmm6
  401ef6:	f2 1a 
  401ef8:	66 0f 59 f3          	mulpd  %xmm3,%xmm6
  401efc:	66 0f 58 f0          	addpd  %xmm0,%xmm6
  401f00:	66 0f 11 34 ed e8 67 	movupd %xmm6,0x1ae967e8(,%rbp,8)
  401f07:	e9 1a 
  401f09:	66 0f 11 24 ed 88 df 	movupd %xmm4,0x1b04df88(,%rbp,8)
  401f10:	04 1b 
  401f12:	66 0f c6 e4 01       	shufpd $0x1,%xmm4,%xmm4
  401f17:	f2 0f 59 e4          	mulsd  %xmm4,%xmm4
  401f1b:	66 0f 28 c4          	movapd %xmm4,%xmm0
  401f1f:	f2 0f 58 c5          	addsd  %xmm5,%xmm0
  401f23:	48 83 c5 02          	add    $0x2,%rbp
  401f27:	49 39 ec             	cmp    %rbp,%r12
  401f2a:	75 94                	jne    401ec0 <conj_grad+0x380>
  401f2c:	48 ff c5             	inc    %rbp
  401f2f:	48 83 7c 24 60 00    	cmpq   $0x0,0x60(%rsp)
  401f35:	74 46                	je     401f7d <conj_grad+0x43d>
  401f37:	f2 0f 10 1c ed 80 df 	movsd  0x1b04df80(,%rbp,8),%xmm3
  401f3e:	04 1b 
  401f40:	f2 0f 10 24 ed a0 b7 	movsd  0x1afbb7a0(,%rbp,8),%xmm4
  401f47:	fb 1a 
  401f49:	f2 0f 59 e2          	mulsd  %xmm2,%xmm4
  401f4d:	f2 0f 5c dc          	subsd  %xmm4,%xmm3
  401f51:	f2 0f 59 14 ed c0 8f 	mulsd  0x1af28fc0(,%rbp,8),%xmm2
  401f58:	f2 1a 
  401f5a:	f2 0f 58 14 ed e0 67 	addsd  0x1ae967e0(,%rbp,8),%xmm2
  401f61:	e9 1a 
  401f63:	f2 0f 11 14 ed e0 67 	movsd  %xmm2,0x1ae967e0(,%rbp,8)
  401f6a:	e9 1a 
  401f6c:	f2 0f 11 1c ed 80 df 	movsd  %xmm3,0x1b04df80(,%rbp,8)
  401f73:	04 1b 
  401f75:	f2 0f 59 db          	mulsd  %xmm3,%xmm3
  401f79:	f2 0f 58 c3          	addsd  %xmm3,%xmm0
  401f7d:	66 49 0f 7e c6       	movq   %xmm0,%r14
  401f82:	f2 0f 5e c1          	divsd  %xmm1,%xmm0
  401f86:	80 7c 24 0f 00       	cmpb   $0x0,0xf(%rsp)
  401f8b:	b8 01 00 00 00       	mov    $0x1,%eax
  401f90:	0f 85 1e 01 00 00    	jne    4020b4 <conj_grad+0x574>
  401f96:	48 83 7c 24 50 00    	cmpq   $0x0,0x50(%rsp)
  401f9c:	66 0f 28 c8          	movapd %xmm0,%xmm1
  401fa0:	0f 16 c9             	movlhps %xmm1,%xmm1
  401fa3:	bd 01 00 00 00       	mov    $0x1,%ebp
  401fa8:	0f 84 ac 00 00 00    	je     40205a <conj_grad+0x51a>
  401fae:	48 8b 44 24 30       	mov    0x30(%rsp),%rax
  401fb3:	bd 01 00 00 00       	mov    $0x1,%ebp
  401fb8:	0f 1f 84 00 00 00 00 	nopl   0x0(%rax,%rax,1)
  401fbf:	00 
  401fc0:	66 0f 10 14 ed 80 df 	movupd 0x1b04df80(,%rbp,8),%xmm2
  401fc7:	04 1b 
  401fc9:	66 0f 10 1c ed 90 df 	movupd 0x1b04df90(,%rbp,8),%xmm3
  401fd0:	04 1b 
  401fd2:	66 0f 10 24 ed c0 8f 	movupd 0x1af28fc0(,%rbp,8),%xmm4
  401fd9:	f2 1a 
  401fdb:	66 0f 10 2c ed d0 8f 	movupd 0x1af28fd0(,%rbp,8),%xmm5
  401fe2:	f2 1a 
  401fe4:	66 0f 59 e1          	mulpd  %xmm1,%xmm4
  401fe8:	66 0f 59 e9          	mulpd  %xmm1,%xmm5
  401fec:	66 0f 58 e2          	addpd  %xmm2,%xmm4
  401ff0:	66 0f 58 eb          	addpd  %xmm3,%xmm5
  401ff4:	66 0f 11 24 ed c0 8f 	movupd %xmm4,0x1af28fc0(,%rbp,8)
  401ffb:	f2 1a 
  401ffd:	66 0f 11 2c ed d0 8f 	movupd %xmm5,0x1af28fd0(,%rbp,8)
  402004:	f2 1a 
  402006:	66 0f 10 14 ed a0 df 	movupd 0x1b04dfa0(,%rbp,8),%xmm2
  40200d:	04 1b 
  40200f:	66 0f 10 1c ed b0 df 	movupd 0x1b04dfb0(,%rbp,8),%xmm3
  402016:	04 1b 
  402018:	66 0f 10 24 ed e0 8f 	movupd 0x1af28fe0(,%rbp,8),%xmm4
  40201f:	f2 1a 
  402021:	66 0f 10 2c ed f0 8f 	movupd 0x1af28ff0(,%rbp,8),%xmm5
  402028:	f2 1a 
  40202a:	66 0f 59 e1          	mulpd  %xmm1,%xmm4
  40202e:	66 0f 59 e9          	mulpd  %xmm1,%xmm5
  402032:	66 0f 58 e2          	addpd  %xmm2,%xmm4
  402036:	66 0f 58 eb          	addpd  %xmm3,%xmm5
  40203a:	66 0f 11 24 ed e0 8f 	movupd %xmm4,0x1af28fe0(,%rbp,8)
  402041:	f2 1a 
  402043:	66 0f 11 2c ed f0 8f 	movupd %xmm5,0x1af28ff0(,%rbp,8)
  40204a:	f2 1a 
  40204c:	48 8d 6d 08          	lea    0x8(%rbp),%rbp
  402050:	48 83 c0 02          	add    $0x2,%rax
  402054:	0f 85 66 ff ff ff    	jne    401fc0 <conj_grad+0x480>
  40205a:	48 83 7c 24 48 00    	cmpq   $0x0,0x48(%rsp)
  402060:	74 46                	je     4020a8 <conj_grad+0x568>
  402062:	66 0f 10 14 ed 80 df 	movupd 0x1b04df80(,%rbp,8),%xmm2
  402069:	04 1b 
  40206b:	66 0f 10 1c ed 90 df 	movupd 0x1b04df90(,%rbp,8),%xmm3
  402072:	04 1b 
  402074:	66 0f 10 24 ed c0 8f 	movupd 0x1af28fc0(,%rbp,8),%xmm4
  40207b:	f2 1a 
  40207d:	66 0f 10 2c ed d0 8f 	movupd 0x1af28fd0(,%rbp,8),%xmm5
  402084:	f2 1a 
  402086:	66 0f 59 e1          	mulpd  %xmm1,%xmm4
  40208a:	66 0f 59 e9          	mulpd  %xmm1,%xmm5
  40208e:	66 0f 58 e2          	addpd  %xmm2,%xmm4
  402092:	66 0f 58 eb          	addpd  %xmm3,%xmm5
  402096:	66 0f 11 24 ed c0 8f 	movupd %xmm4,0x1af28fc0(,%rbp,8)
  40209d:	f2 1a 
  40209f:	66 0f 11 2c ed d0 8f 	movupd %xmm5,0x1af28fd0(,%rbp,8)
  4020a6:	f2 1a 
  4020a8:	4c 3b 4c 24 40       	cmp    0x40(%rsp),%r9
  4020ad:	48 8b 44 24 38       	mov    0x38(%rsp),%rax
  4020b2:	74 33                	je     4020e7 <conj_grad+0x5a7>
  4020b4:	48 ff c8             	dec    %rax
  4020b7:	66 0f 1f 84 00 00 00 	nopw   0x0(%rax,%rax,1)
  4020be:	00 00 
  4020c0:	f2 0f 10 0c c5 c8 8f 	movsd  0x1af28fc8(,%rax,8),%xmm1
  4020c7:	f2 1a 
  4020c9:	f2 0f 59 c8          	mulsd  %xmm0,%xmm1
  4020cd:	f2 0f 58 0c c5 88 df 	addsd  0x1b04df88(,%rax,8),%xmm1
  4020d4:	04 1b 
  4020d6:	f2 0f 11 0c c5 c8 8f 	movsd  %xmm1,0x1af28fc8(,%rax,8)
  4020dd:	f2 1a 
  4020df:	48 ff c0             	inc    %rax
  4020e2:	4c 39 c8             	cmp    %r9,%rax
  4020e5:	7c d9                	jl     4020c0 <conj_grad+0x580>
  4020e7:	41 ff c7             	inc    %r15d
  4020ea:	41 83 ff 1a          	cmp    $0x1a,%r15d
  4020ee:	4d 89 f5             	mov    %r14,%r13
  4020f1:	0f 85 39 fc ff ff    	jne    401d30 <conj_grad+0x1f0>
  4020f7:	48 8b 44 24 20       	mov    0x20(%rsp),%rax
  4020fc:	85 c0                	test   %eax,%eax
  4020fe:	4c 8b 74 24 18       	mov    0x18(%rsp),%r14
  402103:	0f 8e ab 00 00 00    	jle    4021b4 <conj_grad+0x674>
  402109:	8b 15 b5 b4 71 0b    	mov    0xb71b4b5(%rip),%edx        # bb1d5c4 <rowstr+0x4>
  40210f:	be 01 00 00 00       	mov    $0x1,%esi
  402114:	66 66 66 2e 0f 1f 84 	data16 data16 nopw %cs:0x0(%rax,%rax,1)
  40211b:	00 00 00 00 00 
  402120:	4c 8d 4e 01          	lea    0x1(%rsi),%r9
  402124:	8b 04 b5 c4 d5 b1 0b 	mov    0xbb1d5c4(,%rsi,4),%eax
  40212b:	39 c2                	cmp    %eax,%edx
  40212d:	bd 00 00 00 00       	mov    $0x0,%ebp
  402132:	7d 6a                	jge    40219e <conj_grad+0x65e>
  402134:	48 63 e8             	movslq %eax,%rbp
  402137:	48 63 d2             	movslq %edx,%rdx
  40213a:	48 8d 5d ff          	lea    -0x1(%rbp),%rbx
  40213e:	66 0f 57 c0          	xorpd  %xmm0,%xmm0
  402142:	66 66 66 66 66 2e 0f 	data16 data16 data16 data16 nopw %cs:0x0(%rax,%rax,1)
  402149:	1f 84 00 00 00 00 00 
  402150:	f2 0f 10 0c d5 c0 30 	movsd  0x6030c0(,%rdx,8),%xmm1
  402157:	60 00 
  402159:	48 63 0c 95 10 f4 eb 	movslq 0x7ebf410(,%rdx,4),%rcx
  402160:	07 
  402161:	48 8d 7a 20          	lea    0x20(%rdx),%rdi
  402165:	48 39 fb             	cmp    %rdi,%rbx
  402168:	48 0f 4e fb          	cmovle %rbx,%rdi
  40216c:	48 63 3c bd 10 f4 eb 	movslq 0x7ebf410(,%rdi,4),%rdi
  402173:	07 
  402174:	f2 0f 59 0c cd e0 67 	mulsd  0x1ae967e0(,%rcx,8),%xmm1
  40217b:	e9 1a 
  40217d:	f2 0f 58 c1          	addsd  %xmm1,%xmm0
  402181:	0f 18 0c 95 10 f5 eb 	prefetcht0 0x7ebf510(,%rdx,4)
  402188:	07 
  402189:	48 ff c2             	inc    %rdx
  40218c:	0f 18 0c fd e0 67 e9 	prefetcht0 0x1ae967e0(,%rdi,8)
  402193:	1a 
  402194:	48 39 d5             	cmp    %rdx,%rbp
  402197:	75 b7                	jne    402150 <conj_grad+0x610>
  402199:	66 48 0f 7e c5       	movq   %xmm0,%rbp
  40219e:	48 89 2c f5 80 df 04 	mov    %rbp,0x1b04df80(,%rsi,8)
  4021a5:	1b 
  4021a6:	4d 39 d1             	cmp    %r10,%r9
  4021a9:	89 c2                	mov    %eax,%edx
  4021ab:	4c 89 ce             	mov    %r9,%rsi
  4021ae:	0f 85 6c ff ff ff    	jne    402120 <conj_grad+0x5e0>
  4021b4:	66 0f 57 c0          	xorpd  %xmm0,%xmm0
  4021b8:	83 7c 24 10 00       	cmpl   $0x0,0x10(%rsp)
  4021bd:	0f 8e be 00 00 00    	jle    402281 <conj_grad+0x741>
  4021c3:	b9 01 00 00 00       	mov    $0x1,%ecx
  4021c8:	66 0f 57 c0          	xorpd  %xmm0,%xmm0
  4021cc:	49 83 fe 03          	cmp    $0x3,%r14
  4021d0:	72 75                	jb     402247 <conj_grad+0x707>
  4021d2:	31 c9                	xor    %ecx,%ecx
  4021d4:	66 66 66 2e 0f 1f 84 	data16 data16 nopw %cs:0x0(%rax,%rax,1)
  4021db:	00 00 00 00 00 
  4021e0:	f2 0f 10 0c cd 08 40 	movsd  0x1ae04008(,%rcx,8),%xmm1
  4021e7:	e0 1a 
  4021e9:	f2 0f 5c 0c cd 88 df 	subsd  0x1b04df88(,%rcx,8),%xmm1
  4021f0:	04 1b 
  4021f2:	f2 0f 59 c9          	mulsd  %xmm1,%xmm1
  4021f6:	f2 0f 58 c8          	addsd  %xmm0,%xmm1
  4021fa:	66 0f 10 14 cd 10 40 	movupd 0x1ae04010(,%rcx,8),%xmm2
  402201:	e0 1a 
  402203:	66 0f 10 04 cd 90 df 	movupd 0x1b04df90(,%rcx,8),%xmm0
  40220a:	04 1b 
  40220c:	66 0f 5c d0          	subpd  %xmm0,%xmm2
  402210:	66 0f 59 d2          	mulpd  %xmm2,%xmm2
  402214:	f2 0f 58 ca          	addsd  %xmm2,%xmm1
  402218:	66 0f c6 d2 01       	shufpd $0x1,%xmm2,%xmm2
  40221d:	f2 0f 58 d1          	addsd  %xmm1,%xmm2
  402221:	f2 0f 10 04 cd 20 40 	movsd  0x1ae04020(,%rcx,8),%xmm0
  402228:	e0 1a 
  40222a:	f2 0f 5c 04 cd a0 df 	subsd  0x1b04dfa0(,%rcx,8),%xmm0
  402231:	04 1b 
  402233:	f2 0f 59 c0          	mulsd  %xmm0,%xmm0
  402237:	f2 0f 58 c2          	addsd  %xmm2,%xmm0
  40223b:	48 83 c1 04          	add    $0x4,%rcx
  40223f:	49 39 c8             	cmp    %rcx,%r8
  402242:	75 9c                	jne    4021e0 <conj_grad+0x6a0>
  402244:	48 ff c1             	inc    %rcx
  402247:	4d 85 db             	test   %r11,%r11
  40224a:	74 35                	je     402281 <conj_grad+0x741>
  40224c:	48 c1 e1 03          	shl    $0x3,%rcx
  402250:	49 f7 db             	neg    %r11
  402253:	66 66 66 66 2e 0f 1f 	data16 data16 data16 nopw %cs:0x0(%rax,%rax,1)
  40225a:	84 00 00 00 00 00 
  402260:	f2 0f 10 89 00 40 e0 	movsd  0x1ae04000(%rcx),%xmm1
  402267:	1a 
  402268:	f2 0f 5c 89 80 df 04 	subsd  0x1b04df80(%rcx),%xmm1
  40226f:	1b 
  402270:	f2 0f 59 c9          	mulsd  %xmm1,%xmm1
  402274:	f2 0f 58 c1          	addsd  %xmm1,%xmm0
  402278:	48 83 c1 08          	add    $0x8,%rcx
  40227c:	49 ff c3             	inc    %r11
  40227f:	75 df                	jne    402260 <conj_grad+0x720>
  402281:	0f 57 c9             	xorps  %xmm1,%xmm1
  402284:	f2 0f 51 c8          	sqrtsd %xmm0,%xmm1
  402288:	66 0f 2e c9          	ucomisd %xmm1,%xmm1
  40228c:	7b 09                	jnp    402297 <conj_grad+0x757>
  40228e:	e8 2d e4 ff ff       	callq  4006c0 <sqrt@plt>
  402293:	66 0f 28 c8          	movapd %xmm0,%xmm1
  402297:	48 8b 44 24 28       	mov    0x28(%rsp),%rax
  40229c:	f2 0f 11 08          	movsd  %xmm1,(%rax)
  4022a0:	48 83 c4 68          	add    $0x68,%rsp
  4022a4:	5b                   	pop    %rbx
  4022a5:	41 5c                	pop    %r12
  4022a7:	41 5d                	pop    %r13
  4022a9:	41 5e                	pop    %r14
  4022ab:	41 5f                	pop    %r15
  4022ad:	5d                   	pop    %rbp
  4022ae:	c3                   	retq   
  4022af:	90                   	nop

00000000004022b0 <c_print_results>:
  4022b0:	50                   	push   %rax
  4022b1:	f2 0f 11 04 24       	movsd  %xmm0,(%rsp)
  4022b6:	48 89 f9             	mov    %rdi,%rcx
  4022b9:	bf 90 28 40 00       	mov    $0x402890,%edi
  4022be:	31 c0                	xor    %eax,%eax
  4022c0:	48 89 ce             	mov    %rcx,%rsi
  4022c3:	e8 88 e3 ff ff       	callq  400650 <printf@plt>
  4022c8:	bf ab 28 40 00       	mov    $0x4028ab,%edi
  4022cd:	b0 01                	mov    $0x1,%al
  4022cf:	f2 0f 10 04 24       	movsd  (%rsp),%xmm0
  4022d4:	59                   	pop    %rcx
  4022d5:	e9 76 e3 ff ff       	jmpq   400650 <printf@plt>
  4022da:	66 0f 1f 44 00 00    	nopw   0x0(%rax,%rax,1)

00000000004022e0 <elapsed_time>:
  4022e0:	50                   	push   %rax
  4022e1:	48 8d 3c 24          	lea    (%rsp),%rdi
  4022e5:	e8 a6 00 00 00       	callq  402390 <wtime_>
  4022ea:	f2 0f 10 04 24       	movsd  (%rsp),%xmm0
  4022ef:	58                   	pop    %rax
  4022f0:	c3                   	retq   
  4022f1:	66 66 66 66 66 66 2e 	data16 data16 data16 data16 data16 nopw %cs:0x0(%rax,%rax,1)
  4022f8:	0f 1f 84 00 00 00 00 
  4022ff:	00 

0000000000402300 <timer_clear>:
  402300:	48 63 c7             	movslq %edi,%rax
  402303:	48 c7 04 c5 60 07 0e 	movq   $0x0,0x1b0e0760(,%rax,8)
  40230a:	1b 00 00 00 00 
  40230f:	c3                   	retq   

0000000000402310 <timer_start>:
  402310:	53                   	push   %rbx
  402311:	48 83 ec 10          	sub    $0x10,%rsp
  402315:	89 fb                	mov    %edi,%ebx
  402317:	48 8d 7c 24 08       	lea    0x8(%rsp),%rdi
  40231c:	e8 6f 00 00 00       	callq  402390 <wtime_>
  402321:	48 8b 44 24 08       	mov    0x8(%rsp),%rax
  402326:	48 63 cb             	movslq %ebx,%rcx
  402329:	48 89 04 cd 60 09 0e 	mov    %rax,0x1b0e0960(,%rcx,8)
  402330:	1b 
  402331:	48 83 c4 10          	add    $0x10,%rsp
  402335:	5b                   	pop    %rbx
  402336:	c3                   	retq   
  402337:	66 0f 1f 84 00 00 00 	nopw   0x0(%rax,%rax,1)
  40233e:	00 00 

0000000000402340 <timer_stop>:
  402340:	53                   	push   %rbx
  402341:	48 83 ec 10          	sub    $0x10,%rsp
  402345:	89 fb                	mov    %edi,%ebx
  402347:	48 8d 7c 24 08       	lea    0x8(%rsp),%rdi
  40234c:	e8 3f 00 00 00       	callq  402390 <wtime_>
  402351:	f2 0f 10 44 24 08    	movsd  0x8(%rsp),%xmm0
  402357:	48 63 c3             	movslq %ebx,%rax
  40235a:	f2 0f 5c 04 c5 60 09 	subsd  0x1b0e0960(,%rax,8),%xmm0
  402361:	0e 1b 
  402363:	f2 0f 58 04 c5 60 07 	addsd  0x1b0e0760(,%rax,8),%xmm0
  40236a:	0e 1b 
  40236c:	f2 0f 11 04 c5 60 07 	movsd  %xmm0,0x1b0e0760(,%rax,8)
  402373:	0e 1b 
  402375:	48 83 c4 10          	add    $0x10,%rsp
  402379:	5b                   	pop    %rbx
  40237a:	c3                   	retq   
  40237b:	0f 1f 44 00 00       	nopl   0x0(%rax,%rax,1)

0000000000402380 <timer_read>:
  402380:	48 63 c7             	movslq %edi,%rax
  402383:	f2 0f 10 04 c5 60 07 	movsd  0x1b0e0760(,%rax,8),%xmm0
  40238a:	0e 1b 
  40238c:	c3                   	retq   
  40238d:	0f 1f 00             	nopl   (%rax)

0000000000402390 <wtime_>:
  402390:	53                   	push   %rbx
  402391:	48 83 ec 10          	sub    $0x10,%rsp
  402395:	48 89 fb             	mov    %rdi,%rbx
  402398:	48 8d 3c 24          	lea    (%rsp),%rdi
  40239c:	31 f6                	xor    %esi,%esi
  40239e:	e8 bd e2 ff ff       	callq  400660 <gettimeofday@plt>
  4023a3:	8b 0d c7 0c 20 00    	mov    0x200cc7(%rip),%ecx        # 603070 <wtime_.sec>
  4023a9:	48 8b 04 24          	mov    (%rsp),%rax
  4023ad:	85 c9                	test   %ecx,%ecx
  4023af:	79 08                	jns    4023b9 <wtime_+0x29>
  4023b1:	89 05 b9 0c 20 00    	mov    %eax,0x200cb9(%rip)        # 603070 <wtime_.sec>
  4023b7:	89 c1                	mov    %eax,%ecx
  4023b9:	48 63 c9             	movslq %ecx,%rcx
  4023bc:	48 29 c8             	sub    %rcx,%rax
  4023bf:	f2 48 0f 2a c0       	cvtsi2sd %rax,%xmm0
  4023c4:	f2 48 0f 2a 4c 24 08 	cvtsi2sdq 0x8(%rsp),%xmm1
  4023cb:	f2 0f 59 0d 05 05 00 	mulsd  0x505(%rip),%xmm1        # 4028d8 <_IO_stdin_used+0x2c8>
  4023d2:	00 
  4023d3:	f2 0f 58 c8          	addsd  %xmm0,%xmm1
  4023d7:	f2 0f 11 0b          	movsd  %xmm1,(%rbx)
  4023db:	48 83 c4 10          	add    $0x10,%rsp
  4023df:	5b                   	pop    %rbx
  4023e0:	c3                   	retq   
  4023e1:	66 2e 0f 1f 84 00 00 	nopw   %cs:0x0(%rax,%rax,1)
  4023e8:	00 00 00 
  4023eb:	0f 1f 44 00 00       	nopl   0x0(%rax,%rax,1)

00000000004023f0 <randlc>:
  4023f0:	f2 0f 10 1d e8 04 00 	movsd  0x4e8(%rip),%xmm3        # 4028e0 <_IO_stdin_used+0x2d0>
  4023f7:	00 
  4023f8:	66 0f 28 c8          	movapd %xmm0,%xmm1
  4023fc:	f2 0f 59 cb          	mulsd  %xmm3,%xmm1
  402400:	f2 0f 2c c1          	cvttsd2si %xmm1,%eax
  402404:	f2 0f 2a d0          	cvtsi2sd %eax,%xmm2
  402408:	f2 0f 10 25 d8 04 00 	movsd  0x4d8(%rip),%xmm4        # 4028e8 <_IO_stdin_used+0x2d8>
  40240f:	00 
  402410:	66 0f 28 ca          	movapd %xmm2,%xmm1
  402414:	f2 0f 59 cc          	mulsd  %xmm4,%xmm1
  402418:	f2 0f 5c c1          	subsd  %xmm1,%xmm0
  40241c:	f2 0f 10 0f          	movsd  (%rdi),%xmm1
  402420:	66 0f 28 e9          	movapd %xmm1,%xmm5
  402424:	f2 0f 59 eb          	mulsd  %xmm3,%xmm5
  402428:	f2 0f 2c c5          	cvttsd2si %xmm5,%eax
  40242c:	0f 57 ed             	xorps  %xmm5,%xmm5
  40242f:	f2 0f 2a e8          	cvtsi2sd %eax,%xmm5
  402433:	66 0f 28 f0          	movapd %xmm0,%xmm6
  402437:	f2 0f 59 f5          	mulsd  %xmm5,%xmm6
  40243b:	f2 0f 59 ec          	mulsd  %xmm4,%xmm5
  40243f:	f2 0f 5c cd          	subsd  %xmm5,%xmm1
  402443:	f2 0f 59 d1          	mulsd  %xmm1,%xmm2
  402447:	f2 0f 58 d6          	addsd  %xmm6,%xmm2
  40244b:	f2 0f 59 da          	mulsd  %xmm2,%xmm3
  40244f:	f2 0f 2c c3          	cvttsd2si %xmm3,%eax
  402453:	0f 57 db             	xorps  %xmm3,%xmm3
  402456:	f2 0f 2a d8          	cvtsi2sd %eax,%xmm3
  40245a:	f2 0f 59 dc          	mulsd  %xmm4,%xmm3
  40245e:	f2 0f 5c d3          	subsd  %xmm3,%xmm2
  402462:	f2 0f 59 d4          	mulsd  %xmm4,%xmm2
  402466:	f2 0f 59 c8          	mulsd  %xmm0,%xmm1
  40246a:	f2 0f 58 ca          	addsd  %xmm2,%xmm1
  40246e:	f2 0f 10 15 7a 04 00 	movsd  0x47a(%rip),%xmm2        # 4028f0 <_IO_stdin_used+0x2e0>
  402475:	00 
  402476:	66 0f 28 c1          	movapd %xmm1,%xmm0
  40247a:	f2 0f 59 c2          	mulsd  %xmm2,%xmm0
  40247e:	f2 0f 2c c0          	cvttsd2si %xmm0,%eax
  402482:	0f 57 c0             	xorps  %xmm0,%xmm0
  402485:	f2 0f 2a c0          	cvtsi2sd %eax,%xmm0
  402489:	f2 0f 59 05 67 04 00 	mulsd  0x467(%rip),%xmm0        # 4028f8 <_IO_stdin_used+0x2e8>
  402490:	00 
  402491:	f2 0f 58 c1          	addsd  %xmm1,%xmm0
  402495:	f2 0f 11 07          	movsd  %xmm0,(%rdi)
  402499:	f2 0f 59 c2          	mulsd  %xmm2,%xmm0
  40249d:	c3                   	retq   
  40249e:	66 90                	xchg   %ax,%ax

00000000004024a0 <vranlc>:
  4024a0:	f2 0f 10 0e          	movsd  (%rsi),%xmm1
  4024a4:	85 ff                	test   %edi,%edi
  4024a6:	0f 8e de 00 00 00    	jle    40258a <vranlc+0xea>
  4024ac:	f2 0f 10 15 2c 04 00 	movsd  0x42c(%rip),%xmm2        # 4028e0 <_IO_stdin_used+0x2d0>
  4024b3:	00 
  4024b4:	f2 0f 59 d0          	mulsd  %xmm0,%xmm2
  4024b8:	f2 0f 2c c2          	cvttsd2si %xmm2,%eax
  4024bc:	0f 57 d2             	xorps  %xmm2,%xmm2
  4024bf:	f2 0f 2a d0          	cvtsi2sd %eax,%xmm2
  4024c3:	f2 0f 10 35 35 04 00 	movsd  0x435(%rip),%xmm6        # 402900 <_IO_stdin_used+0x2f0>
  4024ca:	00 
  4024cb:	f2 0f 59 f2          	mulsd  %xmm2,%xmm6
  4024cf:	f2 0f 58 f0          	addsd  %xmm0,%xmm6
  4024d3:	48 83 c2 08          	add    $0x8,%rdx
  4024d7:	f2 0f 10 05 01 04 00 	movsd  0x401(%rip),%xmm0        # 4028e0 <_IO_stdin_used+0x2d0>
  4024de:	00 
  4024df:	f2 0f 10 25 01 04 00 	movsd  0x401(%rip),%xmm4        # 4028e8 <_IO_stdin_used+0x2d8>
  4024e6:	00 
  4024e7:	f2 0f 10 2d 01 04 00 	movsd  0x401(%rip),%xmm5        # 4028f0 <_IO_stdin_used+0x2e0>
  4024ee:	00 
  4024ef:	f2 44 0f 10 05 00 04 	movsd  0x400(%rip),%xmm8        # 4028f8 <_IO_stdin_used+0x2e8>
  4024f6:	00 00 
  4024f8:	0f 1f 84 00 00 00 00 	nopl   0x0(%rax,%rax,1)
  4024ff:	00 
  402500:	66 0f 28 f9          	movapd %xmm1,%xmm7
  402504:	f2 0f 59 f8          	mulsd  %xmm0,%xmm7
  402508:	f2 0f 2c c7          	cvttsd2si %xmm7,%eax
  40250c:	0f 57 ff             	xorps  %xmm7,%xmm7
  40250f:	f2 0f 2a f8          	cvtsi2sd %eax,%xmm7
  402513:	66 0f 28 de          	movapd %xmm6,%xmm3
  402517:	f2 0f 59 df          	mulsd  %xmm7,%xmm3
  40251b:	f2 0f 59 fc          	mulsd  %xmm4,%xmm7
  40251f:	f2 0f 5c cf          	subsd  %xmm7,%xmm1
  402523:	66 0f 28 fa          	movapd %xmm2,%xmm7
  402527:	f2 0f 59 f9          	mulsd  %xmm1,%xmm7
  40252b:	f2 0f 58 fb          	addsd  %xmm3,%xmm7
  40252f:	66 0f 28 df          	movapd %xmm7,%xmm3
  402533:	f2 0f 59 d8          	mulsd  %xmm0,%xmm3
  402537:	f2 0f 2c c3          	cvttsd2si %xmm3,%eax
  40253b:	0f 57 db             	xorps  %xmm3,%xmm3
  40253e:	f2 0f 2a d8          	cvtsi2sd %eax,%xmm3
  402542:	f2 0f 59 dc          	mulsd  %xmm4,%xmm3
  402546:	f2 0f 5c fb          	subsd  %xmm3,%xmm7
  40254a:	f2 0f 59 fc          	mulsd  %xmm4,%xmm7
  40254e:	f2 0f 59 ce          	mulsd  %xmm6,%xmm1
  402552:	f2 0f 58 cf          	addsd  %xmm7,%xmm1
  402556:	66 0f 28 d9          	movapd %xmm1,%xmm3
  40255a:	f2 0f 59 dd          	mulsd  %xmm5,%xmm3
  40255e:	f2 0f 2c c3          	cvttsd2si %xmm3,%eax
  402562:	0f 57 db             	xorps  %xmm3,%xmm3
  402565:	f2 0f 2a d8          	cvtsi2sd %eax,%xmm3
  402569:	f2 41 0f 59 d8       	mulsd  %xmm8,%xmm3
  40256e:	f2 0f 58 cb          	addsd  %xmm3,%xmm1
  402572:	66 0f 28 d9          	movapd %xmm1,%xmm3
  402576:	f2 0f 59 dd          	mulsd  %xmm5,%xmm3
  40257a:	f2 0f 11 1a          	movsd  %xmm3,(%rdx)
  40257e:	48 83 c2 08          	add    $0x8,%rdx
  402582:	ff cf                	dec    %edi
  402584:	0f 85 76 ff ff ff    	jne    402500 <vranlc+0x60>
  40258a:	f2 0f 11 0e          	movsd  %xmm1,(%rsi)
  40258e:	c3                   	retq   
  40258f:	90                   	nop

0000000000402590 <__libc_csu_init>:
  402590:	41 57                	push   %r15
  402592:	41 56                	push   %r14
  402594:	41 89 ff             	mov    %edi,%r15d
  402597:	41 55                	push   %r13
  402599:	41 54                	push   %r12
  40259b:	4c 8d 25 5e 08 20 00 	lea    0x20085e(%rip),%r12        # 602e00 <__frame_dummy_init_array_entry>
  4025a2:	55                   	push   %rbp
  4025a3:	48 8d 2d 5e 08 20 00 	lea    0x20085e(%rip),%rbp        # 602e08 <__init_array_end>
  4025aa:	53                   	push   %rbx
  4025ab:	49 89 f6             	mov    %rsi,%r14
  4025ae:	49 89 d5             	mov    %rdx,%r13
  4025b1:	4c 29 e5             	sub    %r12,%rbp
  4025b4:	48 83 ec 08          	sub    $0x8,%rsp
  4025b8:	48 c1 fd 03          	sar    $0x3,%rbp
  4025bc:	e8 4f e0 ff ff       	callq  400610 <_init>
  4025c1:	48 85 ed             	test   %rbp,%rbp
  4025c4:	74 20                	je     4025e6 <__libc_csu_init+0x56>
  4025c6:	31 db                	xor    %ebx,%ebx
  4025c8:	0f 1f 84 00 00 00 00 	nopl   0x0(%rax,%rax,1)
  4025cf:	00 
  4025d0:	4c 89 ea             	mov    %r13,%rdx
  4025d3:	4c 89 f6             	mov    %r14,%rsi
  4025d6:	44 89 ff             	mov    %r15d,%edi
  4025d9:	41 ff 14 dc          	callq  *(%r12,%rbx,8)
  4025dd:	48 83 c3 01          	add    $0x1,%rbx
  4025e1:	48 39 eb             	cmp    %rbp,%rbx
  4025e4:	75 ea                	jne    4025d0 <__libc_csu_init+0x40>
  4025e6:	48 83 c4 08          	add    $0x8,%rsp
  4025ea:	5b                   	pop    %rbx
  4025eb:	5d                   	pop    %rbp
  4025ec:	41 5c                	pop    %r12
  4025ee:	41 5d                	pop    %r13
  4025f0:	41 5e                	pop    %r14
  4025f2:	41 5f                	pop    %r15
  4025f4:	c3                   	retq   
  4025f5:	90                   	nop
  4025f6:	66 2e 0f 1f 84 00 00 	nopw   %cs:0x0(%rax,%rax,1)
  4025fd:	00 00 00 

0000000000402600 <__libc_csu_fini>:
  402600:	f3 c3                	repz retq 

Disassembly of section .fini:

0000000000402604 <_fini>:
  402604:	48 83 ec 08          	sub    $0x8,%rsp
  402608:	48 83 c4 08          	add    $0x8,%rsp
  40260c:	c3                   	retq   
